---
triple:          'arm64-apple-darwin'
binary-path:     '/Users/sumeetsingh/Documents/BubbleUp/main'
relocations:
  - { offsetInCU: 0x4F, offset: 0x4F, size: 0x8, addend: 0x0, symName: __ZN5boost4asio5errorL15system_categoryE, symObjAddr: 0x419E8, symBinAddr: 0x1000B0218, symSize: 0x0 }
  - { offsetInCU: 0x69, offset: 0x69, size: 0x8, addend: 0x0, symName: __ZN5boost4asio5errorL14netdb_categoryE, symObjAddr: 0x419F0, symBinAddr: 0x1000B0220, symSize: 0x0 }
  - { offsetInCU: 0x83, offset: 0x83, size: 0x8, addend: 0x0, symName: __ZN5boost4asio5errorL17addrinfo_categoryE, symObjAddr: 0x419F8, symBinAddr: 0x1000B0228, symSize: 0x0 }
  - { offsetInCU: 0x9D, offset: 0x9D, size: 0x8, addend: 0x0, symName: __ZN5boost4asio5errorL13misc_categoryE, symObjAddr: 0x41A00, symBinAddr: 0x1000B0230, symSize: 0x0 }
  - { offsetInCU: 0xAA, offset: 0xAA, size: 0x8, addend: 0x0, symName: __ZN5boost4asio5error18get_netdb_categoryEv, symObjAddr: 0x14, symBinAddr: 0x100004740, symSize: 0xC }
  - { offsetInCU: 0xD3, offset: 0xD3, size: 0x8, addend: 0x0, symName: __ZZN5boost4asio5error18get_netdb_categoryEvE8instance, symObjAddr: 0x2B38, symBinAddr: 0x1000B00C8, symSize: 0x0 }
  - { offsetInCU: 0x1E5, offset: 0x1E5, size: 0x8, addend: 0x0, symName: __ZN5boost4asio5error21get_addrinfo_categoryEv, symObjAddr: 0x20, symBinAddr: 0x10000474C, symSize: 0xC }
  - { offsetInCU: 0x20E, offset: 0x20E, size: 0x8, addend: 0x0, symName: __ZZN5boost4asio5error21get_addrinfo_categoryEvE8instance, symObjAddr: 0x2B70, symBinAddr: 0x1000B0100, symSize: 0x0 }
  - { offsetInCU: 0x218, offset: 0x218, size: 0x8, addend: 0x0, symName: __ZN5boost4asio5error17get_misc_categoryEv, symObjAddr: 0x2C, symBinAddr: 0x100004758, symSize: 0xC }
  - { offsetInCU: 0x241, offset: 0x241, size: 0x8, addend: 0x0, symName: __ZZN5boost4asio5error17get_misc_categoryEvE8instance, symObjAddr: 0x2BA8, symBinAddr: 0x1000B0138, symSize: 0x0 }
  - { offsetInCU: 0x24B, offset: 0x24B, size: 0x8, addend: 0x0, symName: __ZN5boost4asio5error19get_system_categoryEv, symObjAddr: 0x0, symBinAddr: 0x10000472C, symSize: 0x14 }
  - { offsetInCU: 0x275, offset: 0x275, size: 0x8, addend: 0x0, symName: __ZN5boost4asio6detail10call_stackINS1_14thread_contextENS1_16thread_info_baseEE4top_E, symObjAddr: 0x2A70, symBinAddr: 0x1000B0000, symSize: 0x0 }
  - { offsetInCU: 0x52B, offset: 0x52B, size: 0x8, addend: 0x0, symName: __ZN5boost4asio6detail30execution_context_service_baseINS1_9schedulerEE2idE, symObjAddr: 0x2A80, symBinAddr: 0x1000B0010, symSize: 0x0 }
  - { offsetInCU: 0x10A1, offset: 0x10A1, size: 0x8, addend: 0x0, symName: __ZN5boost4asio6detail30execution_context_service_baseINS1_14kqueue_reactorEE2idE, symObjAddr: 0x2A90, symBinAddr: 0x1000B0020, symSize: 0x0 }
  - { offsetInCU: 0x199A, offset: 0x199A, size: 0x8, addend: 0x0, symName: __ZN5boost4asio6detail10call_stackINS1_14strand_service11strand_implEhE4top_E, symObjAddr: 0x2AA0, symBinAddr: 0x1000B0030, symSize: 0x0 }
  - { offsetInCU: 0x1E30, offset: 0x1E30, size: 0x8, addend: 0x0, symName: __ZN5boost4asio6detail12service_baseINS1_14strand_serviceEE2idE, symObjAddr: 0x2AB0, symBinAddr: 0x1000B0040, symSize: 0x0 }
  - { offsetInCU: 0x1E43, offset: 0x1E43, size: 0x8, addend: 0x0, symName: __ZN5boost4asio6detail10call_stackINS1_23strand_executor_service11strand_implEhE4top_E, symObjAddr: 0x2AC0, symBinAddr: 0x1000B0050, symSize: 0x0 }
  - { offsetInCU: 0x2263, offset: 0x2263, size: 0x8, addend: 0x0, symName: __ZN5boost4asio6detail17posix_global_implINS0_14system_contextEE9instance_E, symObjAddr: 0x2AD0, symBinAddr: 0x1000B0060, symSize: 0x0 }
  - { offsetInCU: 0x2355, offset: 0x2355, size: 0x8, addend: 0x0, symName: __ZN5boost4asio6detail30execution_context_service_baseINS1_16resolver_serviceINS0_2ip3tcpEEEE2idE, symObjAddr: 0x2AE0, symBinAddr: 0x1000B0070, symSize: 0x0 }
  - { offsetInCU: 0x288F, offset: 0x288F, size: 0x8, addend: 0x0, symName: __ZN5boost4asio6detail30execution_context_service_baseINS1_23reactive_socket_serviceINS0_2ip3tcpEEEE2idE, symObjAddr: 0x2AF0, symBinAddr: 0x1000B0080, symSize: 0x0 }
  - { offsetInCU: 0x2F8B, offset: 0x2F8B, size: 0x8, addend: 0x0, symName: __ZN5boost4asio6detail17posix_global_implINS0_14system_contextEE11static_ptr_E, symObjAddr: 0x2BE0, symBinAddr: 0x1000B0170, symSize: 0x0 }
  - { offsetInCU: 0x5A3A, offset: 0x5A3A, size: 0x8, addend: 0x0, symName: __ZN5boost6system6detail29system_error_category_messageEi, symObjAddr: 0xA50, symBinAddr: 0x10000517C, symSize: 0x2C }
  - { offsetInCU: 0x5A66, offset: 0x5A66, size: 0x8, addend: 0x0, symName: __ZN5boost6system6detail30generic_error_category_messageEi, symObjAddr: 0xA7C, symBinAddr: 0x1000051A8, symSize: 0x6C }
  - { offsetInCU: 0x5AA0, offset: 0x5AA0, size: 0x8, addend: 0x0, symName: __ZN5boost6system6detail29system_error_category_messageEiPcm, symObjAddr: 0xAE8, symBinAddr: 0x100005214, symSize: 0x34 }
  - { offsetInCU: 0x5AE8, offset: 0x5AE8, size: 0x8, addend: 0x0, symName: __ZN5boost6system6detail30generic_error_category_messageEiPcm, symObjAddr: 0xB1C, symBinAddr: 0x100005248, symSize: 0xE8 }
  - { offsetInCU: 0x5DDC, offset: 0x5DDC, size: 0x8, addend: 0x0, symName: __ZN5boost6system15system_categoryEv, symObjAddr: 0x3F4, symBinAddr: 0x100004B20, symSize: 0xC }
  - { offsetInCU: 0x5DF9, offset: 0x5DF9, size: 0x8, addend: 0x0, symName: __ZN5boost6systemeqERKNS0_15error_conditionES3_, symObjAddr: 0x640, symBinAddr: 0x100004D6C, symSize: 0x10C }
  - { offsetInCU: 0x5E33, offset: 0x5E33, size: 0x8, addend: 0x0, symName: __ZN5boost6systemeqERKNS0_14error_categoryES3_, symObjAddr: 0x7A8, symBinAddr: 0x100004ED4, symSize: 0x6C }
  - { offsetInCU: 0xD8B8, offset: 0xD8B8, size: 0x8, addend: 0x0, symName: __ZNSt3__112__to_addressB8ue170006IKcEEPT_S3_, symObjAddr: 0xF3C, symBinAddr: 0x100005668, symSize: 0x14 }
  - { offsetInCU: 0xD920, offset: 0xD920, size: 0x8, addend: 0x0, symName: __ZNSt3__118__constexpr_strlenB8ue170006EPKc, symObjAddr: 0x1394, symBinAddr: 0x100005AC0, symSize: 0x24 }
  - { offsetInCU: 0xD94C, offset: 0xD94C, size: 0x8, addend: 0x0, symName: __ZNSt3__122__cxx_atomic_fetch_subB8ue170006IlEET_PNS_22__cxx_atomic_base_implIS1_EES1_NS_12memory_orderE, symObjAddr: 0x1A9C, symBinAddr: 0x1000061C8, symSize: 0xD8 }
  - { offsetInCU: 0xEEB2, offset: 0xEEB2, size: 0x8, addend: 0x0, symName: __ZN5boost6system6detail17system_cat_holderIvE8instanceE, symObjAddr: 0x2B00, symBinAddr: 0x1000B0090, symSize: 0x0 }
  - { offsetInCU: 0x11472, offset: 0x11472, size: 0x8, addend: 0x0, symName: _main, symObjAddr: 0x38, symBinAddr: 0x100004764, symSize: 0x9C }
  - { offsetInCU: 0x114AE, offset: 0x114AE, size: 0x8, addend: 0x0, symName: __ZNSt3__112basic_stringIcNS_11char_traitsIcEENS_9allocatorIcEEEC1B8ue170006ILi0EEEPKc, symObjAddr: 0xD4, symBinAddr: 0x100004800, symSize: 0x34 }
  - { offsetInCU: 0x114ED, offset: 0x114ED, size: 0x8, addend: 0x0, symName: __ZN5boost4asio6detail7tss_ptrINS1_10call_stackINS1_14thread_contextENS1_16thread_info_baseEE7contextEEC1Ev, symObjAddr: 0x108, symBinAddr: 0x100004834, symSize: 0x2C }
  - { offsetInCU: 0x11519, offset: 0x11519, size: 0x8, addend: 0x0, symName: __ZN5boost4asio6detail7tss_ptrINS1_10call_stackINS1_14thread_contextENS1_16thread_info_baseEE7contextEED1Ev, symObjAddr: 0x134, symBinAddr: 0x100004860, symSize: 0x2C }
  - { offsetInCU: 0x1154A, offset: 0x1154A, size: 0x8, addend: 0x0, symName: __ZN5boost4asio6detail10service_idINS1_9schedulerEEC1Ev, symObjAddr: 0x160, symBinAddr: 0x10000488C, symSize: 0x2C }
  - { offsetInCU: 0x11577, offset: 0x11577, size: 0x8, addend: 0x0, symName: __ZN5boost4asio6detail10service_idINS1_9schedulerEED1Ev, symObjAddr: 0x18C, symBinAddr: 0x1000048B8, symSize: 0x2C }
  - { offsetInCU: 0x115A9, offset: 0x115A9, size: 0x8, addend: 0x0, symName: __ZN5boost4asio6detail10service_idINS1_14kqueue_reactorEEC1Ev, symObjAddr: 0x1B8, symBinAddr: 0x1000048E4, symSize: 0x2C }
  - { offsetInCU: 0x115D6, offset: 0x115D6, size: 0x8, addend: 0x0, symName: __ZN5boost4asio6detail10service_idINS1_14kqueue_reactorEED1Ev, symObjAddr: 0x1E4, symBinAddr: 0x100004910, symSize: 0x2C }
  - { offsetInCU: 0x11603, offset: 0x11603, size: 0x8, addend: 0x0, symName: __ZN5boost4asio6detail7tss_ptrINS1_10call_stackINS1_14strand_service11strand_implEhE7contextEEC1Ev, symObjAddr: 0x210, symBinAddr: 0x10000493C, symSize: 0x2C }
  - { offsetInCU: 0x1162F, offset: 0x1162F, size: 0x8, addend: 0x0, symName: __ZN5boost4asio6detail7tss_ptrINS1_10call_stackINS1_14strand_service11strand_implEhE7contextEED1Ev, symObjAddr: 0x23C, symBinAddr: 0x100004968, symSize: 0x2C }
  - { offsetInCU: 0x11660, offset: 0x11660, size: 0x8, addend: 0x0, symName: __ZN5boost4asio6detail10service_idINS1_14strand_serviceEEC1Ev, symObjAddr: 0x268, symBinAddr: 0x100004994, symSize: 0x2C }
  - { offsetInCU: 0x1168D, offset: 0x1168D, size: 0x8, addend: 0x0, symName: __ZN5boost4asio6detail10service_idINS1_14strand_serviceEED1Ev, symObjAddr: 0x294, symBinAddr: 0x1000049C0, symSize: 0x2C }
  - { offsetInCU: 0x116BA, offset: 0x116BA, size: 0x8, addend: 0x0, symName: __ZN5boost4asio6detail7tss_ptrINS1_10call_stackINS1_23strand_executor_service11strand_implEhE7contextEEC1Ev, symObjAddr: 0x2C0, symBinAddr: 0x1000049EC, symSize: 0x2C }
  - { offsetInCU: 0x116E6, offset: 0x116E6, size: 0x8, addend: 0x0, symName: __ZN5boost4asio6detail7tss_ptrINS1_10call_stackINS1_23strand_executor_service11strand_implEhE7contextEED1Ev, symObjAddr: 0x2EC, symBinAddr: 0x100004A18, symSize: 0x2C }
  - { offsetInCU: 0x11712, offset: 0x11712, size: 0x8, addend: 0x0, symName: __ZN5boost4asio6detail17posix_global_implINS0_14system_contextEED1Ev, symObjAddr: 0x318, symBinAddr: 0x100004A44, symSize: 0x2C }
  - { offsetInCU: 0x11741, offset: 0x11741, size: 0x8, addend: 0x0, symName: __ZN5boost4asio6detail10service_idINS1_16resolver_serviceINS0_2ip3tcpEEEEC1Ev, symObjAddr: 0x344, symBinAddr: 0x100004A70, symSize: 0x2C }
  - { offsetInCU: 0x1176E, offset: 0x1176E, size: 0x8, addend: 0x0, symName: __ZN5boost4asio6detail10service_idINS1_16resolver_serviceINS0_2ip3tcpEEEED1Ev, symObjAddr: 0x370, symBinAddr: 0x100004A9C, symSize: 0x2C }
  - { offsetInCU: 0x117A0, offset: 0x117A0, size: 0x8, addend: 0x0, symName: __ZN5boost4asio6detail10service_idINS1_23reactive_socket_serviceINS0_2ip3tcpEEEEC1Ev, symObjAddr: 0x39C, symBinAddr: 0x100004AC8, symSize: 0x2C }
  - { offsetInCU: 0x117CD, offset: 0x117CD, size: 0x8, addend: 0x0, symName: __ZN5boost4asio6detail10service_idINS1_23reactive_socket_serviceINS0_2ip3tcpEEEED1Ev, symObjAddr: 0x3C8, symBinAddr: 0x100004AF4, symSize: 0x2C }
  - { offsetInCU: 0x117FA, offset: 0x117FA, size: 0x8, addend: 0x0, symName: __ZNK5boost6system6detail21system_error_category4nameEv, symObjAddr: 0x400, symBinAddr: 0x100004B2C, symSize: 0x18 }
  - { offsetInCU: 0x11820, offset: 0x11820, size: 0x8, addend: 0x0, symName: __ZNK5boost6system6detail21system_error_category23default_error_conditionEi, symObjAddr: 0x418, symBinAddr: 0x100004B44, symSize: 0x4C }
  - { offsetInCU: 0x11856, offset: 0x11856, size: 0x8, addend: 0x0, symName: __ZNK5boost6system14error_category10equivalentEiRKNS0_15error_conditionE, symObjAddr: 0x464, symBinAddr: 0x100004B90, symSize: 0x54 }
  - { offsetInCU: 0x1189A, offset: 0x1189A, size: 0x8, addend: 0x0, symName: __ZNK5boost6system14error_category10equivalentERKNS0_10error_codeEi, symObjAddr: 0x4B8, symBinAddr: 0x100004BE4, symSize: 0x38 }
  - { offsetInCU: 0x118DE, offset: 0x118DE, size: 0x8, addend: 0x0, symName: __ZNK5boost6system6detail21system_error_category7messageEi, symObjAddr: 0x4F0, symBinAddr: 0x100004C1C, symSize: 0x30 }
  - { offsetInCU: 0x11914, offset: 0x11914, size: 0x8, addend: 0x0, symName: __ZNK5boost6system6detail21system_error_category7messageEiPcm, symObjAddr: 0x520, symBinAddr: 0x100004C4C, symSize: 0x38 }
  - { offsetInCU: 0x11966, offset: 0x11966, size: 0x8, addend: 0x0, symName: __ZNK5boost6system14error_category6failedEi, symObjAddr: 0x558, symBinAddr: 0x100004C84, symSize: 0x24 }
  - { offsetInCU: 0x1199A, offset: 0x1199A, size: 0x8, addend: 0x0, symName: __ZN5boost6system6detail17generic_value_tagC1Ei, symObjAddr: 0x57C, symBinAddr: 0x100004CA8, symSize: 0x34 }
  - { offsetInCU: 0x119D2, offset: 0x119D2, size: 0x8, addend: 0x0, symName: __ZN5boost6system15error_conditionC1ENS0_6detail17generic_value_tagE, symObjAddr: 0x5BC, symBinAddr: 0x100004CE8, symSize: 0x3C }
  - { offsetInCU: 0x11A0A, offset: 0x11A0A, size: 0x8, addend: 0x0, symName: __ZN5boost6system6detail17generic_value_tagC2Ei, symObjAddr: 0x5F8, symBinAddr: 0x100004D24, symSize: 0x20 }
  - { offsetInCU: 0x11A42, offset: 0x11A42, size: 0x8, addend: 0x0, symName: __ZN5boost6system15error_conditionC2ENS0_6detail17generic_value_tagE, symObjAddr: 0x618, symBinAddr: 0x100004D44, symSize: 0x28 }
  - { offsetInCU: 0x11A7A, offset: 0x11A7A, size: 0x8, addend: 0x0, symName: __ZNK5boost6system15error_condition6cat_idEv, symObjAddr: 0x74C, symBinAddr: 0x100004E78, symSize: 0x5C }
  - { offsetInCU: 0x11AA0, offset: 0x11AA0, size: 0x8, addend: 0x0, symName: __ZNK5boost6system10error_code6equalsEiRKNS0_14error_categoryE, symObjAddr: 0x814, symBinAddr: 0x100004F40, symSize: 0x170 }
  - { offsetInCU: 0x11AE4, offset: 0x11AE4, size: 0x8, addend: 0x0, symName: __ZNK5boost6system10error_code5valueEv, symObjAddr: 0x984, symBinAddr: 0x1000050B0, symSize: 0x9C }
  - { offsetInCU: 0x11B43, offset: 0x11B43, size: 0x8, addend: 0x0, symName: __ZNKSt3__110error_code5valueB8ue170006Ev, symObjAddr: 0xA20, symBinAddr: 0x10000514C, symSize: 0x18 }
  - { offsetInCU: 0x11B69, offset: 0x11B69, size: 0x8, addend: 0x0, symName: __ZNKSt3__110error_code8categoryB8ue170006Ev, symObjAddr: 0xA38, symBinAddr: 0x100005164, symSize: 0x18 }
  - { offsetInCU: 0x11B8F, offset: 0x11B8F, size: 0x8, addend: 0x0, symName: __ZNK5boost4asio5error6detail14netdb_category4nameEv, symObjAddr: 0xC04, symBinAddr: 0x100005330, symSize: 0x18 }
  - { offsetInCU: 0x11BB5, offset: 0x11BB5, size: 0x8, addend: 0x0, symName: __ZNK5boost6system14error_category23default_error_conditionEi, symObjAddr: 0xC1C, symBinAddr: 0x100005348, symSize: 0x38 }
  - { offsetInCU: 0x11BEB, offset: 0x11BEB, size: 0x8, addend: 0x0, symName: __ZNK5boost4asio5error6detail14netdb_category7messageEi, symObjAddr: 0xC54, symBinAddr: 0x100005380, symSize: 0xDC }
  - { offsetInCU: 0x11C1F, offset: 0x11C1F, size: 0x8, addend: 0x0, symName: __ZNK5boost6system14error_category7messageEiPcm, symObjAddr: 0xD30, symBinAddr: 0x10000545C, symSize: 0x158 }
  - { offsetInCU: 0x11C71, offset: 0x11C71, size: 0x8, addend: 0x0, symName: __ZN5boost6system15error_conditionC1EiRKNS0_14error_categoryE, symObjAddr: 0xE88, symBinAddr: 0x1000055B4, symSize: 0x3C }
  - { offsetInCU: 0x11CB7, offset: 0x11CB7, size: 0x8, addend: 0x0, symName: __ZN5boost6system15error_conditionC2EiRKNS0_14error_categoryE, symObjAddr: 0xEC4, symBinAddr: 0x1000055F0, symSize: 0x2C }
  - { offsetInCU: 0x11CFD, offset: 0x11CFD, size: 0x8, addend: 0x0, symName: __ZNKSt3__112basic_stringIcNS_11char_traitsIcEENS_9allocatorIcEEE5c_strB8ue170006Ev, symObjAddr: 0xEF0, symBinAddr: 0x10000561C, symSize: 0x24 }
  - { offsetInCU: 0x11D23, offset: 0x11D23, size: 0x8, addend: 0x0, symName: __ZNKSt3__112basic_stringIcNS_11char_traitsIcEENS_9allocatorIcEEE4dataB8ue170006Ev, symObjAddr: 0xF14, symBinAddr: 0x100005640, symSize: 0x28 }
  - { offsetInCU: 0x11D49, offset: 0x11D49, size: 0x8, addend: 0x0, symName: __ZNKSt3__112basic_stringIcNS_11char_traitsIcEENS_9allocatorIcEEE13__get_pointerB8ue170006Ev, symObjAddr: 0xF50, symBinAddr: 0x10000567C, symSize: 0x54 }
  - { offsetInCU: 0x11D6F, offset: 0x11D6F, size: 0x8, addend: 0x0, symName: __ZNKSt3__112basic_stringIcNS_11char_traitsIcEENS_9allocatorIcEEE9__is_longB8ue170006Ev, symObjAddr: 0xFA4, symBinAddr: 0x1000056D0, symSize: 0x38 }
  - { offsetInCU: 0x11D95, offset: 0x11D95, size: 0x8, addend: 0x0, symName: __ZNKSt3__112basic_stringIcNS_11char_traitsIcEENS_9allocatorIcEEE18__get_long_pointerB8ue170006Ev, symObjAddr: 0xFDC, symBinAddr: 0x100005708, symSize: 0x28 }
  - { offsetInCU: 0x11DBB, offset: 0x11DBB, size: 0x8, addend: 0x0, symName: __ZNKSt3__112basic_stringIcNS_11char_traitsIcEENS_9allocatorIcEEE19__get_short_pointerB8ue170006Ev, symObjAddr: 0x1004, symBinAddr: 0x100005730, symSize: 0x28 }
  - { offsetInCU: 0x11DE1, offset: 0x11DE1, size: 0x8, addend: 0x0, symName: __ZNKSt3__117__compressed_pairINS_12basic_stringIcNS_11char_traitsIcEENS_9allocatorIcEEE5__repES5_E5firstB8ue170006Ev, symObjAddr: 0x102C, symBinAddr: 0x100005758, symSize: 0x24 }
  - { offsetInCU: 0x11E07, offset: 0x11E07, size: 0x8, addend: 0x0, symName: __ZNKSt3__122__compressed_pair_elemINS_12basic_stringIcNS_11char_traitsIcEENS_9allocatorIcEEE5__repELi0ELb0EE5__getB8ue170006Ev, symObjAddr: 0x1050, symBinAddr: 0x10000577C, symSize: 0x14 }
  - { offsetInCU: 0x11E2D, offset: 0x11E2D, size: 0x8, addend: 0x0, symName: __ZNSt3__114pointer_traitsIPKcE10pointer_toB8ue170006ERS1_, symObjAddr: 0x1064, symBinAddr: 0x100005790, symSize: 0x14 }
  - { offsetInCU: 0x11E50, offset: 0x11E50, size: 0x8, addend: 0x0, symName: __ZNK5boost4asio5error6detail17addrinfo_category4nameEv, symObjAddr: 0x1078, symBinAddr: 0x1000057A4, symSize: 0x18 }
  - { offsetInCU: 0x11E76, offset: 0x11E76, size: 0x8, addend: 0x0, symName: __ZNK5boost4asio5error6detail17addrinfo_category7messageEi, symObjAddr: 0x1090, symBinAddr: 0x1000057BC, symSize: 0x8C }
  - { offsetInCU: 0x11EAA, offset: 0x11EAA, size: 0x8, addend: 0x0, symName: __ZNK5boost4asio5error6detail13misc_category4nameEv, symObjAddr: 0x111C, symBinAddr: 0x100005848, symSize: 0x18 }
  - { offsetInCU: 0x11ED0, offset: 0x11ED0, size: 0x8, addend: 0x0, symName: __ZNK5boost4asio5error6detail13misc_category7messageEi, symObjAddr: 0x1134, symBinAddr: 0x100005860, symSize: 0xDC }
  - { offsetInCU: 0x11F04, offset: 0x11F04, size: 0x8, addend: 0x0, symName: __ZNSt3__112basic_stringIcNS_11char_traitsIcEENS_9allocatorIcEEEC2B8ue170006ILi0EEEPKc, symObjAddr: 0x1210, symBinAddr: 0x10000593C, symSize: 0x58 }
  - { offsetInCU: 0x11F49, offset: 0x11F49, size: 0x8, addend: 0x0, symName: __ZNSt3__117__compressed_pairINS_12basic_stringIcNS_11char_traitsIcEENS_9allocatorIcEEE5__repES5_EC1B8ue170006INS_18__default_init_tagESA_EEOT_OT0_, symObjAddr: 0x1268, symBinAddr: 0x100005994, symSize: 0x3C }
  - { offsetInCU: 0x11FA1, offset: 0x11FA1, size: 0x8, addend: 0x0, symName: __ZNSt3__111char_traitsIcE6lengthB8ue170006EPKc, symObjAddr: 0x12A4, symBinAddr: 0x1000059D0, symSize: 0x34 }
  - { offsetInCU: 0x11FC4, offset: 0x11FC4, size: 0x8, addend: 0x0, symName: __ZNSt3__117__compressed_pairINS_12basic_stringIcNS_11char_traitsIcEENS_9allocatorIcEEE5__repES5_EC2B8ue170006INS_18__default_init_tagESA_EEOT_OT0_, symObjAddr: 0x12D8, symBinAddr: 0x100005A04, symSize: 0x3C }
  - { offsetInCU: 0x1201C, offset: 0x1201C, size: 0x8, addend: 0x0, symName: __ZNSt3__122__compressed_pair_elemINS_12basic_stringIcNS_11char_traitsIcEENS_9allocatorIcEEE5__repELi0ELb0EEC2B8ue170006ENS_18__default_init_tagE, symObjAddr: 0x1314, symBinAddr: 0x100005A40, symSize: 0x14 }
  - { offsetInCU: 0x12051, offset: 0x12051, size: 0x8, addend: 0x0, symName: __ZNSt3__122__compressed_pair_elemINS_9allocatorIcEELi1ELb1EEC2B8ue170006ENS_18__default_init_tagE, symObjAddr: 0x1328, symBinAddr: 0x100005A54, symSize: 0x2C }
  - { offsetInCU: 0x12086, offset: 0x12086, size: 0x8, addend: 0x0, symName: __ZNSt3__19allocatorIcEC2B8ue170006Ev, symObjAddr: 0x1354, symBinAddr: 0x100005A80, symSize: 0x2C }
  - { offsetInCU: 0x120B0, offset: 0x120B0, size: 0x8, addend: 0x0, symName: __ZNSt3__116__non_trivial_ifILb1ENS_9allocatorIcEEEC2B8ue170006Ev, symObjAddr: 0x1380, symBinAddr: 0x100005AAC, symSize: 0x14 }
  - { offsetInCU: 0x120DA, offset: 0x120DA, size: 0x8, addend: 0x0, symName: __ZN5boost4asio6detail7tss_ptrINS1_10call_stackINS1_14thread_contextENS1_16thread_info_baseEE7contextEEC2Ev, symObjAddr: 0x13B8, symBinAddr: 0x100005AE4, symSize: 0x2C }
  - { offsetInCU: 0x12106, offset: 0x12106, size: 0x8, addend: 0x0, symName: __ZN5boost4asio6detail15keyword_tss_ptrINS1_10call_stackINS1_14thread_contextENS1_16thread_info_baseEE7contextEEC2Ev, symObjAddr: 0x13E4, symBinAddr: 0x100005B10, symSize: 0x2C }
  - { offsetInCU: 0x12130, offset: 0x12130, size: 0x8, addend: 0x0, symName: __ZN5boost4asio6detail11noncopyableC2Ev, symObjAddr: 0x1410, symBinAddr: 0x100005B3C, symSize: 0x14 }
  - { offsetInCU: 0x1215A, offset: 0x1215A, size: 0x8, addend: 0x0, symName: __ZN5boost4asio6detail7tss_ptrINS1_10call_stackINS1_14thread_contextENS1_16thread_info_baseEE7contextEED2Ev, symObjAddr: 0x1424, symBinAddr: 0x100005B50, symSize: 0x2C }
  - { offsetInCU: 0x12186, offset: 0x12186, size: 0x8, addend: 0x0, symName: __ZN5boost4asio6detail15keyword_tss_ptrINS1_10call_stackINS1_14thread_contextENS1_16thread_info_baseEE7contextEED2Ev, symObjAddr: 0x1450, symBinAddr: 0x100005B7C, symSize: 0x2C }
  - { offsetInCU: 0x121B0, offset: 0x121B0, size: 0x8, addend: 0x0, symName: __ZN5boost4asio6detail11noncopyableD2Ev, symObjAddr: 0x147C, symBinAddr: 0x100005BA8, symSize: 0x14 }
  - { offsetInCU: 0x121DA, offset: 0x121DA, size: 0x8, addend: 0x0, symName: __ZN5boost4asio6detail10service_idINS1_9schedulerEEC2Ev, symObjAddr: 0x1490, symBinAddr: 0x100005BBC, symSize: 0x2C }
  - { offsetInCU: 0x12207, offset: 0x12207, size: 0x8, addend: 0x0, symName: __ZN5boost4asio17execution_context2idC2Ev, symObjAddr: 0x14BC, symBinAddr: 0x100005BE8, symSize: 0x2C }
  - { offsetInCU: 0x12231, offset: 0x12231, size: 0x8, addend: 0x0, symName: __ZN5boost4asio6detail10service_idINS1_9schedulerEED2Ev, symObjAddr: 0x14E8, symBinAddr: 0x100005C14, symSize: 0x2C }
  - { offsetInCU: 0x1225E, offset: 0x1225E, size: 0x8, addend: 0x0, symName: __ZN5boost4asio17execution_context2idD2Ev, symObjAddr: 0x1514, symBinAddr: 0x100005C40, symSize: 0x2C }
  - { offsetInCU: 0x1228B, offset: 0x1228B, size: 0x8, addend: 0x0, symName: __ZN5boost4asio6detail10service_idINS1_14kqueue_reactorEEC2Ev, symObjAddr: 0x1540, symBinAddr: 0x100005C6C, symSize: 0x2C }
  - { offsetInCU: 0x122B8, offset: 0x122B8, size: 0x8, addend: 0x0, symName: __ZN5boost4asio6detail10service_idINS1_14kqueue_reactorEED2Ev, symObjAddr: 0x156C, symBinAddr: 0x100005C98, symSize: 0x2C }
  - { offsetInCU: 0x122E5, offset: 0x122E5, size: 0x8, addend: 0x0, symName: __ZN5boost4asio6detail7tss_ptrINS1_10call_stackINS1_14strand_service11strand_implEhE7contextEEC2Ev, symObjAddr: 0x1598, symBinAddr: 0x100005CC4, symSize: 0x2C }
  - { offsetInCU: 0x12311, offset: 0x12311, size: 0x8, addend: 0x0, symName: __ZN5boost4asio6detail15keyword_tss_ptrINS1_10call_stackINS1_14strand_service11strand_implEhE7contextEEC2Ev, symObjAddr: 0x15C4, symBinAddr: 0x100005CF0, symSize: 0x2C }
  - { offsetInCU: 0x1233B, offset: 0x1233B, size: 0x8, addend: 0x0, symName: __ZN5boost4asio6detail7tss_ptrINS1_10call_stackINS1_14strand_service11strand_implEhE7contextEED2Ev, symObjAddr: 0x15F0, symBinAddr: 0x100005D1C, symSize: 0x2C }
  - { offsetInCU: 0x12367, offset: 0x12367, size: 0x8, addend: 0x0, symName: __ZN5boost4asio6detail15keyword_tss_ptrINS1_10call_stackINS1_14strand_service11strand_implEhE7contextEED2Ev, symObjAddr: 0x161C, symBinAddr: 0x100005D48, symSize: 0x2C }
  - { offsetInCU: 0x12391, offset: 0x12391, size: 0x8, addend: 0x0, symName: __ZN5boost4asio6detail10service_idINS1_14strand_serviceEEC2Ev, symObjAddr: 0x1648, symBinAddr: 0x100005D74, symSize: 0x2C }
  - { offsetInCU: 0x123BE, offset: 0x123BE, size: 0x8, addend: 0x0, symName: __ZN5boost4asio6detail10service_idINS1_14strand_serviceEED2Ev, symObjAddr: 0x1674, symBinAddr: 0x100005DA0, symSize: 0x2C }
  - { offsetInCU: 0x123EB, offset: 0x123EB, size: 0x8, addend: 0x0, symName: __ZN5boost4asio6detail7tss_ptrINS1_10call_stackINS1_23strand_executor_service11strand_implEhE7contextEEC2Ev, symObjAddr: 0x16A0, symBinAddr: 0x100005DCC, symSize: 0x2C }
  - { offsetInCU: 0x12417, offset: 0x12417, size: 0x8, addend: 0x0, symName: __ZN5boost4asio6detail15keyword_tss_ptrINS1_10call_stackINS1_23strand_executor_service11strand_implEhE7contextEEC2Ev, symObjAddr: 0x16CC, symBinAddr: 0x100005DF8, symSize: 0x2C }
  - { offsetInCU: 0x12441, offset: 0x12441, size: 0x8, addend: 0x0, symName: __ZN5boost4asio6detail7tss_ptrINS1_10call_stackINS1_23strand_executor_service11strand_implEhE7contextEED2Ev, symObjAddr: 0x16F8, symBinAddr: 0x100005E24, symSize: 0x2C }
  - { offsetInCU: 0x1246D, offset: 0x1246D, size: 0x8, addend: 0x0, symName: __ZN5boost4asio6detail15keyword_tss_ptrINS1_10call_stackINS1_23strand_executor_service11strand_implEhE7contextEED2Ev, symObjAddr: 0x1724, symBinAddr: 0x100005E50, symSize: 0x2C }
  - { offsetInCU: 0x12497, offset: 0x12497, size: 0x8, addend: 0x0, symName: __ZN5boost4asio6detail17posix_global_implINS0_14system_contextEED2Ev, symObjAddr: 0x1750, symBinAddr: 0x100005E7C, symSize: 0x5C }
  - { offsetInCU: 0x124C1, offset: 0x124C1, size: 0x8, addend: 0x0, symName: __ZN5boost4asio14system_contextD1Ev, symObjAddr: 0x17AC, symBinAddr: 0x100005ED8, symSize: 0x2C }
  - { offsetInCU: 0x124ED, offset: 0x124ED, size: 0x8, addend: 0x0, symName: __ZN5boost4asio14system_contextD2Ev, symObjAddr: 0x17D8, symBinAddr: 0x100005F04, symSize: 0x6C }
  - { offsetInCU: 0x12519, offset: 0x12519, size: 0x8, addend: 0x0, symName: __ZN5boost4asio6detail9scheduler13work_finishedEv, symObjAddr: 0x1844, symBinAddr: 0x100005F70, symSize: 0x48 }
  - { offsetInCU: 0x1253F, offset: 0x1253F, size: 0x8, addend: 0x0, symName: __ZN5boost4asio6detail9scheduler4stopEv, symObjAddr: 0x188C, symBinAddr: 0x100005FB8, symSize: 0x6C }
  - { offsetInCU: 0x12578, offset: 0x12578, size: 0x8, addend: 0x0, symName: __ZN5boost4asio6detail12thread_group4joinEv, symObjAddr: 0x18F8, symBinAddr: 0x100006024, symSize: 0x94 }
  - { offsetInCU: 0x125BB, offset: 0x125BB, size: 0x8, addend: 0x0, symName: __ZN5boost4asio6detail12thread_groupD1Ev, symObjAddr: 0x198C, symBinAddr: 0x1000060B8, symSize: 0x2C }
  - { offsetInCU: 0x125E5, offset: 0x125E5, size: 0x8, addend: 0x0, symName: __ZN5boost4asio17execution_contextD2Ev, symObjAddr: 0x19B8, symBinAddr: 0x1000060E4, symSize: 0x80 }
  - { offsetInCU: 0x12611, offset: 0x12611, size: 0x8, addend: 0x0, symName: __ZNSt3__113__atomic_baseIlLb1EEmmB8ue170006Ev, symObjAddr: 0x1A38, symBinAddr: 0x100006164, symSize: 0x30 }
  - { offsetInCU: 0x12637, offset: 0x12637, size: 0x8, addend: 0x0, symName: __ZNSt3__113__atomic_baseIlLb1EE9fetch_subB8ue170006ElNS_12memory_orderE, symObjAddr: 0x1A68, symBinAddr: 0x100006194, symSize: 0x34 }
  - { offsetInCU: 0x12679, offset: 0x12679, size: 0x8, addend: 0x0, symName: __ZN5boost4asio6detail27conditionally_enabled_mutex11scoped_lockC1ERS2_, symObjAddr: 0x1B88, symBinAddr: 0x1000062B4, symSize: 0x34 }
  - { offsetInCU: 0x126B1, offset: 0x126B1, size: 0x8, addend: 0x0, symName: __ZN5boost4asio6detail9scheduler16stop_all_threadsERNS1_27conditionally_enabled_mutex11scoped_lockE, symObjAddr: 0x1BBC, symBinAddr: 0x1000062E8, symSize: 0x84 }
  - { offsetInCU: 0x126E9, offset: 0x126E9, size: 0x8, addend: 0x0, symName: __ZN5boost4asio6detail27conditionally_enabled_mutex11scoped_lockD1Ev, symObjAddr: 0x1C40, symBinAddr: 0x10000636C, symSize: 0x2C }
  - { offsetInCU: 0x12713, offset: 0x12713, size: 0x8, addend: 0x0, symName: __ZN5boost4asio6detail27conditionally_enabled_mutex11scoped_lockC2ERS2_, symObjAddr: 0x1C6C, symBinAddr: 0x100006398, symSize: 0xA8 }
  - { offsetInCU: 0x1274B, offset: 0x1274B, size: 0x8, addend: 0x0, symName: __ZN5boost4asio6detail11posix_mutex4lockEv, symObjAddr: 0x1D14, symBinAddr: 0x100006440, symSize: 0x24 }
  - { offsetInCU: 0x12771, offset: 0x12771, size: 0x8, addend: 0x0, symName: __ZN5boost4asio6detail27conditionally_enabled_event10signal_allERNS1_27conditionally_enabled_mutex11scoped_lockE, symObjAddr: 0x1D38, symBinAddr: 0x100006464, symSize: 0x50 }
  - { offsetInCU: 0x127A5, offset: 0x127A5, size: 0x8, addend: 0x0, symName: __ZN5boost4asio6detail11posix_event10signal_allINS1_27conditionally_enabled_mutex11scoped_lockEEEvRT_, symObjAddr: 0x1D88, symBinAddr: 0x1000064B4, symSize: 0x70 }
  - { offsetInCU: 0x127E2, offset: 0x127E2, size: 0x8, addend: 0x0, symName: __ZNK5boost4asio6detail27conditionally_enabled_mutex11scoped_lock6lockedEv, symObjAddr: 0x1DF8, symBinAddr: 0x100006524, symSize: 0x1C }
  - { offsetInCU: 0x12808, offset: 0x12808, size: 0x8, addend: 0x0, symName: __ZN5boost4asio6detail27conditionally_enabled_mutex11scoped_lockD2Ev, symObjAddr: 0x1E14, symBinAddr: 0x100006540, symSize: 0x60 }
  - { offsetInCU: 0x12832, offset: 0x12832, size: 0x8, addend: 0x0, symName: __ZN5boost4asio6detail11posix_mutex6unlockEv, symObjAddr: 0x1E74, symBinAddr: 0x1000065A0, symSize: 0x24 }
  - { offsetInCU: 0x12858, offset: 0x12858, size: 0x8, addend: 0x0, symName: __ZN5boost4asio6detail12posix_thread4joinEv, symObjAddr: 0x1E98, symBinAddr: 0x1000065C4, symSize: 0x50 }
  - { offsetInCU: 0x12885, offset: 0x12885, size: 0x8, addend: 0x0, symName: __ZN5boost4asio6detail12thread_group4itemD1Ev, symObjAddr: 0x1EE8, symBinAddr: 0x100006614, symSize: 0x2C }
  - { offsetInCU: 0x128B1, offset: 0x128B1, size: 0x8, addend: 0x0, symName: __ZN5boost4asio6detail12thread_group4itemD2Ev, symObjAddr: 0x1F14, symBinAddr: 0x100006640, symSize: 0x2C }
  - { offsetInCU: 0x128DD, offset: 0x128DD, size: 0x8, addend: 0x0, symName: __ZN5boost4asio6detail12posix_threadD1Ev, symObjAddr: 0x1F40, symBinAddr: 0x10000666C, symSize: 0x2C }
  - { offsetInCU: 0x12909, offset: 0x12909, size: 0x8, addend: 0x0, symName: __ZN5boost4asio6detail12posix_threadD2Ev, symObjAddr: 0x1F6C, symBinAddr: 0x100006698, symSize: 0x5C }
  - { offsetInCU: 0x12935, offset: 0x12935, size: 0x8, addend: 0x0, symName: __ZN5boost4asio6detail12thread_groupD2Ev, symObjAddr: 0x1FC8, symBinAddr: 0x1000066F4, symSize: 0x34 }
  - { offsetInCU: 0x1295F, offset: 0x1295F, size: 0x8, addend: 0x0, symName: __ZN5boost4asio17execution_context8shutdownEv, symObjAddr: 0x1FFC, symBinAddr: 0x100006728, symSize: 0x28 }
  - { offsetInCU: 0x12987, offset: 0x12987, size: 0x8, addend: 0x0, symName: __ZN5boost4asio17execution_context7destroyEv, symObjAddr: 0x2024, symBinAddr: 0x100006750, symSize: 0x28 }
  - { offsetInCU: 0x129AF, offset: 0x129AF, size: 0x8, addend: 0x0, symName: __ZN5boost4asio6detail16service_registryD1Ev, symObjAddr: 0x204C, symBinAddr: 0x100006778, symSize: 0x2C }
  - { offsetInCU: 0x129DB, offset: 0x129DB, size: 0x8, addend: 0x0, symName: __ZN5boost4asio6detail16service_registry17shutdown_servicesEv, symObjAddr: 0x2078, symBinAddr: 0x1000067A4, symSize: 0x60 }
  - { offsetInCU: 0x12A11, offset: 0x12A11, size: 0x8, addend: 0x0, symName: __ZN5boost4asio6detail16service_registry16destroy_servicesEv, symObjAddr: 0x20D8, symBinAddr: 0x100006804, symSize: 0x68 }
  - { offsetInCU: 0x12A56, offset: 0x12A56, size: 0x8, addend: 0x0, symName: __ZN5boost4asio6detail16service_registry7destroyEPNS0_17execution_context7serviceE, symObjAddr: 0x2140, symBinAddr: 0x10000686C, symSize: 0x48 }
  - { offsetInCU: 0x12A7B, offset: 0x12A7B, size: 0x8, addend: 0x0, symName: __ZN5boost4asio6detail16service_registryD2Ev, symObjAddr: 0x2188, symBinAddr: 0x1000068B4, symSize: 0x38 }
  - { offsetInCU: 0x12AA7, offset: 0x12AA7, size: 0x8, addend: 0x0, symName: __ZN5boost4asio6detail11posix_mutexD1Ev, symObjAddr: 0x21C0, symBinAddr: 0x1000068EC, symSize: 0x2C }
  - { offsetInCU: 0x12AD1, offset: 0x12AD1, size: 0x8, addend: 0x0, symName: __ZN5boost4asio6detail11posix_mutexD2Ev, symObjAddr: 0x21EC, symBinAddr: 0x100006918, symSize: 0x3C }
  - { offsetInCU: 0x12AFB, offset: 0x12AFB, size: 0x8, addend: 0x0, symName: __ZN5boost4asio6detail10service_idINS1_16resolver_serviceINS0_2ip3tcpEEEEC2Ev, symObjAddr: 0x2228, symBinAddr: 0x100006954, symSize: 0x2C }
  - { offsetInCU: 0x12B28, offset: 0x12B28, size: 0x8, addend: 0x0, symName: __ZN5boost4asio6detail10service_idINS1_16resolver_serviceINS0_2ip3tcpEEEED2Ev, symObjAddr: 0x2254, symBinAddr: 0x100006980, symSize: 0x2C }
  - { offsetInCU: 0x12B55, offset: 0x12B55, size: 0x8, addend: 0x0, symName: __ZN5boost4asio6detail10service_idINS1_23reactive_socket_serviceINS0_2ip3tcpEEEEC2Ev, symObjAddr: 0x2280, symBinAddr: 0x1000069AC, symSize: 0x2C }
  - { offsetInCU: 0x12B82, offset: 0x12B82, size: 0x8, addend: 0x0, symName: __ZN5boost4asio6detail10service_idINS1_23reactive_socket_serviceINS0_2ip3tcpEEEED2Ev, symObjAddr: 0x22AC, symBinAddr: 0x1000069D8, symSize: 0x2C }
  - { offsetInCU: 0xB64A, offset: 0x1E2AC, size: 0x8, addend: 0x0, symName: __ZNSt3__124__put_character_sequenceB8ue170006IcNS_11char_traitsIcEEEERNS_13basic_ostreamIT_T0_EES7_PKS4_m, symObjAddr: 0x1668, symBinAddr: 0x1000084BC, symSize: 0x1EC }
  - { offsetInCU: 0xC564, offset: 0x1F1C6, size: 0x8, addend: 0x0, symName: __ZNSt3__16copy_nB8ue170006IPKcmPcEENS_9enable_ifIXsr37__has_random_access_iterator_categoryIT_EE5valueET1_E4typeES5_T0_S6_, symObjAddr: 0x2DF8, symBinAddr: 0x10000991C, symSize: 0x44 }
  - { offsetInCU: 0xDA43, offset: 0x206A5, size: 0x8, addend: 0x0, symName: __ZNSt3__1lsB8ue170006INS_11char_traitsIcEEEERNS_13basic_ostreamIcT_EES6_PKc, symObjAddr: 0xCC, symBinAddr: 0x100006F60, symSize: 0x48 }
  - { offsetInCU: 0xDA8A, offset: 0x206EC, size: 0x8, addend: 0x0, symName: __ZNSt3__14endlB8ue170006IcNS_11char_traitsIcEEEERNS_13basic_ostreamIT_T0_EES7_, symObjAddr: 0x140, symBinAddr: 0x100006FD4, symSize: 0x58 }
  - { offsetInCU: 0xDACB, offset: 0x2072D, size: 0x8, addend: 0x0, symName: __ZNSt3__1lsB8ue170006IcNS_11char_traitsIcEENS_9allocatorIcEEEERNS_13basic_ostreamIT_T0_EES9_RKNS_12basic_stringIS6_S7_T1_EE, symObjAddr: 0x4F4, symBinAddr: 0x100007348, symSize: 0x4C }
  - { offsetInCU: 0xE3A0, offset: 0x21002, size: 0x8, addend: 0x0, symName: __ZNSt3__1plB8ue170006IcNS_11char_traitsIcEENS_9allocatorIcEEEENS_12basic_stringIT_T0_T1_EEOS9_RKS9_, symObjAddr: 0x970, symBinAddr: 0x1000077C4, symSize: 0x40 }
  - { offsetInCU: 0xE3F9, offset: 0x2105B, size: 0x8, addend: 0x0, symName: __ZNSt3__1plB8ue170006IcNS_11char_traitsIcEENS_9allocatorIcEEEENS_12basic_stringIT_T0_T1_EERKS9_PKS6_, symObjAddr: 0x9B0, symBinAddr: 0x100007804, symSize: 0x11C }
  - { offsetInCU: 0xE49F, offset: 0x21101, size: 0x8, addend: 0x0, symName: __ZNSt3__1neB8ue170006IPNS_12basic_stringIcNS_11char_traitsIcEENS_9allocatorIcEEEEEEbRKNS_11__wrap_iterIT_EESC_, symObjAddr: 0xCA4, symBinAddr: 0x100007AF8, symSize: 0x34 }
  - { offsetInCU: 0xE4E2, offset: 0x21144, size: 0x8, addend: 0x0, symName: __ZNSt3__1eqB8ue170006IPNS_12basic_stringIcNS_11char_traitsIcEENS_9allocatorIcEEEEEEbRKNS_11__wrap_iterIT_EESC_, symObjAddr: 0xE90, symBinAddr: 0x100007CE4, symSize: 0x48 }
  - { offsetInCU: 0xE525, offset: 0x21187, size: 0x8, addend: 0x0, symName: __ZNSt3__112__to_addressB8ue170006INS_12basic_stringIcNS_11char_traitsIcEENS_9allocatorIcEEEEEEPT_S8_, symObjAddr: 0x13B8, symBinAddr: 0x10000820C, symSize: 0x14 }
  - { offsetInCU: 0xE55A, offset: 0x211BC, size: 0x8, addend: 0x0, symName: __ZNSt3__119__libcpp_deallocateB8ue170006EPvmm, symObjAddr: 0x14A8, symBinAddr: 0x1000082FC, symSize: 0x60 }
  - { offsetInCU: 0xE5C2, offset: 0x21224, size: 0x8, addend: 0x0, symName: __ZNSt3__124__is_overaligned_for_newB8ue170006Em, symObjAddr: 0x1508, symBinAddr: 0x10000835C, symSize: 0x20 }
  - { offsetInCU: 0xE5F0, offset: 0x21252, size: 0x8, addend: 0x0, symName: __ZNSt3__127__do_deallocate_handle_sizeB8ue170006IJSt11align_val_tEEEvPvmDpT_, symObjAddr: 0x1528, symBinAddr: 0x10000837C, symSize: 0x30 }
  - { offsetInCU: 0xE644, offset: 0x212A6, size: 0x8, addend: 0x0, symName: __ZNSt3__127__do_deallocate_handle_sizeB8ue170006IJEEEvPvmDpT_, symObjAddr: 0x1558, symBinAddr: 0x1000083AC, symSize: 0x28 }
  - { offsetInCU: 0xE684, offset: 0x212E6, size: 0x8, addend: 0x0, symName: __ZNSt3__124__libcpp_operator_deleteB8ue170006IJPvSt11align_val_tEEEvDpT_, symObjAddr: 0x1580, symBinAddr: 0x1000083D4, symSize: 0x2C }
  - { offsetInCU: 0xE6CE, offset: 0x21330, size: 0x8, addend: 0x0, symName: __ZNSt3__124__libcpp_operator_deleteB8ue170006IJPvEEEvDpT_, symObjAddr: 0x15AC, symBinAddr: 0x100008400, symSize: 0x24 }
  - { offsetInCU: 0xE704, offset: 0x21366, size: 0x8, addend: 0x0, symName: __ZNSt3__116__pad_and_outputB8ue170006IcNS_11char_traitsIcEEEENS_19ostreambuf_iteratorIT_T0_EES6_PKS4_S8_S8_RNS_8ios_baseES4_, symObjAddr: 0x18A4, symBinAddr: 0x1000086C4, symSize: 0x240 }
  - { offsetInCU: 0xE7D9, offset: 0x2143B, size: 0x8, addend: 0x0, symName: __ZNSt3__112__to_addressB8ue170006IcEEPT_S2_, symObjAddr: 0x1E0C, symBinAddr: 0x100008B34, symSize: 0x14 }
  - { offsetInCU: 0xE841, offset: 0x214A3, size: 0x8, addend: 0x0, symName: __ZNSt3__19use_facetB8ue170006INS_5ctypeIcEEEERKT_RKNS_6localeE, symObjAddr: 0x20C4, symBinAddr: 0x100008D7C, symSize: 0x2C }
  - { offsetInCU: 0xEEFA, offset: 0x21B5C, size: 0x8, addend: 0x0, symName: __ZNSt3__120__throw_length_errorB8ue170006EPKc, symObjAddr: 0x2B84, symBinAddr: 0x1000096A8, symSize: 0x64 }
  - { offsetInCU: 0xEF25, offset: 0x21B87, size: 0x8, addend: 0x0, symName: __ZNSt3__117__libcpp_allocateB8ue170006Emm, symObjAddr: 0x2D10, symBinAddr: 0x100009834, symSize: 0x60 }
  - { offsetInCU: 0xEF82, offset: 0x21BE4, size: 0x8, addend: 0x0, symName: __ZNSt3__121__libcpp_operator_newB8ue170006IJmSt11align_val_tEEEPvDpT_, symObjAddr: 0x2D70, symBinAddr: 0x100009894, symSize: 0x2C }
  - { offsetInCU: 0xEFD0, offset: 0x21C32, size: 0x8, addend: 0x0, symName: __ZNSt3__121__libcpp_operator_newB8ue170006IJmEEEPvDpT_, symObjAddr: 0x2D9C, symBinAddr: 0x1000098C0, symSize: 0x24 }
  - { offsetInCU: 0xF00A, offset: 0x21C6C, size: 0x8, addend: 0x0, symName: __ZNSt3__14copyB8ue170006IPKcPcEET0_T_S5_S4_, symObjAddr: 0x2E3C, symBinAddr: 0x100009960, symSize: 0x40 }
  - { offsetInCU: 0xF064, offset: 0x21CC6, size: 0x8, addend: 0x0, symName: __ZNSt3__16__copyB8ue170006INS_17_ClassicAlgPolicyEPKcS3_PcEENS_4pairIT0_T2_EES6_T1_S7_, symObjAddr: 0x2E7C, symBinAddr: 0x1000099A0, symSize: 0x44 }
  - { offsetInCU: 0xF0D0, offset: 0x21D32, size: 0x8, addend: 0x0, symName: __ZNSt3__123__dispatch_copy_or_moveB8ue170006INS_17_ClassicAlgPolicyENS_11__copy_loopIS1_EENS_14__copy_trivialEPKcS6_PcEENS_4pairIT2_T4_EES9_T3_SA_, symObjAddr: 0x2EC0, symBinAddr: 0x1000099E4, symSize: 0x44 }
  - { offsetInCU: 0xF14E, offset: 0x21DB0, size: 0x8, addend: 0x0, symName: __ZNSt3__121__unwrap_and_dispatchB8ue170006INS_10__overloadINS_11__copy_loopINS_17_ClassicAlgPolicyEEENS_14__copy_trivialEEEPKcS8_PcLi0EEENS_4pairIT0_T2_EESB_T1_SC_, symObjAddr: 0x2F04, symBinAddr: 0x100009A28, symSize: 0xB4 }
  - { offsetInCU: 0xF1DC, offset: 0x21E3E, size: 0x8, addend: 0x0, symName: __ZNSt3__114__unwrap_rangeB8ue170006IPKcS2_EENS_4pairIT0_S4_EET_S6_, symObjAddr: 0x2FB8, symBinAddr: 0x100009ADC, symSize: 0x60 }
  - { offsetInCU: 0xF371, offset: 0x21FD3, size: 0x8, addend: 0x0, symName: __ZNSt3__113__unwrap_iterB8ue170006IPcNS_18__unwrap_iter_implIS1_Lb1EEELi0EEEDTclsrT0_8__unwrapclsr3stdE7declvalIT_EEEES5_, symObjAddr: 0x3060, symBinAddr: 0x100009B84, symSize: 0x24 }
  - { offsetInCU: 0xF3B5, offset: 0x22017, size: 0x8, addend: 0x0, symName: __ZNSt3__19make_pairB8ue170006IPKcPcEENS_4pairINS_18__unwrap_ref_decayIT_E4typeENS5_IT0_E4typeEEEOS6_OS9_, symObjAddr: 0x3084, symBinAddr: 0x100009BA8, symSize: 0x38 }
  - { offsetInCU: 0xF405, offset: 0x22067, size: 0x8, addend: 0x0, symName: __ZNSt3__114__rewrap_rangeB8ue170006IPKcS2_EET_S3_T0_, symObjAddr: 0x30BC, symBinAddr: 0x100009BE0, symSize: 0x2C }
  - { offsetInCU: 0xF451, offset: 0x220B3, size: 0x8, addend: 0x0, symName: __ZNSt3__113__rewrap_iterB8ue170006IPcS1_NS_18__unwrap_iter_implIS1_Lb1EEEEET_S4_T0_, symObjAddr: 0x30E8, symBinAddr: 0x100009C0C, symSize: 0x3C }
  - { offsetInCU: 0xF4A6, offset: 0x22108, size: 0x8, addend: 0x0, symName: __ZNSt3__19make_pairB8ue170006IPKcS2_EENS_4pairINS_18__unwrap_ref_decayIT_E4typeENS4_IT0_E4typeEEEOS5_OS8_, symObjAddr: 0x3124, symBinAddr: 0x100009C48, symSize: 0x38 }
  - { offsetInCU: 0xF4F6, offset: 0x22158, size: 0x8, addend: 0x0, symName: __ZNSt3__113__unwrap_iterB8ue170006IPKcNS_18__unwrap_iter_implIS2_Lb1EEELi0EEEDTclsrT0_8__unwrapclsr3stdE7declvalIT_EEEES6_, symObjAddr: 0x315C, symBinAddr: 0x100009C80, symSize: 0x24 }
  - { offsetInCU: 0xF661, offset: 0x222C3, size: 0x8, addend: 0x0, symName: __ZNSt3__119__copy_trivial_implB8ue170006IKccEENS_4pairIPT_PT0_EES4_S4_S6_, symObjAddr: 0x3214, symBinAddr: 0x100009D38, symSize: 0x78 }
  - { offsetInCU: 0xF6C9, offset: 0x2232B, size: 0x8, addend: 0x0, symName: __ZNSt3__119__constexpr_memmoveB8ue170006IcKcLi0EEEPT_S3_PT0_NS_15__element_countE, symObjAddr: 0x328C, symBinAddr: 0x100009DB0, symSize: 0x64 }
  - { offsetInCU: 0xF737, offset: 0x22399, size: 0x8, addend: 0x0, symName: __ZNSt3__19make_pairB8ue170006IRPKcPcEENS_4pairINS_18__unwrap_ref_decayIT_E4typeENS6_IT0_E4typeEEEOS7_OSA_, symObjAddr: 0x32F0, symBinAddr: 0x100009E14, symSize: 0x38 }
  - { offsetInCU: 0xF7DA, offset: 0x2243C, size: 0x8, addend: 0x0, symName: __ZNSt3__113__rewrap_iterB8ue170006IPKcS2_NS_18__unwrap_iter_implIS2_Lb1EEEEET_S5_T0_, symObjAddr: 0x342C, symBinAddr: 0x100009F50, symSize: 0x3C }
  - { offsetInCU: 0xF82F, offset: 0x22491, size: 0x8, addend: 0x0, symName: __ZNSt3__16fill_nB8ue170006IPcmcEET_S2_T0_RKT1_, symObjAddr: 0x34F8, symBinAddr: 0x10000A01C, symSize: 0x44 }
  - { offsetInCU: 0xF892, offset: 0x224F4, size: 0x8, addend: 0x0, symName: __ZNSt3__18__fill_nB8ue170006IPcmcEET_S2_T0_RKT1_, symObjAddr: 0x353C, symBinAddr: 0x10000A060, symSize: 0x64 }
  - { offsetInCU: 0xF8F5, offset: 0x22557, size: 0x8, addend: 0x0, symName: __ZNSt3__121__convert_to_integralB8ue170006Em, symObjAddr: 0x35A0, symBinAddr: 0x10000A0C4, symSize: 0x14 }
  - { offsetInCU: 0xF921, offset: 0x22583, size: 0x8, addend: 0x0, symName: __ZNSt3__13maxB8ue170006ImEERKT_S3_S3_, symObjAddr: 0x3C74, symBinAddr: 0x10000A798, symSize: 0x2C }
  - { offsetInCU: 0xF964, offset: 0x225C6, size: 0x8, addend: 0x0, symName: __ZNSt3__13minB8ue170006ImEERKT_S3_S3_, symObjAddr: 0x3CA0, symBinAddr: 0x10000A7C4, symSize: 0x2C }
  - { offsetInCU: 0xFB91, offset: 0x227F3, size: 0x8, addend: 0x0, symName: __ZNSt3__13minB8ue170006ImNS_6__lessIvvEEEERKT_S5_S5_T0_, symObjAddr: 0x3D2C, symBinAddr: 0x10000A850, symSize: 0x54 }
  - { offsetInCU: 0xFC32, offset: 0x22894, size: 0x8, addend: 0x0, symName: __ZNSt3__13maxB8ue170006ImNS_6__lessIvvEEEERKT_S5_S5_T0_, symObjAddr: 0x3E0C, symBinAddr: 0x10000A930, symSize: 0x54 }
  - { offsetInCU: 0xFC8C, offset: 0x228EE, size: 0x8, addend: 0x0, symName: __ZNSt3__119__allocate_at_leastB8ue170006INS_9allocatorINS_12basic_stringIcNS_11char_traitsIcEENS1_IcEEEEEEEENS_19__allocation_resultINS_16allocator_traitsIT_E7pointerEEERSA_m, symObjAddr: 0x3F7C, symBinAddr: 0x10000AAA0, symSize: 0x40 }
  - { offsetInCU: 0xFCCF, offset: 0x22931, size: 0x8, addend: 0x0, symName: __ZNSt3__142__uninitialized_allocator_move_if_noexceptB8ue170006INS_9allocatorINS_12basic_stringIcNS_11char_traitsIcEENS1_IcEEEEEENS_16reverse_iteratorIPS6_EESA_SA_EET2_RT_T0_T1_SB_, symObjAddr: 0x4134, symBinAddr: 0x10000AC58, symSize: 0x12C }
  - { offsetInCU: 0xFD72, offset: 0x229D4, size: 0x8, addend: 0x0, symName: __ZNSt3__14swapB8ue170006IPNS_12basic_stringIcNS_11char_traitsIcEENS_9allocatorIcEEEEEENS_9enable_ifIXaasr21is_move_constructibleIT_EE5valuesr18is_move_assignableIS9_EE5valueEvE4typeERS9_SC_, symObjAddr: 0x42AC, symBinAddr: 0x10000ADD0, symSize: 0x3C }
  - { offsetInCU: 0xFDC3, offset: 0x22A25, size: 0x8, addend: 0x0, symName: __ZNSt3__122__make_exception_guardB8ue170006INS_29_AllocatorDestroyRangeReverseINS_9allocatorINS_12basic_stringIcNS_11char_traitsIcEENS2_IcEEEEEENS_16reverse_iteratorIPS7_EEEEEENS_28__exception_guard_exceptionsIT_EESE_, symObjAddr: 0x43B0, symBinAddr: 0x10000AED4, symSize: 0x4C }
  - { offsetInCU: 0xFDF9, offset: 0x22A5B, size: 0x8, addend: 0x0, symName: __ZNSt3__1neB8ue170006IPNS_12basic_stringIcNS_11char_traitsIcEENS_9allocatorIcEEEES7_EEbRKNS_16reverse_iteratorIT_EERKNS8_IT0_EE, symObjAddr: 0x4440, symBinAddr: 0x10000AF64, symSize: 0x48 }
  - { offsetInCU: 0xFE45, offset: 0x22AA7, size: 0x8, addend: 0x0, symName: __ZNSt3__112__to_addressB8ue170006INS_16reverse_iteratorIPNS_12basic_stringIcNS_11char_traitsIcEENS_9allocatorIcEEEEEEvEEu7__decayIDTclsr19__to_address_helperIT_EE6__callclsr3stdE7declvalIRKSA_EEEEESC_, symObjAddr: 0x4488, symBinAddr: 0x10000AFAC, symSize: 0x24 }
  - { offsetInCU: 0xFEA6, offset: 0x22B08, size: 0x8, addend: 0x0, symName: __ZNSt3__119__allocator_destroyB8ue170006INS_9allocatorINS_12basic_stringIcNS_11char_traitsIcEENS1_IcEEEEEENS_16reverse_iteratorINS8_IPS6_EEEESB_EEvRT_T0_T1_, symObjAddr: 0x4738, symBinAddr: 0x10000B25C, symSize: 0x70 }
  - { offsetInCU: 0xFF0C, offset: 0x22B6E, size: 0x8, addend: 0x0, symName: __ZNSt3__1neB8ue170006INS_16reverse_iteratorIPNS_12basic_stringIcNS_11char_traitsIcEENS_9allocatorIcEEEEEES9_EEbRKNS1_IT_EERKNS1_IT0_EE, symObjAddr: 0x47E4, symBinAddr: 0x10000B308, symSize: 0x60 }
  - { offsetInCU: 0xFF58, offset: 0x22BBA, size: 0x8, addend: 0x0, symName: __ZNSt3__112__to_addressB8ue170006INS_16reverse_iteratorINS1_IPNS_12basic_stringIcNS_11char_traitsIcEENS_9allocatorIcEEEEEEEEvEEu7__decayIDTclsr19__to_address_helperIT_EE6__callclsr3stdE7declvalIRKSB_EEEEESD_, symObjAddr: 0x4844, symBinAddr: 0x10000B368, symSize: 0x24 }
  - { offsetInCU: 0x10355, offset: 0x22FB7, size: 0x8, addend: 0x0, symName: __ZSt28__throw_bad_array_new_lengthB8ue170006v, symObjAddr: 0x2CDC, symBinAddr: 0x100009800, symSize: 0x34 }
  - { offsetInCU: 0x10C9D, offset: 0x238FF, size: 0x8, addend: 0x0, symName: __ZNSt3__16vectorINS_12basic_stringIcNS_11char_traitsIcEENS_9allocatorIcEEEENS4_IS6_EEE26__swap_out_circular_bufferERNS_14__split_bufferIS6_RS7_EE, symObjAddr: 0x3ABC, symBinAddr: 0x10000A5E0, symSize: 0x110 }
  - { offsetInCU: 0x12C66, offset: 0x258C8, size: 0x8, addend: 0x0, symName: __ZN12DebugLoggingC2ERKNSt3__112basic_stringIcNS0_11char_traitsIcEENS0_9allocatorIcEEEE, symObjAddr: 0x0, symBinAddr: 0x100006E94, symSize: 0xA0 }
  - { offsetInCU: 0x12CA0, offset: 0x25902, size: 0x8, addend: 0x0, symName: __ZNSt3__16vectorINS_12basic_stringIcNS_11char_traitsIcEENS_9allocatorIcEEEENS4_IS6_EEEC1B8ue170006Ev, symObjAddr: 0xA0, symBinAddr: 0x100006F34, symSize: 0x2C }
  - { offsetInCU: 0x12CCA, offset: 0x2592C, size: 0x8, addend: 0x0, symName: __ZNSt3__113basic_ostreamIcNS_11char_traitsIcEEElsB8ue170006EPFRS3_S4_E, symObjAddr: 0x114, symBinAddr: 0x100006FA8, symSize: 0x2C }
  - { offsetInCU: 0x12CFE, offset: 0x25960, size: 0x8, addend: 0x0, symName: __ZNSt3__16vectorINS_12basic_stringIcNS_11char_traitsIcEENS_9allocatorIcEEEENS4_IS6_EEED1B8ue170006Ev, symObjAddr: 0x198, symBinAddr: 0x10000702C, symSize: 0x2C }
  - { offsetInCU: 0x12D28, offset: 0x2598A, size: 0x8, addend: 0x0, symName: __ZN12DebugLoggingC1ERKNSt3__112basic_stringIcNS0_11char_traitsIcEENS0_9allocatorIcEEEE, symObjAddr: 0x1C4, symBinAddr: 0x100007058, symSize: 0x34 }
  - { offsetInCU: 0x12D62, offset: 0x259C4, size: 0x8, addend: 0x0, symName: __ZN12DebugLoggingD2Ev, symObjAddr: 0x1F8, symBinAddr: 0x10000708C, symSize: 0x70 }
  - { offsetInCU: 0x12D8E, offset: 0x259F0, size: 0x8, addend: 0x0, symName: __ZN12DebugLoggingD1Ev, symObjAddr: 0x274, symBinAddr: 0x1000070FC, symSize: 0x2C }
  - { offsetInCU: 0x12DBA, offset: 0x25A1C, size: 0x8, addend: 0x0, symName: __ZN12DebugLogging12log_criticalERKNSt3__112basic_stringIcNS0_11char_traitsIcEENS0_9allocatorIcEEEE, symObjAddr: 0x2A0, symBinAddr: 0x100007128, symSize: 0x220 }
  - { offsetInCU: 0x12EDC, offset: 0x25B3E, size: 0x8, addend: 0x0, symName: __ZNSt3__114basic_ofstreamIcNS_11char_traitsIcEEEC1ERKNS_12basic_stringIcS2_NS_9allocatorIcEEEEj, symObjAddr: 0x540, symBinAddr: 0x100007394, symSize: 0x16C }
  - { offsetInCU: 0x12F26, offset: 0x25B88, size: 0x8, addend: 0x0, symName: __ZNKSt3__114basic_ofstreamIcNS_11char_traitsIcEEE7is_openEv, symObjAddr: 0x6AC, symBinAddr: 0x100007500, symSize: 0x2C }
  - { offsetInCU: 0x12F4E, offset: 0x25BB0, size: 0x8, addend: 0x0, symName: __ZNSt3__114basic_ofstreamIcNS_11char_traitsIcEEE5closeEv, symObjAddr: 0x6D8, symBinAddr: 0x10000752C, symSize: 0x58 }
  - { offsetInCU: 0x12F7B, offset: 0x25BDD, size: 0x8, addend: 0x0, symName: __ZNSt3__114basic_ofstreamIcNS_11char_traitsIcEEED1Ev, symObjAddr: 0x730, symBinAddr: 0x100007584, symSize: 0x40 }
  - { offsetInCU: 0x12FA8, offset: 0x25C0A, size: 0x8, addend: 0x0, symName: __ZN12DebugLogging16log_non_criticalERKNSt3__112basic_stringIcNS0_11char_traitsIcEENS0_9allocatorIcEEEE, symObjAddr: 0x770, symBinAddr: 0x1000075C4, symSize: 0x194 }
  - { offsetInCU: 0x1301C, offset: 0x25C7E, size: 0x8, addend: 0x0, symName: __ZNSt3__16vectorINS_12basic_stringIcNS_11char_traitsIcEENS_9allocatorIcEEEENS4_IS6_EEE9push_backB8ue170006EOS6_, symObjAddr: 0x904, symBinAddr: 0x100007758, symSize: 0x6C }
  - { offsetInCU: 0x13053, offset: 0x25CB5, size: 0x8, addend: 0x0, symName: __ZN12DebugLogging24write_log_buffer_to_fileEv, symObjAddr: 0xACC, symBinAddr: 0x100007920, symSize: 0x178 }
  - { offsetInCU: 0x130DF, offset: 0x25D41, size: 0x8, addend: 0x0, symName: __ZNSt3__16vectorINS_12basic_stringIcNS_11char_traitsIcEENS_9allocatorIcEEEENS4_IS6_EEE5beginB8ue170006Ev, symObjAddr: 0xC44, symBinAddr: 0x100007A98, symSize: 0x30 }
  - { offsetInCU: 0x13107, offset: 0x25D69, size: 0x8, addend: 0x0, symName: __ZNSt3__16vectorINS_12basic_stringIcNS_11char_traitsIcEENS_9allocatorIcEEEENS4_IS6_EEE3endB8ue170006Ev, symObjAddr: 0xC74, symBinAddr: 0x100007AC8, symSize: 0x30 }
  - { offsetInCU: 0x1312F, offset: 0x25D91, size: 0x8, addend: 0x0, symName: __ZNKSt3__111__wrap_iterIPNS_12basic_stringIcNS_11char_traitsIcEENS_9allocatorIcEEEEEdeB8ue170006Ev, symObjAddr: 0xCD8, symBinAddr: 0x100007B2C, symSize: 0x18 }
  - { offsetInCU: 0x13155, offset: 0x25DB7, size: 0x8, addend: 0x0, symName: __ZNSt3__111__wrap_iterIPNS_12basic_stringIcNS_11char_traitsIcEENS_9allocatorIcEEEEEppB8ue170006Ev, symObjAddr: 0xCF0, symBinAddr: 0x100007B44, symSize: 0x20 }
  - { offsetInCU: 0x1317B, offset: 0x25DDD, size: 0x8, addend: 0x0, symName: __ZN12DebugLogging14clear_log_fileEv, symObjAddr: 0xD10, symBinAddr: 0x100007B64, symSize: 0xF4 }
  - { offsetInCU: 0x131B1, offset: 0x25E13, size: 0x8, addend: 0x0, symName: __ZNSt3__114basic_ofstreamIcNS_11char_traitsIcEEED2Ev, symObjAddr: 0xE04, symBinAddr: 0x100007C58, symSize: 0x64 }
  - { offsetInCU: 0x131EB, offset: 0x25E4D, size: 0x8, addend: 0x0, symName: __ZTv0_n24_NSt3__114basic_ofstreamIcNS_11char_traitsIcEEED1Ev, symObjAddr: 0xE68, symBinAddr: 0x100007CBC, symSize: 0x28 }
  - { offsetInCU: 0x13202, offset: 0x25E64, size: 0x8, addend: 0x0, symName: __ZNKSt3__111__wrap_iterIPNS_12basic_stringIcNS_11char_traitsIcEENS_9allocatorIcEEEEE4baseB8ue170006Ev, symObjAddr: 0xED8, symBinAddr: 0x100007D2C, symSize: 0x18 }
  - { offsetInCU: 0x13228, offset: 0x25E8A, size: 0x8, addend: 0x0, symName: __ZNSt3__16vectorINS_12basic_stringIcNS_11char_traitsIcEENS_9allocatorIcEEEENS4_IS6_EEEC2B8ue170006Ev, symObjAddr: 0xEF0, symBinAddr: 0x100007D44, symSize: 0x4C }
  - { offsetInCU: 0x1325E, offset: 0x25EC0, size: 0x8, addend: 0x0, symName: __ZNSt3__117__compressed_pairIPNS_12basic_stringIcNS_11char_traitsIcEENS_9allocatorIcEEEENS4_IS6_EEEC1B8ue170006IDnNS_18__default_init_tagEEEOT_OT0_, symObjAddr: 0xF3C, symBinAddr: 0x100007D90, symSize: 0x3C }
  - { offsetInCU: 0x132B6, offset: 0x25F18, size: 0x8, addend: 0x0, symName: __ZNSt3__117__compressed_pairIPNS_12basic_stringIcNS_11char_traitsIcEENS_9allocatorIcEEEENS4_IS6_EEEC2B8ue170006IDnNS_18__default_init_tagEEEOT_OT0_, symObjAddr: 0xF78, symBinAddr: 0x100007DCC, symSize: 0x40 }
  - { offsetInCU: 0x1330E, offset: 0x25F70, size: 0x8, addend: 0x0, symName: __ZNSt3__122__compressed_pair_elemIPNS_12basic_stringIcNS_11char_traitsIcEENS_9allocatorIcEEEELi0ELb0EEC2B8ue170006IDnvEEOT_, symObjAddr: 0xFB8, symBinAddr: 0x100007E0C, symSize: 0x1C }
  - { offsetInCU: 0x13351, offset: 0x25FB3, size: 0x8, addend: 0x0, symName: __ZNSt3__122__compressed_pair_elemINS_9allocatorINS_12basic_stringIcNS_11char_traitsIcEENS1_IcEEEEEELi1ELb1EEC2B8ue170006ENS_18__default_init_tagE, symObjAddr: 0xFD4, symBinAddr: 0x100007E28, symSize: 0x2C }
  - { offsetInCU: 0x13386, offset: 0x25FE8, size: 0x8, addend: 0x0, symName: __ZNSt3__19allocatorINS_12basic_stringIcNS_11char_traitsIcEENS0_IcEEEEEC2B8ue170006Ev, symObjAddr: 0x1000, symBinAddr: 0x100007E54, symSize: 0x2C }
  - { offsetInCU: 0x133B0, offset: 0x26012, size: 0x8, addend: 0x0, symName: __ZNSt3__116__non_trivial_ifILb1ENS_9allocatorINS_12basic_stringIcNS_11char_traitsIcEENS1_IcEEEEEEEC2B8ue170006Ev, symObjAddr: 0x102C, symBinAddr: 0x100007E80, symSize: 0x14 }
  - { offsetInCU: 0x133DA, offset: 0x2603C, size: 0x8, addend: 0x0, symName: __ZNSt3__16vectorINS_12basic_stringIcNS_11char_traitsIcEENS_9allocatorIcEEEENS4_IS6_EEED2B8ue170006Ev, symObjAddr: 0x1040, symBinAddr: 0x100007E94, symSize: 0x44 }
  - { offsetInCU: 0x13404, offset: 0x26066, size: 0x8, addend: 0x0, symName: __ZNSt3__16vectorINS_12basic_stringIcNS_11char_traitsIcEENS_9allocatorIcEEEENS4_IS6_EEE16__destroy_vectorC1B8ue170006ERS8_, symObjAddr: 0x1084, symBinAddr: 0x100007ED8, symSize: 0x34 }
  - { offsetInCU: 0x1343D, offset: 0x2609F, size: 0x8, addend: 0x0, symName: __ZNSt3__16vectorINS_12basic_stringIcNS_11char_traitsIcEENS_9allocatorIcEEEENS4_IS6_EEE16__destroy_vectorclB8ue170006Ev, symObjAddr: 0x10B8, symBinAddr: 0x100007F0C, symSize: 0x90 }
  - { offsetInCU: 0x13463, offset: 0x260C5, size: 0x8, addend: 0x0, symName: __ZNSt3__16vectorINS_12basic_stringIcNS_11char_traitsIcEENS_9allocatorIcEEEENS4_IS6_EEE16__destroy_vectorC2B8ue170006ERS8_, symObjAddr: 0x1148, symBinAddr: 0x100007F9C, symSize: 0x20 }
  - { offsetInCU: 0x1349C, offset: 0x260FE, size: 0x8, addend: 0x0, symName: __ZNSt3__16vectorINS_12basic_stringIcNS_11char_traitsIcEENS_9allocatorIcEEEENS4_IS6_EEE7__clearB8ue170006Ev, symObjAddr: 0x1168, symBinAddr: 0x100007FBC, symSize: 0x28 }
  - { offsetInCU: 0x134C2, offset: 0x26124, size: 0x8, addend: 0x0, symName: __ZNKSt3__16vectorINS_12basic_stringIcNS_11char_traitsIcEENS_9allocatorIcEEEENS4_IS6_EEE17__annotate_deleteB8ue170006Ev, symObjAddr: 0x1190, symBinAddr: 0x100007FE4, symSize: 0xD4 }
  - { offsetInCU: 0x134E8, offset: 0x2614A, size: 0x8, addend: 0x0, symName: __ZNSt3__116allocator_traitsINS_9allocatorINS_12basic_stringIcNS_11char_traitsIcEENS1_IcEEEEEEE10deallocateB8ue170006ERS7_PS6_m, symObjAddr: 0x1264, symBinAddr: 0x1000080B8, symSize: 0x34 }
  - { offsetInCU: 0x1352A, offset: 0x2618C, size: 0x8, addend: 0x0, symName: __ZNSt3__16vectorINS_12basic_stringIcNS_11char_traitsIcEENS_9allocatorIcEEEENS4_IS6_EEE7__allocB8ue170006Ev, symObjAddr: 0x1298, symBinAddr: 0x1000080EC, symSize: 0x28 }
  - { offsetInCU: 0x13550, offset: 0x261B2, size: 0x8, addend: 0x0, symName: __ZNKSt3__16vectorINS_12basic_stringIcNS_11char_traitsIcEENS_9allocatorIcEEEENS4_IS6_EEE8capacityB8ue170006Ev, symObjAddr: 0x12C0, symBinAddr: 0x100008114, symSize: 0x40 }
  - { offsetInCU: 0x13576, offset: 0x261D8, size: 0x8, addend: 0x0, symName: __ZNSt3__16vectorINS_12basic_stringIcNS_11char_traitsIcEENS_9allocatorIcEEEENS4_IS6_EEE22__base_destruct_at_endB8ue170006EPS6_, symObjAddr: 0x1300, symBinAddr: 0x100008154, symSize: 0x8C }
  - { offsetInCU: 0x135BB, offset: 0x2621D, size: 0x8, addend: 0x0, symName: __ZNSt3__116allocator_traitsINS_9allocatorINS_12basic_stringIcNS_11char_traitsIcEENS1_IcEEEEEEE7destroyB8ue170006IS6_vEEvRS7_PT_, symObjAddr: 0x138C, symBinAddr: 0x1000081E0, symSize: 0x2C }
  - { offsetInCU: 0x135F9, offset: 0x2625B, size: 0x8, addend: 0x0, symName: __ZNSt3__19allocatorINS_12basic_stringIcNS_11char_traitsIcEENS0_IcEEEEE7destroyB8ue170006EPS5_, symObjAddr: 0x13CC, symBinAddr: 0x100008220, symSize: 0x28 }
  - { offsetInCU: 0x1362D, offset: 0x2628F, size: 0x8, addend: 0x0, symName: __ZNKSt3__16vectorINS_12basic_stringIcNS_11char_traitsIcEENS_9allocatorIcEEEENS4_IS6_EEE31__annotate_contiguous_containerB8ue170006EPKvSA_SA_SA_, symObjAddr: 0x13F4, symBinAddr: 0x100008248, symSize: 0x20 }
  - { offsetInCU: 0x13683, offset: 0x262E5, size: 0x8, addend: 0x0, symName: __ZNKSt3__16vectorINS_12basic_stringIcNS_11char_traitsIcEENS_9allocatorIcEEEENS4_IS6_EEE4dataB8ue170006Ev, symObjAddr: 0x1414, symBinAddr: 0x100008268, symSize: 0x28 }
  - { offsetInCU: 0x136A9, offset: 0x2630B, size: 0x8, addend: 0x0, symName: __ZNKSt3__16vectorINS_12basic_stringIcNS_11char_traitsIcEENS_9allocatorIcEEEENS4_IS6_EEE4sizeB8ue170006Ev, symObjAddr: 0x143C, symBinAddr: 0x100008290, symSize: 0x28 }
  - { offsetInCU: 0x136CF, offset: 0x26331, size: 0x8, addend: 0x0, symName: __ZNSt3__19allocatorINS_12basic_stringIcNS_11char_traitsIcEENS0_IcEEEEE10deallocateB8ue170006EPS5_m, symObjAddr: 0x1464, symBinAddr: 0x1000082B8, symSize: 0x44 }
  - { offsetInCU: 0x13711, offset: 0x26373, size: 0x8, addend: 0x0, symName: __ZNSt3__117__compressed_pairIPNS_12basic_stringIcNS_11char_traitsIcEENS_9allocatorIcEEEENS4_IS6_EEE6secondB8ue170006Ev, symObjAddr: 0x15D0, symBinAddr: 0x100008424, symSize: 0x24 }
  - { offsetInCU: 0x13737, offset: 0x26399, size: 0x8, addend: 0x0, symName: __ZNSt3__122__compressed_pair_elemINS_9allocatorINS_12basic_stringIcNS_11char_traitsIcEENS1_IcEEEEEELi1ELb1EE5__getB8ue170006Ev, symObjAddr: 0x15F4, symBinAddr: 0x100008448, symSize: 0x14 }
  - { offsetInCU: 0x1375D, offset: 0x263BF, size: 0x8, addend: 0x0, symName: __ZNKSt3__16vectorINS_12basic_stringIcNS_11char_traitsIcEENS_9allocatorIcEEEENS4_IS6_EEE9__end_capB8ue170006Ev, symObjAddr: 0x1608, symBinAddr: 0x10000845C, symSize: 0x28 }
  - { offsetInCU: 0x13783, offset: 0x263E5, size: 0x8, addend: 0x0, symName: __ZNKSt3__117__compressed_pairIPNS_12basic_stringIcNS_11char_traitsIcEENS_9allocatorIcEEEENS4_IS6_EEE5firstB8ue170006Ev, symObjAddr: 0x1630, symBinAddr: 0x100008484, symSize: 0x24 }
  - { offsetInCU: 0x137A9, offset: 0x2640B, size: 0x8, addend: 0x0, symName: __ZNKSt3__122__compressed_pair_elemIPNS_12basic_stringIcNS_11char_traitsIcEENS_9allocatorIcEEEELi0ELb0EE5__getB8ue170006Ev, symObjAddr: 0x1654, symBinAddr: 0x1000084A8, symSize: 0x14 }
  - { offsetInCU: 0x137ED, offset: 0x2644F, size: 0x8, addend: 0x0, symName: __ZNKSt3__113basic_ostreamIcNS_11char_traitsIcEEE6sentrycvbB8ue170006Ev, symObjAddr: 0x1888, symBinAddr: 0x1000086A8, symSize: 0x1C }
  - { offsetInCU: 0x13813, offset: 0x26475, size: 0x8, addend: 0x0, symName: __ZNSt3__119ostreambuf_iteratorIcNS_11char_traitsIcEEEC1B8ue170006ERNS_13basic_ostreamIcS2_EE, symObjAddr: 0x1AE4, symBinAddr: 0x100008904, symSize: 0x34 }
  - { offsetInCU: 0x1384B, offset: 0x264AD, size: 0x8, addend: 0x0, symName: __ZNKSt3__18ios_base5flagsB8ue170006Ev, symObjAddr: 0x1B18, symBinAddr: 0x100008938, symSize: 0x18 }
  - { offsetInCU: 0x13873, offset: 0x264D5, size: 0x8, addend: 0x0, symName: __ZNKSt3__19basic_iosIcNS_11char_traitsIcEEE4fillB8ue170006Ev, symObjAddr: 0x1B30, symBinAddr: 0x100008950, symSize: 0x64 }
  - { offsetInCU: 0x1389B, offset: 0x264FD, size: 0x8, addend: 0x0, symName: __ZNKSt3__119ostreambuf_iteratorIcNS_11char_traitsIcEEE6failedB8ue170006Ev, symObjAddr: 0x1B94, symBinAddr: 0x1000089B4, symSize: 0x24 }
  - { offsetInCU: 0x138C1, offset: 0x26523, size: 0x8, addend: 0x0, symName: __ZNSt3__19basic_iosIcNS_11char_traitsIcEEE8setstateB8ue170006Ej, symObjAddr: 0x1BB8, symBinAddr: 0x1000089D8, symSize: 0x2C }
  - { offsetInCU: 0x138F6, offset: 0x26558, size: 0x8, addend: 0x0, symName: __ZNKSt3__18ios_base5widthB8ue170006Ev, symObjAddr: 0x1BE4, symBinAddr: 0x100008A04, symSize: 0x18 }
  - { offsetInCU: 0x1391E, offset: 0x26580, size: 0x8, addend: 0x0, symName: __ZNSt3__115basic_streambufIcNS_11char_traitsIcEEE5sputnB8ue170006EPKcl, symObjAddr: 0x1BFC, symBinAddr: 0x100008A1C, symSize: 0x3C }
  - { offsetInCU: 0x13960, offset: 0x265C2, size: 0x8, addend: 0x0, symName: __ZNSt3__112basic_stringIcNS_11char_traitsIcEENS_9allocatorIcEEEC1B8ue170006Emc, symObjAddr: 0x1C38, symBinAddr: 0x100008A58, symSize: 0x3C }
  - { offsetInCU: 0x139A8, offset: 0x2660A, size: 0x8, addend: 0x0, symName: __ZNSt3__112basic_stringIcNS_11char_traitsIcEENS_9allocatorIcEEE4dataB8ue170006Ev, symObjAddr: 0x1C74, symBinAddr: 0x100008A94, symSize: 0x28 }
  - { offsetInCU: 0x139CE, offset: 0x26630, size: 0x8, addend: 0x0, symName: __ZNSt3__18ios_base5widthB8ue170006El, symObjAddr: 0x1C9C, symBinAddr: 0x100008ABC, symSize: 0x2C }
  - { offsetInCU: 0x13A15, offset: 0x26677, size: 0x8, addend: 0x0, symName: __ZNSt3__112basic_stringIcNS_11char_traitsIcEENS_9allocatorIcEEEC2B8ue170006Emc, symObjAddr: 0x1CC8, symBinAddr: 0x100008AE8, symSize: 0x4C }
  - { offsetInCU: 0x13A5D, offset: 0x266BF, size: 0x8, addend: 0x0, symName: __ZNSt3__112basic_stringIcNS_11char_traitsIcEENS_9allocatorIcEEE13__get_pointerB8ue170006Ev, symObjAddr: 0x1E20, symBinAddr: 0x100008B48, symSize: 0x54 }
  - { offsetInCU: 0x13A83, offset: 0x266E5, size: 0x8, addend: 0x0, symName: __ZNSt3__112basic_stringIcNS_11char_traitsIcEENS_9allocatorIcEEE18__get_long_pointerB8ue170006Ev, symObjAddr: 0x1EAC, symBinAddr: 0x100008B9C, symSize: 0x28 }
  - { offsetInCU: 0x13AA9, offset: 0x2670B, size: 0x8, addend: 0x0, symName: __ZNSt3__112basic_stringIcNS_11char_traitsIcEENS_9allocatorIcEEE19__get_short_pointerB8ue170006Ev, symObjAddr: 0x1ED4, symBinAddr: 0x100008BC4, symSize: 0x28 }
  - { offsetInCU: 0x13ACF, offset: 0x26731, size: 0x8, addend: 0x0, symName: __ZNSt3__117__compressed_pairINS_12basic_stringIcNS_11char_traitsIcEENS_9allocatorIcEEE5__repES5_E5firstB8ue170006Ev, symObjAddr: 0x1F34, symBinAddr: 0x100008BEC, symSize: 0x24 }
  - { offsetInCU: 0x13AF5, offset: 0x26757, size: 0x8, addend: 0x0, symName: __ZNSt3__122__compressed_pair_elemINS_12basic_stringIcNS_11char_traitsIcEENS_9allocatorIcEEE5__repELi0ELb0EE5__getB8ue170006Ev, symObjAddr: 0x1F58, symBinAddr: 0x100008C10, symSize: 0x14 }
  - { offsetInCU: 0x13B1B, offset: 0x2677D, size: 0x8, addend: 0x0, symName: __ZNSt3__114pointer_traitsIPcE10pointer_toB8ue170006ERc, symObjAddr: 0x1F6C, symBinAddr: 0x100008C24, symSize: 0x14 }
  - { offsetInCU: 0x13B3E, offset: 0x267A0, size: 0x8, addend: 0x0, symName: __ZNSt3__119ostreambuf_iteratorIcNS_11char_traitsIcEEEC2B8ue170006ERNS_13basic_ostreamIcS2_EE, symObjAddr: 0x1F80, symBinAddr: 0x100008C38, symSize: 0x54 }
  - { offsetInCU: 0x13B76, offset: 0x267D8, size: 0x8, addend: 0x0, symName: __ZNKSt3__19basic_iosIcNS_11char_traitsIcEEE5rdbufB8ue170006Ev, symObjAddr: 0x1FD4, symBinAddr: 0x100008C8C, symSize: 0x24 }
  - { offsetInCU: 0x13B9E, offset: 0x26800, size: 0x8, addend: 0x0, symName: __ZNKSt3__18ios_base5rdbufB8ue170006Ev, symObjAddr: 0x1FF8, symBinAddr: 0x100008CB0, symSize: 0x18 }
  - { offsetInCU: 0x13BC4, offset: 0x26826, size: 0x8, addend: 0x0, symName: __ZNSt3__111char_traitsIcE11eq_int_typeB8ue170006Eii, symObjAddr: 0x2010, symBinAddr: 0x100008CC8, symSize: 0x28 }
  - { offsetInCU: 0x13BF7, offset: 0x26859, size: 0x8, addend: 0x0, symName: __ZNSt3__111char_traitsIcE3eofB8ue170006Ev, symObjAddr: 0x2038, symBinAddr: 0x100008CF0, symSize: 0x8 }
  - { offsetInCU: 0x13C0B, offset: 0x2686D, size: 0x8, addend: 0x0, symName: __ZNKSt3__19basic_iosIcNS_11char_traitsIcEEE5widenB8ue170006Ec, symObjAddr: 0x2040, symBinAddr: 0x100008CF8, symSize: 0x84 }
  - { offsetInCU: 0x13C74, offset: 0x268D6, size: 0x8, addend: 0x0, symName: __ZNKSt3__15ctypeIcE5widenB8ue170006Ec, symObjAddr: 0x20F0, symBinAddr: 0x100008DA8, symSize: 0x38 }
  - { offsetInCU: 0x13CA9, offset: 0x2690B, size: 0x8, addend: 0x0, symName: __ZNSt3__18ios_base8setstateB8ue170006Ej, symObjAddr: 0x2128, symBinAddr: 0x100008DE0, symSize: 0x34 }
  - { offsetInCU: 0x13CE0, offset: 0x26942, size: 0x8, addend: 0x0, symName: __ZNKSt3__112basic_stringIcNS_11char_traitsIcEENS_9allocatorIcEEE4sizeB8ue170006Ev, symObjAddr: 0x2200, symBinAddr: 0x100008E14, symSize: 0x54 }
  - { offsetInCU: 0x13D06, offset: 0x26968, size: 0x8, addend: 0x0, symName: __ZNKSt3__112basic_stringIcNS_11char_traitsIcEENS_9allocatorIcEEE15__get_long_sizeB8ue170006Ev, symObjAddr: 0x2320, symBinAddr: 0x100008E68, symSize: 0x28 }
  - { offsetInCU: 0x13D2C, offset: 0x2698E, size: 0x8, addend: 0x0, symName: __ZNKSt3__112basic_stringIcNS_11char_traitsIcEENS_9allocatorIcEEE16__get_short_sizeB8ue170006Ev, symObjAddr: 0x2348, symBinAddr: 0x100008E90, symSize: 0x34 }
  - { offsetInCU: 0x13D52, offset: 0x269B4, size: 0x8, addend: 0x0, symName: __ZNSt3__19basic_iosIcNS_11char_traitsIcEEEC2B8ue170006Ev, symObjAddr: 0x237C, symBinAddr: 0x100008EC4, symSize: 0x44 }
  - { offsetInCU: 0x13D7C, offset: 0x269DE, size: 0x8, addend: 0x0, symName: __ZNSt3__113basic_ostreamIcNS_11char_traitsIcEEEC2B8ue170006EPNS_15basic_streambufIcS2_EE, symObjAddr: 0x23C0, symBinAddr: 0x100008F08, symSize: 0x60 }
  - { offsetInCU: 0x13DC1, offset: 0x26A23, size: 0x8, addend: 0x0, symName: __ZNSt3__113basic_filebufIcNS_11char_traitsIcEEE4openERKNS_12basic_stringIcS2_NS_9allocatorIcEEEEj, symObjAddr: 0x2420, symBinAddr: 0x100008F68, symSize: 0x44 }
  - { offsetInCU: 0x13E05, offset: 0x26A67, size: 0x8, addend: 0x0, symName: __ZNSt3__18ios_baseC2B8ue170006Ev, symObjAddr: 0x2464, symBinAddr: 0x100008FAC, symSize: 0x24 }
  - { offsetInCU: 0x13E2F, offset: 0x26A91, size: 0x8, addend: 0x0, symName: __ZNSt3__19basic_iosIcNS_11char_traitsIcEEE4initB8ue170006EPNS_15basic_streambufIcS2_EE, symObjAddr: 0x2488, symBinAddr: 0x100008FD0, symSize: 0x44 }
  - { offsetInCU: 0x13E66, offset: 0x26AC8, size: 0x8, addend: 0x0, symName: __ZNKSt3__113basic_filebufIcNS_11char_traitsIcEEE7is_openEv, symObjAddr: 0x24F0, symBinAddr: 0x100009014, symSize: 0x24 }
  - { offsetInCU: 0x13E98, offset: 0x26AFA, size: 0x8, addend: 0x0, symName: __ZNSt3__116allocator_traitsINS_9allocatorIcEEE37select_on_container_copy_constructionB8ue170006IS2_vvEES2_RKS2_, symObjAddr: 0x2514, symBinAddr: 0x100009038, symSize: 0x10 }
  - { offsetInCU: 0x13EC9, offset: 0x26B2B, size: 0x8, addend: 0x0, symName: __ZNKSt3__112basic_stringIcNS_11char_traitsIcEENS_9allocatorIcEEE13get_allocatorB8ue170006Ev, symObjAddr: 0x2524, symBinAddr: 0x100009048, symSize: 0x24 }
  - { offsetInCU: 0x13EEF, offset: 0x26B51, size: 0x8, addend: 0x0, symName: __ZNSt3__112basic_stringIcNS_11char_traitsIcEENS_9allocatorIcEEEC1B8ue170006ENS_24__uninitialized_size_tagEmRKS4_, symObjAddr: 0x2548, symBinAddr: 0x10000906C, symSize: 0x3C }
  - { offsetInCU: 0x13F43, offset: 0x26BA5, size: 0x8, addend: 0x0, symName: __ZNSt3__111char_traitsIcE4copyB8ue170006EPcPKcm, symObjAddr: 0x2584, symBinAddr: 0x1000090A8, symSize: 0x40 }
  - { offsetInCU: 0x13F82, offset: 0x26BE4, size: 0x8, addend: 0x0, symName: __ZNSt3__111char_traitsIcE6assignB8ue170006EPcmc, symObjAddr: 0x25C4, symBinAddr: 0x1000090E8, symSize: 0x44 }
  - { offsetInCU: 0x13FC1, offset: 0x26C23, size: 0x8, addend: 0x0, symName: __ZNKSt3__112basic_stringIcNS_11char_traitsIcEENS_9allocatorIcEEE7__allocB8ue170006Ev, symObjAddr: 0x2608, symBinAddr: 0x10000912C, symSize: 0x24 }
  - { offsetInCU: 0x13FE7, offset: 0x26C49, size: 0x8, addend: 0x0, symName: __ZNKSt3__117__compressed_pairINS_12basic_stringIcNS_11char_traitsIcEENS_9allocatorIcEEE5__repES5_E6secondB8ue170006Ev, symObjAddr: 0x262C, symBinAddr: 0x100009150, symSize: 0x24 }
  - { offsetInCU: 0x1400D, offset: 0x26C6F, size: 0x8, addend: 0x0, symName: __ZNKSt3__122__compressed_pair_elemINS_9allocatorIcEELi1ELb1EE5__getB8ue170006Ev, symObjAddr: 0x2650, symBinAddr: 0x100009174, symSize: 0x14 }
  - { offsetInCU: 0x14033, offset: 0x26C95, size: 0x8, addend: 0x0, symName: __ZNSt3__112basic_stringIcNS_11char_traitsIcEENS_9allocatorIcEEEC2B8ue170006ENS_24__uninitialized_size_tagEmRKS4_, symObjAddr: 0x2664, symBinAddr: 0x100009188, symSize: 0x110 }
  - { offsetInCU: 0x140B6, offset: 0x26D18, size: 0x8, addend: 0x0, symName: __ZNSt3__117__compressed_pairINS_12basic_stringIcNS_11char_traitsIcEENS_9allocatorIcEEE5__repES5_EC1B8ue170006INS_18__default_init_tagERKS5_EEOT_OT0_, symObjAddr: 0x2774, symBinAddr: 0x100009298, symSize: 0x3C }
  - { offsetInCU: 0x1410E, offset: 0x26D70, size: 0x8, addend: 0x0, symName: __ZNKSt3__112basic_stringIcNS_11char_traitsIcEENS_9allocatorIcEEE8max_sizeB8ue170006Ev, symObjAddr: 0x27B0, symBinAddr: 0x1000092D4, symSize: 0xAC }
  - { offsetInCU: 0x14163, offset: 0x26DC5, size: 0x8, addend: 0x0, symName: __ZNKSt3__112basic_stringIcNS_11char_traitsIcEENS_9allocatorIcEEE20__throw_length_errorB8ue170006Ev, symObjAddr: 0x285C, symBinAddr: 0x100009380, symSize: 0x1C }
  - { offsetInCU: 0x14189, offset: 0x26DEB, size: 0x8, addend: 0x0, symName: __ZNSt3__112basic_stringIcNS_11char_traitsIcEENS_9allocatorIcEEE13__fits_in_ssoB8ue170006Em, symObjAddr: 0x2878, symBinAddr: 0x10000939C, symSize: 0x20 }
  - { offsetInCU: 0x141AD, offset: 0x26E0F, size: 0x8, addend: 0x0, symName: __ZNSt3__112basic_stringIcNS_11char_traitsIcEENS_9allocatorIcEEE16__set_short_sizeB8ue170006Em, symObjAddr: 0x2898, symBinAddr: 0x1000093BC, symSize: 0x78 }
  - { offsetInCU: 0x141E2, offset: 0x26E44, size: 0x8, addend: 0x0, symName: __ZNSt3__112basic_stringIcNS_11char_traitsIcEENS_9allocatorIcEEE11__recommendB8ue170006Em, symObjAddr: 0x2910, symBinAddr: 0x100009434, symSize: 0x84 }
  - { offsetInCU: 0x14216, offset: 0x26E78, size: 0x8, addend: 0x0, symName: __ZNSt3__116allocator_traitsINS_9allocatorIcEEE8allocateB8ue170006ERS2_m, symObjAddr: 0x2994, symBinAddr: 0x1000094B8, symSize: 0x2C }
  - { offsetInCU: 0x14249, offset: 0x26EAB, size: 0x8, addend: 0x0, symName: __ZNSt3__112basic_stringIcNS_11char_traitsIcEENS_9allocatorIcEEE7__allocB8ue170006Ev, symObjAddr: 0x29C0, symBinAddr: 0x1000094E4, symSize: 0x24 }
  - { offsetInCU: 0x1426F, offset: 0x26ED1, size: 0x8, addend: 0x0, symName: __ZNSt3__112basic_stringIcNS_11char_traitsIcEENS_9allocatorIcEEE16__begin_lifetimeB8ue170006EPcm, symObjAddr: 0x29E4, symBinAddr: 0x100009508, symSize: 0x14 }
  - { offsetInCU: 0x142A2, offset: 0x26F04, size: 0x8, addend: 0x0, symName: __ZNSt3__112basic_stringIcNS_11char_traitsIcEENS_9allocatorIcEEE14__set_long_capB8ue170006Em, symObjAddr: 0x29F8, symBinAddr: 0x10000951C, symSize: 0x70 }
  - { offsetInCU: 0x142D7, offset: 0x26F39, size: 0x8, addend: 0x0, symName: __ZNSt3__112basic_stringIcNS_11char_traitsIcEENS_9allocatorIcEEE18__set_long_pointerB8ue170006EPc, symObjAddr: 0x2A68, symBinAddr: 0x10000958C, symSize: 0x38 }
  - { offsetInCU: 0x1430C, offset: 0x26F6E, size: 0x8, addend: 0x0, symName: __ZNSt3__112basic_stringIcNS_11char_traitsIcEENS_9allocatorIcEEE15__set_long_sizeB8ue170006Em, symObjAddr: 0x2AA0, symBinAddr: 0x1000095C4, symSize: 0x38 }
  - { offsetInCU: 0x14341, offset: 0x26FA3, size: 0x8, addend: 0x0, symName: __ZNSt3__117__compressed_pairINS_12basic_stringIcNS_11char_traitsIcEENS_9allocatorIcEEE5__repES5_EC2B8ue170006INS_18__default_init_tagERKS5_EEOT_OT0_, symObjAddr: 0x2AD8, symBinAddr: 0x1000095FC, symSize: 0x40 }
  - { offsetInCU: 0x14399, offset: 0x26FFB, size: 0x8, addend: 0x0, symName: __ZNSt3__122__compressed_pair_elemINS_9allocatorIcEELi1ELb1EEC2B8ue170006IRKS2_vEEOT_, symObjAddr: 0x2B18, symBinAddr: 0x10000963C, symSize: 0x18 }
  - { offsetInCU: 0x143DC, offset: 0x2703E, size: 0x8, addend: 0x0, symName: __ZNSt3__116allocator_traitsINS_9allocatorIcEEE8max_sizeB8ue170006IS2_vEEmRKS2_, symObjAddr: 0x2B30, symBinAddr: 0x100009654, symSize: 0x24 }
  - { offsetInCU: 0x1440B, offset: 0x2706D, size: 0x8, addend: 0x0, symName: __ZNSt3__114numeric_limitsImE3maxB8ue170006Ev, symObjAddr: 0x2B54, symBinAddr: 0x100009678, symSize: 0x14 }
  - { offsetInCU: 0x1441F, offset: 0x27081, size: 0x8, addend: 0x0, symName: __ZNKSt3__19allocatorIcE8max_sizeB8ue170006Ev, symObjAddr: 0x2B68, symBinAddr: 0x10000968C, symSize: 0x14 }
  - { offsetInCU: 0x14445, offset: 0x270A7, size: 0x8, addend: 0x0, symName: __ZNSt3__123__libcpp_numeric_limitsImLb1EE3maxB8ue170006Ev, symObjAddr: 0x2B7C, symBinAddr: 0x1000096A0, symSize: 0x8 }
  - { offsetInCU: 0x14459, offset: 0x270BB, size: 0x8, addend: 0x0, symName: __ZNSt12length_errorC1B8ue170006EPKc, symObjAddr: 0x2BE8, symBinAddr: 0x10000970C, symSize: 0x34 }
  - { offsetInCU: 0x14491, offset: 0x270F3, size: 0x8, addend: 0x0, symName: __ZNSt12length_errorC2B8ue170006EPKc, symObjAddr: 0x2C1C, symBinAddr: 0x100009740, symSize: 0x4C }
  - { offsetInCU: 0x144C9, offset: 0x2712B, size: 0x8, addend: 0x0, symName: __ZNSt3__112basic_stringIcNS_11char_traitsIcEENS_9allocatorIcEEE10__align_itB8ue170006ILm16EEEmm, symObjAddr: 0x2C68, symBinAddr: 0x10000978C, symSize: 0x1C }
  - { offsetInCU: 0x144F7, offset: 0x27159, size: 0x8, addend: 0x0, symName: __ZNSt3__19allocatorIcE8allocateB8ue170006Em, symObjAddr: 0x2C84, symBinAddr: 0x1000097A8, symSize: 0x58 }
  - { offsetInCU: 0x1452B, offset: 0x2718D, size: 0x8, addend: 0x0, symName: __ZNSt3__117__compressed_pairINS_12basic_stringIcNS_11char_traitsIcEENS_9allocatorIcEEE5__repES5_E6secondB8ue170006Ev, symObjAddr: 0x2DC0, symBinAddr: 0x1000098E4, symSize: 0x24 }
  - { offsetInCU: 0x14551, offset: 0x271B3, size: 0x8, addend: 0x0, symName: __ZNSt3__122__compressed_pair_elemINS_9allocatorIcEELi1ELb1EE5__getB8ue170006Ev, symObjAddr: 0x2DE4, symBinAddr: 0x100009908, symSize: 0x14 }
  - { offsetInCU: 0x1459B, offset: 0x271FD, size: 0x8, addend: 0x0, symName: __ZNKSt3__114__copy_trivialclB8ue170006IKccLi0EEENS_4pairIPT_PT0_EES5_S5_S7_, symObjAddr: 0x3018, symBinAddr: 0x100009B3C, symSize: 0x48 }
  - { offsetInCU: 0x14623, offset: 0x27285, size: 0x8, addend: 0x0, symName: __ZNSt3__14pairIPKcS2_EC1B8ue170006IS2_S2_LPv0EEEOT_OT0_, symObjAddr: 0x3180, symBinAddr: 0x100009CA4, symSize: 0x3C }
  - { offsetInCU: 0x14681, offset: 0x272E3, size: 0x8, addend: 0x0, symName: __ZNSt3__14pairIPKcS2_EC2B8ue170006IS2_S2_LPv0EEEOT_OT0_, symObjAddr: 0x31BC, symBinAddr: 0x100009CE0, symSize: 0x34 }
  - { offsetInCU: 0x146DF, offset: 0x27341, size: 0x8, addend: 0x0, symName: __ZNSt3__118__unwrap_iter_implIPKcLb1EE8__unwrapB8ue170006ES2_, symObjAddr: 0x31F0, symBinAddr: 0x100009D14, symSize: 0x24 }
  - { offsetInCU: 0x1470D, offset: 0x2736F, size: 0x8, addend: 0x0, symName: __ZNSt3__14pairIPKcPcEC1B8ue170006IRS2_S3_LPv0EEEOT_OT0_, symObjAddr: 0x3328, symBinAddr: 0x100009E4C, symSize: 0x3C }
  - { offsetInCU: 0x1476B, offset: 0x273CD, size: 0x8, addend: 0x0, symName: __ZNSt3__14pairIPKcPcEC2B8ue170006IRS2_S3_LPv0EEEOT_OT0_, symObjAddr: 0x3364, symBinAddr: 0x100009E88, symSize: 0x34 }
  - { offsetInCU: 0x147C9, offset: 0x2742B, size: 0x8, addend: 0x0, symName: __ZNSt3__118__unwrap_iter_implIPcLb1EE8__unwrapB8ue170006ES1_, symObjAddr: 0x3398, symBinAddr: 0x100009EBC, symSize: 0x24 }
  - { offsetInCU: 0x147EC, offset: 0x2744E, size: 0x8, addend: 0x0, symName: __ZNSt3__14pairIPKcPcEC1B8ue170006IS2_S3_LPv0EEEOT_OT0_, symObjAddr: 0x33BC, symBinAddr: 0x100009EE0, symSize: 0x3C }
  - { offsetInCU: 0x1484A, offset: 0x274AC, size: 0x8, addend: 0x0, symName: __ZNSt3__14pairIPKcPcEC2B8ue170006IS2_S3_LPv0EEEOT_OT0_, symObjAddr: 0x33F8, symBinAddr: 0x100009F1C, symSize: 0x34 }
  - { offsetInCU: 0x148A8, offset: 0x2750A, size: 0x8, addend: 0x0, symName: __ZNSt3__118__unwrap_iter_implIPKcLb1EE8__rewrapB8ue170006ES2_S2_, symObjAddr: 0x3468, symBinAddr: 0x100009F8C, symSize: 0x48 }
  - { offsetInCU: 0x148D9, offset: 0x2753B, size: 0x8, addend: 0x0, symName: __ZNSt3__118__unwrap_iter_implIPcLb1EE8__rewrapB8ue170006ES1_S1_, symObjAddr: 0x34B0, symBinAddr: 0x100009FD4, symSize: 0x48 }
  - { offsetInCU: 0x1490A, offset: 0x2756C, size: 0x8, addend: 0x0, symName: __ZNSt3__112basic_stringIcNS_11char_traitsIcEENS_9allocatorIcEEE6appendB8ue170006ERKS5_, symObjAddr: 0x35B4, symBinAddr: 0x10000A0D8, symSize: 0x4C }
  - { offsetInCU: 0x1493F, offset: 0x275A1, size: 0x8, addend: 0x0, symName: __ZNSt3__112basic_stringIcNS_11char_traitsIcEENS_9allocatorIcEEEC1B8ue170006EOS5_, symObjAddr: 0x3600, symBinAddr: 0x10000A124, symSize: 0x34 }
  - { offsetInCU: 0x14978, offset: 0x275DA, size: 0x8, addend: 0x0, symName: __ZNSt3__112basic_stringIcNS_11char_traitsIcEENS_9allocatorIcEEEC2B8ue170006EOS5_, symObjAddr: 0x3634, symBinAddr: 0x10000A158, symSize: 0x50 }
  - { offsetInCU: 0x149B1, offset: 0x27613, size: 0x8, addend: 0x0, symName: __ZNSt3__112basic_stringIcNS_11char_traitsIcEENS_9allocatorIcEEE14__default_initB8ue170006Ev, symObjAddr: 0x3684, symBinAddr: 0x10000A1A8, symSize: 0x40 }
  - { offsetInCU: 0x149D7, offset: 0x27639, size: 0x8, addend: 0x0, symName: __ZNSt3__16vectorINS_12basic_stringIcNS_11char_traitsIcEENS_9allocatorIcEEEENS4_IS6_EEE9__end_capB8ue170006Ev, symObjAddr: 0x36C4, symBinAddr: 0x10000A1E8, symSize: 0x28 }
  - { offsetInCU: 0x14A03, offset: 0x27665, size: 0x8, addend: 0x0, symName: __ZNSt3__16vectorINS_12basic_stringIcNS_11char_traitsIcEENS_9allocatorIcEEEENS4_IS6_EEE22__construct_one_at_endB8ue170006IJS6_EEEvDpOT_, symObjAddr: 0x36EC, symBinAddr: 0x10000A210, symSize: 0x90 }
  - { offsetInCU: 0x14A53, offset: 0x276B5, size: 0x8, addend: 0x0, symName: __ZNSt3__16vectorINS_12basic_stringIcNS_11char_traitsIcEENS_9allocatorIcEEEENS4_IS6_EEE21__push_back_slow_pathIS6_EEvOT_, symObjAddr: 0x377C, symBinAddr: 0x10000A2A0, symSize: 0xD8 }
  - { offsetInCU: 0x14AB3, offset: 0x27715, size: 0x8, addend: 0x0, symName: __ZNSt3__117__compressed_pairIPNS_12basic_stringIcNS_11char_traitsIcEENS_9allocatorIcEEEENS4_IS6_EEE5firstB8ue170006Ev, symObjAddr: 0x3854, symBinAddr: 0x10000A378, symSize: 0x24 }
  - { offsetInCU: 0x14AD9, offset: 0x2773B, size: 0x8, addend: 0x0, symName: __ZNSt3__122__compressed_pair_elemIPNS_12basic_stringIcNS_11char_traitsIcEENS_9allocatorIcEEEELi0ELb0EE5__getB8ue170006Ev, symObjAddr: 0x3878, symBinAddr: 0x10000A39C, symSize: 0x14 }
  - { offsetInCU: 0x14B18, offset: 0x2777A, size: 0x8, addend: 0x0, symName: __ZNSt3__16vectorINS_12basic_stringIcNS_11char_traitsIcEENS_9allocatorIcEEEENS4_IS6_EEE21_ConstructTransactionC1B8ue170006ERS8_m, symObjAddr: 0x388C, symBinAddr: 0x10000A3B0, symSize: 0x3C }
  - { offsetInCU: 0x14B60, offset: 0x277C2, size: 0x8, addend: 0x0, symName: __ZNSt3__116allocator_traitsINS_9allocatorINS_12basic_stringIcNS_11char_traitsIcEENS1_IcEEEEEEE9constructB8ue170006IS6_JS6_EvEEvRS7_PT_DpOT0_, symObjAddr: 0x38C8, symBinAddr: 0x10000A3EC, symSize: 0x34 }
  - { offsetInCU: 0x14BB8, offset: 0x2781A, size: 0x8, addend: 0x0, symName: __ZNSt3__16vectorINS_12basic_stringIcNS_11char_traitsIcEENS_9allocatorIcEEEENS4_IS6_EEE21_ConstructTransactionD1B8ue170006Ev, symObjAddr: 0x38FC, symBinAddr: 0x10000A420, symSize: 0x2C }
  - { offsetInCU: 0x14BE2, offset: 0x27844, size: 0x8, addend: 0x0, symName: __ZNSt3__16vectorINS_12basic_stringIcNS_11char_traitsIcEENS_9allocatorIcEEEENS4_IS6_EEE21_ConstructTransactionC2B8ue170006ERS8_m, symObjAddr: 0x3928, symBinAddr: 0x10000A44C, symSize: 0x4C }
  - { offsetInCU: 0x14C2A, offset: 0x2788C, size: 0x8, addend: 0x0, symName: __ZNSt3__19allocatorINS_12basic_stringIcNS_11char_traitsIcEENS0_IcEEEEE9constructB8ue170006IS5_JS5_EEEvPT_DpOT0_, symObjAddr: 0x3974, symBinAddr: 0x10000A498, symSize: 0x30 }
  - { offsetInCU: 0x14C80, offset: 0x278E2, size: 0x8, addend: 0x0, symName: __ZNSt3__16vectorINS_12basic_stringIcNS_11char_traitsIcEENS_9allocatorIcEEEENS4_IS6_EEE21_ConstructTransactionD2B8ue170006Ev, symObjAddr: 0x39A4, symBinAddr: 0x10000A4C8, symSize: 0x20 }
  - { offsetInCU: 0x14CAA, offset: 0x2790C, size: 0x8, addend: 0x0, symName: __ZNKSt3__16vectorINS_12basic_stringIcNS_11char_traitsIcEENS_9allocatorIcEEEENS4_IS6_EEE11__recommendB8ue170006Em, symObjAddr: 0x39C4, symBinAddr: 0x10000A4E8, symSize: 0xB4 }
  - { offsetInCU: 0x14D01, offset: 0x27963, size: 0x8, addend: 0x0, symName: __ZNSt3__114__split_bufferINS_12basic_stringIcNS_11char_traitsIcEENS_9allocatorIcEEEERNS4_IS6_EEEC1EmmS8_, symObjAddr: 0x3A78, symBinAddr: 0x10000A59C, symSize: 0x44 }
  - { offsetInCU: 0x14D57, offset: 0x279B9, size: 0x8, addend: 0x0, symName: __ZNSt3__114__split_bufferINS_12basic_stringIcNS_11char_traitsIcEENS_9allocatorIcEEEERNS4_IS6_EEED1Ev, symObjAddr: 0x3BCC, symBinAddr: 0x10000A6F0, symSize: 0x2C }
  - { offsetInCU: 0x14D83, offset: 0x279E5, size: 0x8, addend: 0x0, symName: __ZNKSt3__16vectorINS_12basic_stringIcNS_11char_traitsIcEENS_9allocatorIcEEEENS4_IS6_EEE8max_sizeEv, symObjAddr: 0x3BF8, symBinAddr: 0x10000A71C, symSize: 0x60 }
  - { offsetInCU: 0x14DAB, offset: 0x27A0D, size: 0x8, addend: 0x0, symName: __ZNKSt3__16vectorINS_12basic_stringIcNS_11char_traitsIcEENS_9allocatorIcEEEENS4_IS6_EEE20__throw_length_errorB8ue170006Ev, symObjAddr: 0x3C58, symBinAddr: 0x10000A77C, symSize: 0x1C }
  - { offsetInCU: 0x14DDB, offset: 0x27A3D, size: 0x8, addend: 0x0, symName: __ZNSt3__116allocator_traitsINS_9allocatorINS_12basic_stringIcNS_11char_traitsIcEENS1_IcEEEEEEE8max_sizeB8ue170006IS7_vEEmRKS7_, symObjAddr: 0x3CCC, symBinAddr: 0x10000A7F0, symSize: 0x24 }
  - { offsetInCU: 0x14E0A, offset: 0x27A6C, size: 0x8, addend: 0x0, symName: __ZNKSt3__16vectorINS_12basic_stringIcNS_11char_traitsIcEENS_9allocatorIcEEEENS4_IS6_EEE7__allocB8ue170006Ev, symObjAddr: 0x3CF0, symBinAddr: 0x10000A814, symSize: 0x28 }
  - { offsetInCU: 0x14E30, offset: 0x27A92, size: 0x8, addend: 0x0, symName: __ZNSt3__114numeric_limitsIlE3maxB8ue170006Ev, symObjAddr: 0x3D18, symBinAddr: 0x10000A83C, symSize: 0x14 }
  - { offsetInCU: 0x14E58, offset: 0x27ABA, size: 0x8, addend: 0x0, symName: __ZNKSt3__16__lessIvvEclB8ue170006ImmEEbRKT_RKT0_, symObjAddr: 0x3D80, symBinAddr: 0x10000A8A4, symSize: 0x34 }
  - { offsetInCU: 0x14EAC, offset: 0x27B0E, size: 0x8, addend: 0x0, symName: __ZNKSt3__19allocatorINS_12basic_stringIcNS_11char_traitsIcEENS0_IcEEEEE8max_sizeB8ue170006Ev, symObjAddr: 0x3DB4, symBinAddr: 0x10000A8D8, symSize: 0x18 }
  - { offsetInCU: 0x14ED2, offset: 0x27B34, size: 0x8, addend: 0x0, symName: __ZNKSt3__117__compressed_pairIPNS_12basic_stringIcNS_11char_traitsIcEENS_9allocatorIcEEEENS4_IS6_EEE6secondB8ue170006Ev, symObjAddr: 0x3DCC, symBinAddr: 0x10000A8F0, symSize: 0x24 }
  - { offsetInCU: 0x14EF8, offset: 0x27B5A, size: 0x8, addend: 0x0, symName: __ZNKSt3__122__compressed_pair_elemINS_9allocatorINS_12basic_stringIcNS_11char_traitsIcEENS1_IcEEEEEELi1ELb1EE5__getB8ue170006Ev, symObjAddr: 0x3DF0, symBinAddr: 0x10000A914, symSize: 0x14 }
  - { offsetInCU: 0x14F1E, offset: 0x27B80, size: 0x8, addend: 0x0, symName: __ZNSt3__123__libcpp_numeric_limitsIlLb1EE3maxB8ue170006Ev, symObjAddr: 0x3E04, symBinAddr: 0x10000A928, symSize: 0x8 }
  - { offsetInCU: 0x14F32, offset: 0x27B94, size: 0x8, addend: 0x0, symName: __ZNSt3__114__split_bufferINS_12basic_stringIcNS_11char_traitsIcEENS_9allocatorIcEEEERNS4_IS6_EEEC2EmmS8_, symObjAddr: 0x3E60, symBinAddr: 0x10000A984, symSize: 0xE0 }
  - { offsetInCU: 0x14FA7, offset: 0x27C09, size: 0x8, addend: 0x0, symName: __ZNSt3__117__compressed_pairIPNS_12basic_stringIcNS_11char_traitsIcEENS_9allocatorIcEEEERNS4_IS6_EEEC1B8ue170006IDnS9_EEOT_OT0_, symObjAddr: 0x3F40, symBinAddr: 0x10000AA64, symSize: 0x3C }
  - { offsetInCU: 0x14FFF, offset: 0x27C61, size: 0x8, addend: 0x0, symName: __ZNSt3__114__split_bufferINS_12basic_stringIcNS_11char_traitsIcEENS_9allocatorIcEEEERNS4_IS6_EEE7__allocB8ue170006Ev, symObjAddr: 0x3FBC, symBinAddr: 0x10000AAE0, symSize: 0x28 }
  - { offsetInCU: 0x15025, offset: 0x27C87, size: 0x8, addend: 0x0, symName: __ZNSt3__114__split_bufferINS_12basic_stringIcNS_11char_traitsIcEENS_9allocatorIcEEEERNS4_IS6_EEE9__end_capB8ue170006Ev, symObjAddr: 0x3FE4, symBinAddr: 0x10000AB08, symSize: 0x28 }
  - { offsetInCU: 0x1504B, offset: 0x27CAD, size: 0x8, addend: 0x0, symName: __ZNSt3__117__compressed_pairIPNS_12basic_stringIcNS_11char_traitsIcEENS_9allocatorIcEEEERNS4_IS6_EEEC2B8ue170006IDnS9_EEOT_OT0_, symObjAddr: 0x400C, symBinAddr: 0x10000AB30, symSize: 0x48 }
  - { offsetInCU: 0x150A3, offset: 0x27D05, size: 0x8, addend: 0x0, symName: __ZNSt3__122__compressed_pair_elemIRNS_9allocatorINS_12basic_stringIcNS_11char_traitsIcEENS1_IcEEEEEELi1ELb0EEC2B8ue170006IS8_vEEOT_, symObjAddr: 0x4054, symBinAddr: 0x10000AB78, symSize: 0x20 }
  - { offsetInCU: 0x150E6, offset: 0x27D48, size: 0x8, addend: 0x0, symName: __ZNSt3__19allocatorINS_12basic_stringIcNS_11char_traitsIcEENS0_IcEEEEE8allocateB8ue170006Em, symObjAddr: 0x4074, symBinAddr: 0x10000AB98, symSize: 0x5C }
  - { offsetInCU: 0x1511A, offset: 0x27D7C, size: 0x8, addend: 0x0, symName: __ZNSt3__117__compressed_pairIPNS_12basic_stringIcNS_11char_traitsIcEENS_9allocatorIcEEEERNS4_IS6_EEE6secondB8ue170006Ev, symObjAddr: 0x40D0, symBinAddr: 0x10000ABF4, symSize: 0x28 }
  - { offsetInCU: 0x15140, offset: 0x27DA2, size: 0x8, addend: 0x0, symName: __ZNSt3__122__compressed_pair_elemIRNS_9allocatorINS_12basic_stringIcNS_11char_traitsIcEENS1_IcEEEEEELi1ELb0EE5__getB8ue170006Ev, symObjAddr: 0x40F8, symBinAddr: 0x10000AC1C, symSize: 0x18 }
  - { offsetInCU: 0x15166, offset: 0x27DC8, size: 0x8, addend: 0x0, symName: __ZNSt3__117__compressed_pairIPNS_12basic_stringIcNS_11char_traitsIcEENS_9allocatorIcEEEERNS4_IS6_EEE5firstB8ue170006Ev, symObjAddr: 0x4110, symBinAddr: 0x10000AC34, symSize: 0x24 }
  - { offsetInCU: 0x1518C, offset: 0x27DEE, size: 0x8, addend: 0x0, symName: __ZNSt3__116reverse_iteratorIPNS_12basic_stringIcNS_11char_traitsIcEENS_9allocatorIcEEEEEC1B8ue170006ES7_, symObjAddr: 0x4260, symBinAddr: 0x10000AD84, symSize: 0x34 }
  - { offsetInCU: 0x151C4, offset: 0x27E26, size: 0x8, addend: 0x0, symName: __ZNKSt3__116reverse_iteratorIPNS_12basic_stringIcNS_11char_traitsIcEENS_9allocatorIcEEEEE4baseB8ue170006Ev, symObjAddr: 0x4294, symBinAddr: 0x10000ADB8, symSize: 0x18 }
  - { offsetInCU: 0x151EA, offset: 0x27E4C, size: 0x8, addend: 0x0, symName: __ZNKSt3__16vectorINS_12basic_stringIcNS_11char_traitsIcEENS_9allocatorIcEEEENS4_IS6_EEE14__annotate_newB8ue170006Em, symObjAddr: 0x42E8, symBinAddr: 0x10000AE0C, symSize: 0xC8 }
  - { offsetInCU: 0x1521F, offset: 0x27E81, size: 0x8, addend: 0x0, symName: __ZNSt3__129_AllocatorDestroyRangeReverseINS_9allocatorINS_12basic_stringIcNS_11char_traitsIcEENS1_IcEEEEEENS_16reverse_iteratorIPS6_EEEC1B8ue170006ERS7_RSA_SD_, symObjAddr: 0x43FC, symBinAddr: 0x10000AF20, symSize: 0x44 }
  - { offsetInCU: 0x15276, offset: 0x27ED8, size: 0x8, addend: 0x0, symName: __ZNKSt3__116reverse_iteratorIPNS_12basic_stringIcNS_11char_traitsIcEENS_9allocatorIcEEEEEdeB8ue170006Ev, symObjAddr: 0x44AC, symBinAddr: 0x10000AFD0, symSize: 0x28 }
  - { offsetInCU: 0x152AA, offset: 0x27F0C, size: 0x8, addend: 0x0, symName: __ZNSt3__116reverse_iteratorIPNS_12basic_stringIcNS_11char_traitsIcEENS_9allocatorIcEEEEEppB8ue170006Ev, symObjAddr: 0x44D4, symBinAddr: 0x10000AFF8, symSize: 0x20 }
  - { offsetInCU: 0x152D0, offset: 0x27F32, size: 0x8, addend: 0x0, symName: __ZNSt3__128__exception_guard_exceptionsINS_29_AllocatorDestroyRangeReverseINS_9allocatorINS_12basic_stringIcNS_11char_traitsIcEENS2_IcEEEEEENS_16reverse_iteratorIPS7_EEEEE10__completeB8ue170006Ev, symObjAddr: 0x44F4, symBinAddr: 0x10000B018, symSize: 0x1C }
  - { offsetInCU: 0x152F6, offset: 0x27F58, size: 0x8, addend: 0x0, symName: __ZNSt3__128__exception_guard_exceptionsINS_29_AllocatorDestroyRangeReverseINS_9allocatorINS_12basic_stringIcNS_11char_traitsIcEENS2_IcEEEEEENS_16reverse_iteratorIPS7_EEEEED1B8ue170006Ev, symObjAddr: 0x4510, symBinAddr: 0x10000B034, symSize: 0x2C }
  - { offsetInCU: 0x15320, offset: 0x27F82, size: 0x8, addend: 0x0, symName: __ZNSt3__128__exception_guard_exceptionsINS_29_AllocatorDestroyRangeReverseINS_9allocatorINS_12basic_stringIcNS_11char_traitsIcEENS2_IcEEEEEENS_16reverse_iteratorIPS7_EEEEEC1B8ue170006ESC_, symObjAddr: 0x453C, symBinAddr: 0x10000B060, symSize: 0x34 }
  - { offsetInCU: 0x15359, offset: 0x27FBB, size: 0x8, addend: 0x0, symName: __ZNSt3__128__exception_guard_exceptionsINS_29_AllocatorDestroyRangeReverseINS_9allocatorINS_12basic_stringIcNS_11char_traitsIcEENS2_IcEEEEEENS_16reverse_iteratorIPS7_EEEEEC2B8ue170006ESC_, symObjAddr: 0x4570, symBinAddr: 0x10000B094, symSize: 0x30 }
  - { offsetInCU: 0x15392, offset: 0x27FF4, size: 0x8, addend: 0x0, symName: __ZNSt3__129_AllocatorDestroyRangeReverseINS_9allocatorINS_12basic_stringIcNS_11char_traitsIcEENS1_IcEEEEEENS_16reverse_iteratorIPS6_EEEC2B8ue170006ERS7_RSA_SD_, symObjAddr: 0x45A0, symBinAddr: 0x10000B0C4, symSize: 0x38 }
  - { offsetInCU: 0x153EE, offset: 0x28050, size: 0x8, addend: 0x0, symName: __ZNSt3__119__to_address_helperINS_16reverse_iteratorIPNS_12basic_stringIcNS_11char_traitsIcEENS_9allocatorIcEEEEEEvE6__callB8ue170006ERKS9_, symObjAddr: 0x45D8, symBinAddr: 0x10000B0FC, symSize: 0x38 }
  - { offsetInCU: 0x15411, offset: 0x28073, size: 0x8, addend: 0x0, symName: __ZNKSt3__116reverse_iteratorIPNS_12basic_stringIcNS_11char_traitsIcEENS_9allocatorIcEEEEEptB8ue170006Ev, symObjAddr: 0x4610, symBinAddr: 0x10000B134, symSize: 0x24 }
  - { offsetInCU: 0x15437, offset: 0x28099, size: 0x8, addend: 0x0, symName: __ZNSt3__128__exception_guard_exceptionsINS_29_AllocatorDestroyRangeReverseINS_9allocatorINS_12basic_stringIcNS_11char_traitsIcEENS2_IcEEEEEENS_16reverse_iteratorIPS7_EEEEED2B8ue170006Ev, symObjAddr: 0x4634, symBinAddr: 0x10000B158, symSize: 0x50 }
  - { offsetInCU: 0x15461, offset: 0x280C3, size: 0x8, addend: 0x0, symName: __ZNKSt3__129_AllocatorDestroyRangeReverseINS_9allocatorINS_12basic_stringIcNS_11char_traitsIcEENS1_IcEEEEEENS_16reverse_iteratorIPS6_EEEclB8ue170006Ev, symObjAddr: 0x4684, symBinAddr: 0x10000B1A8, symSize: 0xB4 }
  - { offsetInCU: 0x15488, offset: 0x280EA, size: 0x8, addend: 0x0, symName: __ZNSt3__116reverse_iteratorINS0_IPNS_12basic_stringIcNS_11char_traitsIcEENS_9allocatorIcEEEEEEEC1B8ue170006ES8_, symObjAddr: 0x47A8, symBinAddr: 0x10000B2CC, symSize: 0x3C }
  - { offsetInCU: 0x154C0, offset: 0x28122, size: 0x8, addend: 0x0, symName: __ZNSt3__116reverse_iteratorINS0_IPNS_12basic_stringIcNS_11char_traitsIcEENS_9allocatorIcEEEEEEEppB8ue170006Ev, symObjAddr: 0x4868, symBinAddr: 0x10000B38C, symSize: 0x30 }
  - { offsetInCU: 0x154E6, offset: 0x28148, size: 0x8, addend: 0x0, symName: __ZNKSt3__116reverse_iteratorINS0_IPNS_12basic_stringIcNS_11char_traitsIcEENS_9allocatorIcEEEEEEE4baseB8ue170006Ev, symObjAddr: 0x4898, symBinAddr: 0x10000B3BC, symSize: 0x24 }
  - { offsetInCU: 0x15511, offset: 0x28173, size: 0x8, addend: 0x0, symName: __ZNSt3__119__to_address_helperINS_16reverse_iteratorINS1_IPNS_12basic_stringIcNS_11char_traitsIcEENS_9allocatorIcEEEEEEEEvE6__callB8ue170006ERKSA_, symObjAddr: 0x48BC, symBinAddr: 0x10000B3E0, symSize: 0x38 }
  - { offsetInCU: 0x15534, offset: 0x28196, size: 0x8, addend: 0x0, symName: __ZNKSt3__116reverse_iteratorINS0_IPNS_12basic_stringIcNS_11char_traitsIcEENS_9allocatorIcEEEEEEEptB8ue170006Ev, symObjAddr: 0x48F4, symBinAddr: 0x10000B418, symSize: 0x24 }
  - { offsetInCU: 0x1555A, offset: 0x281BC, size: 0x8, addend: 0x0, symName: __ZNKSt3__116reverse_iteratorINS0_IPNS_12basic_stringIcNS_11char_traitsIcEENS_9allocatorIcEEEEEEEdeB8ue170006Ev, symObjAddr: 0x4918, symBinAddr: 0x10000B43C, symSize: 0x34 }
  - { offsetInCU: 0x1558E, offset: 0x281F0, size: 0x8, addend: 0x0, symName: __ZNSt3__116reverse_iteratorIPNS_12basic_stringIcNS_11char_traitsIcEENS_9allocatorIcEEEEEmmB8ue170006Ev, symObjAddr: 0x494C, symBinAddr: 0x10000B470, symSize: 0x20 }
  - { offsetInCU: 0x155B4, offset: 0x28216, size: 0x8, addend: 0x0, symName: __ZNSt3__116reverse_iteratorINS0_IPNS_12basic_stringIcNS_11char_traitsIcEENS_9allocatorIcEEEEEEEC2B8ue170006ES8_, symObjAddr: 0x496C, symBinAddr: 0x10000B490, symSize: 0x2C }
  - { offsetInCU: 0x155EC, offset: 0x2824E, size: 0x8, addend: 0x0, symName: __ZNSt3__116reverse_iteratorIPNS_12basic_stringIcNS_11char_traitsIcEENS_9allocatorIcEEEEEC2B8ue170006ES7_, symObjAddr: 0x4998, symBinAddr: 0x10000B4BC, symSize: 0x28 }
  - { offsetInCU: 0x15624, offset: 0x28286, size: 0x8, addend: 0x0, symName: __ZNSt3__114__split_bufferINS_12basic_stringIcNS_11char_traitsIcEENS_9allocatorIcEEEERNS4_IS6_EEED2Ev, symObjAddr: 0x49C0, symBinAddr: 0x10000B4E4, symSize: 0x8C }
  - { offsetInCU: 0x15650, offset: 0x282B2, size: 0x8, addend: 0x0, symName: __ZNSt3__114__split_bufferINS_12basic_stringIcNS_11char_traitsIcEENS_9allocatorIcEEEERNS4_IS6_EEE5clearB8ue170006Ev, symObjAddr: 0x4A4C, symBinAddr: 0x10000B570, symSize: 0x28 }
  - { offsetInCU: 0x15676, offset: 0x282D8, size: 0x8, addend: 0x0, symName: __ZNKSt3__114__split_bufferINS_12basic_stringIcNS_11char_traitsIcEENS_9allocatorIcEEEERNS4_IS6_EEE8capacityB8ue170006Ev, symObjAddr: 0x4A74, symBinAddr: 0x10000B598, symSize: 0x40 }
  - { offsetInCU: 0x1569C, offset: 0x282FE, size: 0x8, addend: 0x0, symName: __ZNSt3__114__split_bufferINS_12basic_stringIcNS_11char_traitsIcEENS_9allocatorIcEEEERNS4_IS6_EEE17__destruct_at_endB8ue170006EPS6_, symObjAddr: 0x4AB4, symBinAddr: 0x10000B5D8, symSize: 0x2C }
  - { offsetInCU: 0x156D0, offset: 0x28332, size: 0x8, addend: 0x0, symName: __ZNSt3__114__split_bufferINS_12basic_stringIcNS_11char_traitsIcEENS_9allocatorIcEEEERNS4_IS6_EEE17__destruct_at_endB8ue170006EPS6_NS_17integral_constantIbLb0EEE, symObjAddr: 0x4AE0, symBinAddr: 0x10000B604, symSize: 0x80 }
  - { offsetInCU: 0x15711, offset: 0x28373, size: 0x8, addend: 0x0, symName: __ZNKSt3__114__split_bufferINS_12basic_stringIcNS_11char_traitsIcEENS_9allocatorIcEEEERNS4_IS6_EEE9__end_capB8ue170006Ev, symObjAddr: 0x4B60, symBinAddr: 0x10000B684, symSize: 0x28 }
  - { offsetInCU: 0x15737, offset: 0x28399, size: 0x8, addend: 0x0, symName: __ZNKSt3__117__compressed_pairIPNS_12basic_stringIcNS_11char_traitsIcEENS_9allocatorIcEEEERNS4_IS6_EEE5firstB8ue170006Ev, symObjAddr: 0x4B88, symBinAddr: 0x10000B6AC, symSize: 0x24 }
  - { offsetInCU: 0x1575D, offset: 0x283BF, size: 0x8, addend: 0x0, symName: __ZNSt3__16vectorINS_12basic_stringIcNS_11char_traitsIcEENS_9allocatorIcEEEENS4_IS6_EEE11__make_iterB8ue170006EPS6_, symObjAddr: 0x4BAC, symBinAddr: 0x10000B6D0, symSize: 0x30 }
  - { offsetInCU: 0x15792, offset: 0x283F4, size: 0x8, addend: 0x0, symName: __ZNSt3__111__wrap_iterIPNS_12basic_stringIcNS_11char_traitsIcEENS_9allocatorIcEEEEEC1B8ue170006ES7_, symObjAddr: 0x4BDC, symBinAddr: 0x10000B700, symSize: 0x34 }
  - { offsetInCU: 0x157CA, offset: 0x2842C, size: 0x8, addend: 0x0, symName: __ZNSt3__111__wrap_iterIPNS_12basic_stringIcNS_11char_traitsIcEENS_9allocatorIcEEEEEC2B8ue170006ES7_, symObjAddr: 0x4C10, symBinAddr: 0x10000B734, symSize: 0x20 }
  - { offsetInCU: 0x4F, offset: 0x285B3, size: 0x8, addend: 0x0, symName: __ZN5boost4asio5errorL15system_categoryE, symObjAddr: 0xBB580, symBinAddr: 0x1000B0238, symSize: 0x0 }
  - { offsetInCU: 0x69, offset: 0x285CD, size: 0x8, addend: 0x0, symName: __ZN5boost4asio5errorL14netdb_categoryE, symObjAddr: 0xBB588, symBinAddr: 0x1000B0240, symSize: 0x0 }
  - { offsetInCU: 0x83, offset: 0x285E7, size: 0x8, addend: 0x0, symName: __ZN5boost4asio5errorL17addrinfo_categoryE, symObjAddr: 0xBB590, symBinAddr: 0x1000B0248, symSize: 0x0 }
  - { offsetInCU: 0x9D, offset: 0x28601, size: 0x8, addend: 0x0, symName: __ZN5boost4asio5errorL13misc_categoryE, symObjAddr: 0xBB598, symBinAddr: 0x1000B0250, symSize: 0x0 }
  - { offsetInCU: 0x5050, offset: 0x2D5B4, size: 0x8, addend: 0x0, symName: __ZNSt3__119piecewise_constructE, symObjAddr: 0x10D6D, symBinAddr: 0x1000A343D, symSize: 0x0 }
  - { offsetInCU: 0x11018, offset: 0x3957C, size: 0x8, addend: 0x0, symName: __ZNSt3__1neB8ue170006IPP6EntityEEbRKNS_11__wrap_iterIT_EES8_, symObjAddr: 0xD80, symBinAddr: 0x10000C3C4, symSize: 0x34 }
  - { offsetInCU: 0x1105C, offset: 0x395C0, size: 0x8, addend: 0x0, symName: __ZNSt3__1plB8ue170006IcNS_11char_traitsIcEENS_9allocatorIcEEEENS_12basic_stringIT_T0_T1_EERKS9_OS9_, symObjAddr: 0xE20, symBinAddr: 0x10000C430, symSize: 0x44 }
  - { offsetInCU: 0x11199, offset: 0x396FD, size: 0x8, addend: 0x0, symName: __ZNSt3__16removeB8ue170006INS_11__wrap_iterIPP6EntityEEDnEET_S6_S6_RKT0_, symObjAddr: 0x4AC8, symBinAddr: 0x100010080, symSize: 0x100 }
  - { offsetInCU: 0x1121A, offset: 0x3977E, size: 0x8, addend: 0x0, symName: __ZNSt3__1eqB8ue170006IPP6EntityEEbRKNS_11__wrap_iterIT_EES8_, symObjAddr: 0x5E60, symBinAddr: 0x10001031C, symSize: 0x48 }
  - { offsetInCU: 0x1125E, offset: 0x397C2, size: 0x8, addend: 0x0, symName: __ZNSt3__1eqB8ue170006ERKNS_19__hash_map_iteratorINS_15__hash_iteratorIPNS_11__hash_nodeINS_17__hash_value_typeINS_12basic_stringIcNS_11char_traitsIcEENS_9allocatorIcEEEEP11SDL_TextureEEPvEEEEEESJ_, symObjAddr: 0x5FAC, symBinAddr: 0x1000103BC, symSize: 0x30 }
  - { offsetInCU: 0x1129C, offset: 0x39800, size: 0x8, addend: 0x0, symName: __ZNSt3__1eqB8ue170006ERKNS_15__hash_iteratorIPNS_11__hash_nodeINS_17__hash_value_typeINS_12basic_stringIcNS_11char_traitsIcEENS_9allocatorIcEEEEP11SDL_TextureEEPvEEEESH_, symObjAddr: 0x6224, symBinAddr: 0x1000104E4, symSize: 0x30 }
  - { offsetInCU: 0x112D8, offset: 0x3983C, size: 0x8, addend: 0x0, symName: __ZNSt3__116__constrain_hashB8ue170006Emm, symObjAddr: 0x64B4, symBinAddr: 0x100010774, symSize: 0x98 }
  - { offsetInCU: 0x11313, offset: 0x39877, size: 0x8, addend: 0x0, symName: __ZNSt3__116__do_string_hashB8ue170006IPKcEEmT_S3_, symObjAddr: 0x6728, symBinAddr: 0x1000109E8, symSize: 0x3C }
  - { offsetInCU: 0x11359, offset: 0x398BD, size: 0x8, addend: 0x0, symName: __ZNSt3__110__loadwordB8ue170006ImEET_PKv, symObjAddr: 0x7170, symBinAddr: 0x1000113DC, symSize: 0x20 }
  - { offsetInCU: 0x1139D, offset: 0x39901, size: 0x8, addend: 0x0, symName: __ZNSt3__14swapB8ue170006ImEENS_9enable_ifIXaasr21is_move_constructibleIT_EE5valuesr18is_move_assignableIS2_EE5valueEvE4typeERS2_S5_, symObjAddr: 0x732C, symBinAddr: 0x100011598, symSize: 0x3C }
  - { offsetInCU: 0x113F5, offset: 0x39959, size: 0x8, addend: 0x0, symName: __ZNSt3__110__loadwordB8ue170006IjEET_PKv, symObjAddr: 0x73BC, symBinAddr: 0x100011628, symSize: 0x20 }
  - { offsetInCU: 0x11439, offset: 0x3999D, size: 0x8, addend: 0x0, symName: __ZNSt3__1eqB8ue170006INS_9allocatorIcEEEEbRKNS_12basic_stringIcNS_11char_traitsIcEET_EES9_, symObjAddr: 0x7708, symBinAddr: 0x100011918, symSize: 0x148 }
  - { offsetInCU: 0x114B0, offset: 0x39A14, size: 0x8, addend: 0x0, symName: __ZNSt3__17launderB8ue170006IKNS_4pairIKNS_12basic_stringIcNS_11char_traitsIcEENS_9allocatorIcEEEEP11SDL_TextureEEEEPT_SE_, symObjAddr: 0x7884, symBinAddr: 0x100011A94, symSize: 0x24 }
  - { offsetInCU: 0x114E8, offset: 0x39A4C, size: 0x8, addend: 0x0, symName: __ZNSt3__19__launderB8ue170006IKNS_4pairIKNS_12basic_stringIcNS_11char_traitsIcEENS_9allocatorIcEEEEP11SDL_TextureEEEEPT_SE_, symObjAddr: 0x78A8, symBinAddr: 0x100011AB8, symSize: 0x14 }
  - { offsetInCU: 0x1158A, offset: 0x39AEE, size: 0x8, addend: 0x0, symName: __ZNSt3__116forward_as_tupleB8ue170006IJRKNS_12basic_stringIcNS_11char_traitsIcEENS_9allocatorIcEEEEEEENS_5tupleIJDpOT_EEESC_, symObjAddr: 0x8818, symBinAddr: 0x100011FD8, symSize: 0x2C }
  - { offsetInCU: 0x115C4, offset: 0x39B28, size: 0x8, addend: 0x0, symName: __ZNSt3__116forward_as_tupleB8ue170006IJEEENS_5tupleIJDpOT_EEES4_, symObjAddr: 0x8844, symBinAddr: 0x100012004, symSize: 0x4 }
  - { offsetInCU: 0x115E8, offset: 0x39B4C, size: 0x8, addend: 0x0, symName: __ZNSt3__116__is_hash_power2B8ue170006Em, symObjAddr: 0x8A94, symBinAddr: 0x100012228, symSize: 0x50 }
  - { offsetInCU: 0x1163F, offset: 0x39BA3, size: 0x8, addend: 0x0, symName: __ZNSt3__13getB8ue170006ILm0EJRKNS_12basic_stringIcNS_11char_traitsIcEENS_9allocatorIcEEEEEEERNS_13tuple_elementIXT_ENS_5tupleIJDpT0_EEEE4typeERSD_, symObjAddr: 0x91C8, symBinAddr: 0x100012858, symSize: 0x24 }
  - { offsetInCU: 0x11682, offset: 0x39BE6, size: 0x8, addend: 0x0, symName: __ZNSt3__116__next_hash_pow2B8ue170006Em, symObjAddr: 0x96E0, symBinAddr: 0x100012D70, symSize: 0x6C }
  - { offsetInCU: 0x116AF, offset: 0x39C13, size: 0x8, addend: 0x0, symName: __ZNSt3__112__libcpp_clzB8ue170006Em, symObjAddr: 0x9B90, symBinAddr: 0x100013118, symSize: 0x1C }
  - { offsetInCU: 0x1173B, offset: 0x39C9F, size: 0x8, addend: 0x0, symName: __ZNSt3__17launderB8ue170006INS_4pairIKNS_12basic_stringIcNS_11char_traitsIcEENS_9allocatorIcEEEEP11SDL_TextureEEEEPT_SD_, symObjAddr: 0xA02C, symBinAddr: 0x10001352C, symSize: 0x24 }
  - { offsetInCU: 0x11773, offset: 0x39CD7, size: 0x8, addend: 0x0, symName: __ZNSt3__19__launderB8ue170006INS_4pairIKNS_12basic_stringIcNS_11char_traitsIcEENS_9allocatorIcEEEEP11SDL_TextureEEEEPT_SD_, symObjAddr: 0xA050, symBinAddr: 0x100013550, symSize: 0x14 }
  - { offsetInCU: 0x117A9, offset: 0x39D0D, size: 0x8, addend: 0x0, symName: __ZNSt3__122__make_exception_guardB8ue170006INS_6vectorINS_12basic_stringIcNS_11char_traitsIcEENS_9allocatorIcEEEENS5_IS7_EEE16__destroy_vectorEEENS_28__exception_guard_exceptionsIT_EESC_, symObjAddr: 0xBC50, symBinAddr: 0x1000139B4, symSize: 0x40 }
  - { offsetInCU: 0x117DF, offset: 0x39D43, size: 0x8, addend: 0x0, symName: __ZNSt3__130__uninitialized_allocator_copyB8ue170006INS_9allocatorINS_12basic_stringIcNS_11char_traitsIcEENS1_IcEEEEEEPKS6_S9_PS6_EET2_RT_T0_T1_SB_, symObjAddr: 0xC360, symBinAddr: 0x100013C2C, symSize: 0x80 }
  - { offsetInCU: 0x1187E, offset: 0x39DE2, size: 0x8, addend: 0x0, symName: __ZNSt3__114__unwrap_rangeB8ue170006IPKNS_12basic_stringIcNS_11char_traitsIcEENS_9allocatorIcEEEES8_EENS_4pairIT0_SA_EET_SC_, symObjAddr: 0xC458, symBinAddr: 0x100013CAC, symSize: 0x60 }
  - { offsetInCU: 0x118D1, offset: 0x39E35, size: 0x8, addend: 0x0, symName: __ZNSt3__135__uninitialized_allocator_copy_implB8ue170006INS_9allocatorINS_12basic_stringIcNS_11char_traitsIcEENS1_IcEEEEEEPKS6_S9_PS6_EET2_RT_T0_T1_SB_, symObjAddr: 0xC4B8, symBinAddr: 0x100013D0C, symSize: 0xF4 }
  - { offsetInCU: 0x11971, offset: 0x39ED5, size: 0x8, addend: 0x0, symName: __ZNSt3__113__unwrap_iterB8ue170006IPNS_12basic_stringIcNS_11char_traitsIcEENS_9allocatorIcEEEENS_18__unwrap_iter_implIS7_Lb1EEELi0EEEDTclsrT0_8__unwrapclsr3stdE7declvalIT_EEEESB_, symObjAddr: 0xC5AC, symBinAddr: 0x100013E00, symSize: 0x24 }
  - { offsetInCU: 0x119B9, offset: 0x39F1D, size: 0x8, addend: 0x0, symName: __ZNSt3__113__rewrap_iterB8ue170006IPNS_12basic_stringIcNS_11char_traitsIcEENS_9allocatorIcEEEES7_NS_18__unwrap_iter_implIS7_Lb1EEEEET_SA_T0_, symObjAddr: 0xC5D0, symBinAddr: 0x100013E24, symSize: 0x3C }
  - { offsetInCU: 0x11A15, offset: 0x39F79, size: 0x8, addend: 0x0, symName: __ZNSt3__19make_pairB8ue170006IPKNS_12basic_stringIcNS_11char_traitsIcEENS_9allocatorIcEEEES8_EENS_4pairINS_18__unwrap_ref_decayIT_E4typeENSA_IT0_E4typeEEEOSB_OSE_, symObjAddr: 0xC60C, symBinAddr: 0x100013E60, symSize: 0x38 }
  - { offsetInCU: 0x11A64, offset: 0x39FC8, size: 0x8, addend: 0x0, symName: __ZNSt3__113__unwrap_iterB8ue170006IPKNS_12basic_stringIcNS_11char_traitsIcEENS_9allocatorIcEEEENS_18__unwrap_iter_implIS8_Lb1EEELi0EEEDTclsrT0_8__unwrapclsr3stdE7declvalIT_EEEESC_, symObjAddr: 0xC644, symBinAddr: 0x100013E98, symSize: 0x24 }
  - { offsetInCU: 0x11BDB, offset: 0x3A13F, size: 0x8, addend: 0x0, symName: __ZNSt3__112__to_addressB8ue170006IKNS_12basic_stringIcNS_11char_traitsIcEENS_9allocatorIcEEEEEEPT_S9_, symObjAddr: 0xC6FC, symBinAddr: 0x100013F50, symSize: 0x14 }
  - { offsetInCU: 0x11C10, offset: 0x3A174, size: 0x8, addend: 0x0, symName: __ZNSt3__122__make_exception_guardB8ue170006INS_29_AllocatorDestroyRangeReverseINS_9allocatorINS_12basic_stringIcNS_11char_traitsIcEENS2_IcEEEEEEPS7_EEEENS_28__exception_guard_exceptionsIT_EESC_, symObjAddr: 0xC710, symBinAddr: 0x100013F64, symSize: 0x4C }
  - { offsetInCU: 0x11C47, offset: 0x3A1AB, size: 0x8, addend: 0x0, symName: __ZNSt3__119__allocator_destroyB8ue170006INS_9allocatorINS_12basic_stringIcNS_11char_traitsIcEENS1_IcEEEEEENS_16reverse_iteratorIPS6_EESA_EEvRT_T0_T1_, symObjAddr: 0xC9A0, symBinAddr: 0x1000141F4, symSize: 0x70 }
  - { offsetInCU: 0x11D05, offset: 0x3A269, size: 0x8, addend: 0x0, symName: __ZNSt3__112__to_addressB8ue170006IP6EntityEEPT_S4_, symObjAddr: 0xCED8, symBinAddr: 0x100014588, symSize: 0x14 }
  - { offsetInCU: 0x11D3A, offset: 0x3A29E, size: 0x8, addend: 0x0, symName: __ZNSt3__119__allocate_at_leastB8ue170006INS_9allocatorIP6EntityEEEENS_19__allocation_resultINS_16allocator_traitsIT_E7pointerEEERS7_m, symObjAddr: 0xD4D4, symBinAddr: 0x100014B84, symSize: 0x40 }
  - { offsetInCU: 0x11D84, offset: 0x3A2E8, size: 0x8, addend: 0x0, symName: __ZNSt3__142__uninitialized_allocator_move_if_noexceptB8ue170006INS_9allocatorIP6EntityEENS_16reverse_iteratorIPS3_EES7_S3_vEET1_RT_T0_SB_S8_, symObjAddr: 0xD75C, symBinAddr: 0x100014E0C, symSize: 0x78 }
  - { offsetInCU: 0x11E04, offset: 0x3A368, size: 0x8, addend: 0x0, symName: __ZNSt3__14swapB8ue170006IPP6EntityEENS_9enable_ifIXaasr21is_move_constructibleIT_EE5valuesr18is_move_assignableIS5_EE5valueEvE4typeERS5_S8_, symObjAddr: 0xD820, symBinAddr: 0x100014ED0, symSize: 0x3C }
  - { offsetInCU: 0x11E5C, offset: 0x3A3C0, size: 0x8, addend: 0x0, symName: __ZNSt3__14moveB8ue170006INS_16reverse_iteratorIPP6EntityEES5_EET0_T_S7_S6_, symObjAddr: 0xD950, symBinAddr: 0x100015000, symSize: 0x78 }
  - { offsetInCU: 0x11EBE, offset: 0x3A422, size: 0x8, addend: 0x0, symName: __ZNSt3__16__moveB8ue170006INS_17_ClassicAlgPolicyENS_16reverse_iteratorIPP6EntityEES6_S6_EENS_4pairIT0_T2_EES8_T1_S9_, symObjAddr: 0xD9C8, symBinAddr: 0x100015078, symSize: 0x64 }
  - { offsetInCU: 0x11F32, offset: 0x3A496, size: 0x8, addend: 0x0, symName: __ZNSt3__123__dispatch_copy_or_moveB8ue170006INS_17_ClassicAlgPolicyENS_11__move_loopIS1_EENS_14__move_trivialENS_16reverse_iteratorIPP6EntityEES9_S9_EENS_4pairIT2_T4_EESB_T3_SC_, symObjAddr: 0xDA2C, symBinAddr: 0x1000150DC, symSize: 0x64 }
  - { offsetInCU: 0x11FB8, offset: 0x3A51C, size: 0x8, addend: 0x0, symName: __ZNSt3__121__unwrap_and_dispatchB8ue170006INS_10__overloadINS_11__move_loopINS_17_ClassicAlgPolicyEEENS_14__move_trivialEEENS_16reverse_iteratorIPP6EntityEESB_SB_Li0EEENS_4pairIT0_T2_EESD_T1_SE_, symObjAddr: 0xDA90, symBinAddr: 0x100015140, symSize: 0x12C }
  - { offsetInCU: 0x12054, offset: 0x3A5B8, size: 0x8, addend: 0x0, symName: __ZNSt3__114__unwrap_rangeB8ue170006INS_16reverse_iteratorIPP6EntityEES5_EENS_4pairIT0_S7_EET_S9_, symObjAddr: 0xDBBC, symBinAddr: 0x10001526C, symSize: 0x84 }
  - { offsetInCU: 0x121D0, offset: 0x3A734, size: 0x8, addend: 0x0, symName: __ZNSt3__113__unwrap_iterB8ue170006INS_16reverse_iteratorIPP6EntityEENS_18__unwrap_iter_implIS5_Lb0EEELi0EEEDTclsrT0_8__unwrapclsr3stdE7declvalIT_EEEES9_, symObjAddr: 0xDCE0, symBinAddr: 0x100015390, symSize: 0x44 }
  - { offsetInCU: 0x12219, offset: 0x3A77D, size: 0x8, addend: 0x0, symName: __ZNSt3__19make_pairB8ue170006INS_16reverse_iteratorIPP6EntityEES5_EENS_4pairINS_18__unwrap_ref_decayIT_E4typeENS7_IT0_E4typeEEEOS8_OSB_, symObjAddr: 0xDD24, symBinAddr: 0x1000153D4, symSize: 0x38 }
  - { offsetInCU: 0x12268, offset: 0x3A7CC, size: 0x8, addend: 0x0, symName: __ZNSt3__114__rewrap_rangeB8ue170006INS_16reverse_iteratorIPP6EntityEES5_EET_S6_T0_, symObjAddr: 0xDD5C, symBinAddr: 0x10001540C, symSize: 0x5C }
  - { offsetInCU: 0x122BA, offset: 0x3A81E, size: 0x8, addend: 0x0, symName: __ZNSt3__113__rewrap_iterB8ue170006INS_16reverse_iteratorIPP6EntityEES5_NS_18__unwrap_iter_implIS5_Lb0EEEEET_S8_T0_, symObjAddr: 0xDDB8, symBinAddr: 0x100015468, symSize: 0x74 }
  - { offsetInCU: 0x12315, offset: 0x3A879, size: 0x8, addend: 0x0, symName: __ZNSt3__1neB8ue170006IPP6EntityS3_EEbRKNS_16reverse_iteratorIT_EERKNS4_IT0_EE, symObjAddr: 0xDE2C, symBinAddr: 0x1000154DC, symSize: 0x48 }
  - { offsetInCU: 0x1244B, offset: 0x3A9AF, size: 0x8, addend: 0x0, symName: __ZNSt3__113__countl_zeroB8ue170006IjEEiT_, symObjAddr: 0xE63C, symBinAddr: 0x100015CEC, symSize: 0x54 }
  - { offsetInCU: 0x12485, offset: 0x3A9E9, size: 0x8, addend: 0x0, symName: __ZNSt3__112__libcpp_clzB8ue170006Ej, symObjAddr: 0xEAD4, symBinAddr: 0x100016184, symSize: 0x18 }
  - { offsetInCU: 0x124B4, offset: 0x3AA18, size: 0x8, addend: 0x0, symName: __ZNSt3__14findB8ue170006INS_11__wrap_iterIPP6EntityEEDnEET_S6_S6_RKT0_, symObjAddr: 0xEAF4, symBinAddr: 0x1000161A4, symSize: 0x78 }
  - { offsetInCU: 0x12526, offset: 0x3AA8A, size: 0x8, addend: 0x0, symName: __ZNSt3__113__rewrap_iterB8ue170006INS_11__wrap_iterIPP6EntityEES4_NS_18__unwrap_iter_implIS5_Lb1EEEEET_S8_T0_, symObjAddr: 0xEB6C, symBinAddr: 0x10001621C, symSize: 0x4C }
  - { offsetInCU: 0x12581, offset: 0x3AAE5, size: 0x8, addend: 0x0, symName: __ZNSt3__111__find_implB8ue170006IPP6EntityS3_DnNS_10__identityEEET_S5_T0_RKT1_RT2_, symObjAddr: 0xEBB8, symBinAddr: 0x100016268, symSize: 0x80 }
  - { offsetInCU: 0x12605, offset: 0x3AB69, size: 0x8, addend: 0x0, symName: __ZNSt3__113__unwrap_iterB8ue170006INS_11__wrap_iterIPP6EntityEENS_18__unwrap_iter_implIS5_Lb1EEELi0EEEDTclsrT0_8__unwrapclsr3stdE7declvalIT_EEEES9_, symObjAddr: 0xEC38, symBinAddr: 0x1000162E8, symSize: 0x2C }
  - { offsetInCU: 0x126A8, offset: 0x3AC0C, size: 0x8, addend: 0x0, symName: __ZNSt3__112__to_addressB8ue170006INS_11__wrap_iterIPP6EntityEEvEEu7__decayIDTclsr19__to_address_helperIT_EE6__callclsr3stdE7declvalIRKS6_EEEEES8_, symObjAddr: 0xECFC, symBinAddr: 0x1000163AC, symSize: 0x24 }
  - { offsetInCU: 0x12786, offset: 0x3ACEA, size: 0x8, addend: 0x0, symName: __ZNSt3__18__invokeB8ue170006IRNS_10__identityEJRP6EntityEEEDTclclsr3stdE7declvalIT_EEspclsr3stdE7declvalIT0_EEEEOS6_DpOS7_, symObjAddr: 0xEDA4, symBinAddr: 0x100016454, symSize: 0x2C }
  - { offsetInCU: 0x1280D, offset: 0x3AD71, size: 0x8, addend: 0x0, symName: __ZNSt3__1miB8ue170006IPKP6EntityPS2_EEDTmicldtfp_4baseEcldtfp0_4baseEERKNS_11__wrap_iterIT_EERKNS7_IT0_EE, symObjAddr: 0xEE10, symBinAddr: 0x1000164C0, symSize: 0x48 }
  - { offsetInCU: 0x12859, offset: 0x3ADBD, size: 0x8, addend: 0x0, symName: __ZNSt3__1neB8ue170006IPKP6EntityEEbRKNS_11__wrap_iterIT_EES9_, symObjAddr: 0xEE58, symBinAddr: 0x100016508, symSize: 0x34 }
  - { offsetInCU: 0x1289C, offset: 0x3AE00, size: 0x8, addend: 0x0, symName: __ZNSt3__14moveB8ue170006IPP6EntityS3_EET0_T_S5_S4_, symObjAddr: 0xEED8, symBinAddr: 0x100016588, symSize: 0x40 }
  - { offsetInCU: 0x128FE, offset: 0x3AE62, size: 0x8, addend: 0x0, symName: __ZNSt3__1miB8ue170006IPKP6EntityS4_EEDTmicldtfp_4baseEcldtfp0_4baseEERKNS_11__wrap_iterIT_EERKNS6_IT0_EE, symObjAddr: 0xEF18, symBinAddr: 0x1000165C8, symSize: 0x48 }
  - { offsetInCU: 0x1294A, offset: 0x3AEAE, size: 0x8, addend: 0x0, symName: __ZNSt3__1eqB8ue170006IPKP6EntityEEbRKNS_11__wrap_iterIT_EES9_, symObjAddr: 0xEF78, symBinAddr: 0x100016628, symSize: 0x48 }
  - { offsetInCU: 0x1298D, offset: 0x3AEF1, size: 0x8, addend: 0x0, symName: __ZNSt3__16__moveB8ue170006INS_17_ClassicAlgPolicyEPP6EntityS4_S4_EENS_4pairIT0_T2_EES6_T1_S7_, symObjAddr: 0xF100, symBinAddr: 0x1000167B0, symSize: 0x44 }
  - { offsetInCU: 0x12A01, offset: 0x3AF65, size: 0x8, addend: 0x0, symName: __ZNSt3__123__dispatch_copy_or_moveB8ue170006INS_17_ClassicAlgPolicyENS_11__move_loopIS1_EENS_14__move_trivialEPP6EntityS7_S7_EENS_4pairIT2_T4_EES9_T3_SA_, symObjAddr: 0xF144, symBinAddr: 0x1000167F4, symSize: 0x44 }
  - { offsetInCU: 0x12A87, offset: 0x3AFEB, size: 0x8, addend: 0x0, symName: __ZNSt3__121__unwrap_and_dispatchB8ue170006INS_10__overloadINS_11__move_loopINS_17_ClassicAlgPolicyEEENS_14__move_trivialEEEPP6EntityS9_S9_Li0EEENS_4pairIT0_T2_EESB_T1_SC_, symObjAddr: 0xF188, symBinAddr: 0x100016838, symSize: 0xB4 }
  - { offsetInCU: 0x12B21, offset: 0x3B085, size: 0x8, addend: 0x0, symName: __ZNSt3__114__unwrap_rangeB8ue170006IPP6EntityS3_EENS_4pairIT0_S5_EET_S7_, symObjAddr: 0xF23C, symBinAddr: 0x1000168EC, symSize: 0x60 }
  - { offsetInCU: 0x12CC0, offset: 0x3B224, size: 0x8, addend: 0x0, symName: __ZNSt3__113__unwrap_iterB8ue170006IPP6EntityNS_18__unwrap_iter_implIS3_Lb1EEELi0EEEDTclsrT0_8__unwrapclsr3stdE7declvalIT_EEEES7_, symObjAddr: 0xF2E4, symBinAddr: 0x100016994, symSize: 0x24 }
  - { offsetInCU: 0x12D09, offset: 0x3B26D, size: 0x8, addend: 0x0, symName: __ZNSt3__19make_pairB8ue170006IPP6EntityS3_EENS_4pairINS_18__unwrap_ref_decayIT_E4typeENS5_IT0_E4typeEEEOS6_OS9_, symObjAddr: 0xF308, symBinAddr: 0x1000169B8, symSize: 0x38 }
  - { offsetInCU: 0x12D58, offset: 0x3B2BC, size: 0x8, addend: 0x0, symName: __ZNSt3__114__rewrap_rangeB8ue170006IPP6EntityS3_EET_S4_T0_, symObjAddr: 0xF340, symBinAddr: 0x1000169F0, symSize: 0x2C }
  - { offsetInCU: 0x12DAA, offset: 0x3B30E, size: 0x8, addend: 0x0, symName: __ZNSt3__113__rewrap_iterB8ue170006IPP6EntityS3_NS_18__unwrap_iter_implIS3_Lb1EEEEET_S6_T0_, symObjAddr: 0xF36C, symBinAddr: 0x100016A1C, symSize: 0x3C }
  - { offsetInCU: 0x12E05, offset: 0x3B369, size: 0x8, addend: 0x0, symName: __ZNSt3__119__copy_trivial_implB8ue170006IP6EntityS2_EENS_4pairIPT_PT0_EES5_S5_S7_, symObjAddr: 0xF3A8, symBinAddr: 0x100016A58, symSize: 0x80 }
  - { offsetInCU: 0x12E77, offset: 0x3B3DB, size: 0x8, addend: 0x0, symName: __ZNSt3__119__constexpr_memmoveB8ue170006IP6EntityS2_Li0EEEPT_S4_PT0_NS_15__element_countE, symObjAddr: 0xF428, symBinAddr: 0x100016AD8, symSize: 0x64 }
  - { offsetInCU: 0x12EE6, offset: 0x3B44A, size: 0x8, addend: 0x0, symName: __ZNSt3__19make_pairB8ue170006IRPP6EntityS3_EENS_4pairINS_18__unwrap_ref_decayIT_E4typeENS6_IT0_E4typeEEEOS7_OSA_, symObjAddr: 0xF48C, symBinAddr: 0x100016B3C, symSize: 0x38 }
  - { offsetInCU: 0x1548C, offset: 0x3D9F0, size: 0x8, addend: 0x0, symName: __ZNSt3__16vectorIP6EntityNS_9allocatorIS2_EEE26__swap_out_circular_bufferERNS_14__split_bufferIS2_RS4_EE, symObjAddr: 0xD0D4, symBinAddr: 0x100014784, symSize: 0x110 }
  - { offsetInCU: 0x154E8, offset: 0x3DA4C, size: 0x8, addend: 0x0, symName: __ZNSt3__124uniform_int_distributionIiEclINS_23mersenne_twister_engineIjLm32ELm624ELm397ELm31ELj2567483615ELm11ELj4294967295ELm7ELj2636928640ELm15ELj4022730752ELm18ELj1812433253EEEEEiRT_RKNS1_10param_typeE, symObjAddr: 0xE424, symBinAddr: 0x100015AD4, symSize: 0x188 }
  - { offsetInCU: 0x17690, offset: 0x3FBF4, size: 0x8, addend: 0x0, symName: __ZN13EntityManagerC2Ev, symObjAddr: 0x38, symBinAddr: 0x10000B754, symSize: 0x48 }
  - { offsetInCU: 0x176BC, offset: 0x3FC20, size: 0x8, addend: 0x0, symName: __ZN13EntityManagerC1Ev, symObjAddr: 0x14C, symBinAddr: 0x10000B79C, symSize: 0x2C }
  - { offsetInCU: 0x176E8, offset: 0x3FC4C, size: 0x8, addend: 0x0, symName: __ZN13EntityManagerD2Ev, symObjAddr: 0x178, symBinAddr: 0x10000B7C8, symSize: 0x5C }
  - { offsetInCU: 0x17714, offset: 0x3FC78, size: 0x8, addend: 0x0, symName: __ZN13EntityManagerD1Ev, symObjAddr: 0x1E0, symBinAddr: 0x10000B824, symSize: 0x2C }
  - { offsetInCU: 0x17740, offset: 0x3FCA4, size: 0x8, addend: 0x0, symName: __ZN13EntityManager20create_player_entityEP12SDL_RendererRNSt3__16vectorIP6EntityNS2_9allocatorIS5_EEEEiii, symObjAddr: 0x20C, symBinAddr: 0x10000B850, symSize: 0xB14 }
  - { offsetInCU: 0x17979, offset: 0x3FEDD, size: 0x8, addend: 0x0, symName: __ZNSt3__16vectorIP6EntityNS_9allocatorIS2_EEE5beginB8ue170006Ev, symObjAddr: 0xD20, symBinAddr: 0x10000C364, symSize: 0x30 }
  - { offsetInCU: 0x179A1, offset: 0x3FF05, size: 0x8, addend: 0x0, symName: __ZNSt3__16vectorIP6EntityNS_9allocatorIS2_EEE3endB8ue170006Ev, symObjAddr: 0xD50, symBinAddr: 0x10000C394, symSize: 0x30 }
  - { offsetInCU: 0x179C9, offset: 0x3FF2D, size: 0x8, addend: 0x0, symName: __ZNKSt3__111__wrap_iterIPP6EntityEdeB8ue170006Ev, symObjAddr: 0xDB4, symBinAddr: 0x10000C3F8, symSize: 0x18 }
  - { offsetInCU: 0x179EF, offset: 0x3FF53, size: 0x8, addend: 0x0, symName: __ZNSt3__111__wrap_iterIPP6EntityEppB8ue170006Ev, symObjAddr: 0xDCC, symBinAddr: 0x10000C410, symSize: 0x20 }
  - { offsetInCU: 0x17A1A, offset: 0x3FF7E, size: 0x8, addend: 0x0, symName: __ZNSt3__112basic_stringIcNS_11char_traitsIcEENS_9allocatorIcEEEaSB8ue170006EOS5_, symObjAddr: 0xE64, symBinAddr: 0x10000C474, symSize: 0x34 }
  - { offsetInCU: 0x17A4F, offset: 0x3FFB3, size: 0x8, addend: 0x0, symName: __ZNSt3__16vectorINS_12basic_stringIcNS_11char_traitsIcEENS_9allocatorIcEEEENS4_IS6_EEEC1B8ue170006ESt16initializer_listIS6_E, symObjAddr: 0xEC4, symBinAddr: 0x10000C4A8, symSize: 0x3C }
  - { offsetInCU: 0x17A8A, offset: 0x3FFEE, size: 0x8, addend: 0x0, symName: __ZN6Entity12set_rendererEP12SDL_Renderer, symObjAddr: 0xF2C, symBinAddr: 0x10000C4E4, symSize: 0x20 }
  - { offsetInCU: 0x17ABE, offset: 0x40022, size: 0x8, addend: 0x0, symName: __ZN6Entity9set_soundEv, symObjAddr: 0xF4C, symBinAddr: 0x10000C504, symSize: 0x9C }
  - { offsetInCU: 0x17AE4, offset: 0x40048, size: 0x8, addend: 0x0, symName: __ZNSt3__16vectorIP6EntityNS_9allocatorIS2_EEE9push_backB8ue170006EOS2_, symObjAddr: 0xFE8, symBinAddr: 0x10000C5A0, symSize: 0x6C }
  - { offsetInCU: 0x17B1B, offset: 0x4007F, size: 0x8, addend: 0x0, symName: __ZN13EntityManager17create_bot_entityEP12SDL_RendererRNSt3__16vectorIP6EntityNS2_9allocatorIS5_EEEEiii, symObjAddr: 0x1054, symBinAddr: 0x10000C60C, symSize: 0xC04 }
  - { offsetInCU: 0x17D63, offset: 0x402C7, size: 0x8, addend: 0x0, symName: __ZN13EntityManager24create_item_heart_entityEP12SDL_RendererRNSt3__16vectorIP6EntityNS2_9allocatorIS5_EEEEii, symObjAddr: 0x1C58, symBinAddr: 0x10000D210, symSize: 0x424 }
  - { offsetInCU: 0x17E4A, offset: 0x403AE, size: 0x8, addend: 0x0, symName: __ZN13EntityManager25create_random_item_entityEP12SDL_RendererRNSt3__16vectorIP6EntityNS2_9allocatorIS5_EEEEii, symObjAddr: 0x207C, symBinAddr: 0x10000D634, symSize: 0x10C4 }
  - { offsetInCU: 0x1806B, offset: 0x405CF, size: 0x8, addend: 0x0, symName: __ZNSt3__113random_deviceC1B8ue170006Ev, symObjAddr: 0x3140, symBinAddr: 0x10000E6F8, symSize: 0x74 }
  - { offsetInCU: 0x18095, offset: 0x405F9, size: 0x8, addend: 0x0, symName: __ZNSt3__123mersenne_twister_engineIjLm32ELm624ELm397ELm31ELj2567483615ELm11ELj4294967295ELm7ELj2636928640ELm15ELj4022730752ELm18ELj1812433253EEC1B8ue170006Ej, symObjAddr: 0x31B4, symBinAddr: 0x10000E76C, symSize: 0x34 }
  - { offsetInCU: 0x180CD, offset: 0x40631, size: 0x8, addend: 0x0, symName: __ZNSt3__124uniform_int_distributionIiEC1B8ue170006Eii, symObjAddr: 0x31E8, symBinAddr: 0x10000E7A0, symSize: 0x3C }
  - { offsetInCU: 0x18113, offset: 0x40677, size: 0x8, addend: 0x0, symName: __ZNSt3__124uniform_int_distributionIiEclB8ue170006INS_23mersenne_twister_engineIjLm32ELm624ELm397ELm31ELj2567483615ELm11ELj4294967295ELm7ELj2636928640ELm15ELj4022730752ELm18ELj1812433253EEEEEiRT_, symObjAddr: 0x3224, symBinAddr: 0x10000E7DC, symSize: 0x30 }
  - { offsetInCU: 0x18150, offset: 0x406B4, size: 0x8, addend: 0x0, symName: __ZNSt3__112basic_stringIcNS_11char_traitsIcEENS_9allocatorIcEEEC1B8ue170006Ev, symObjAddr: 0x3254, symBinAddr: 0x10000E80C, symSize: 0x2C }
  - { offsetInCU: 0x1817A, offset: 0x406DE, size: 0x8, addend: 0x0, symName: __ZNSt3__112basic_stringIcNS_11char_traitsIcEENS_9allocatorIcEEEaSB8ue170006EPKc, symObjAddr: 0x3280, symBinAddr: 0x10000E838, symSize: 0x2C }
  - { offsetInCU: 0x181AF, offset: 0x40713, size: 0x8, addend: 0x0, symName: __ZN13EntityManager26create_random_enemy_entityEP12SDL_RendererRNSt3__16vectorIP6EntityNS2_9allocatorIS5_EEEEii, symObjAddr: 0x32AC, symBinAddr: 0x10000E864, symSize: 0x7C4 }
  - { offsetInCU: 0x18336, offset: 0x4089A, size: 0x8, addend: 0x0, symName: __ZN13EntityManager29create_random_obstacle_entityEP12SDL_RendererRNSt3__16vectorIP6EntityNS2_9allocatorIS5_EEEEii, symObjAddr: 0x3A70, symBinAddr: 0x10000F028, symSize: 0xAF4 }
  - { offsetInCU: 0x184F7, offset: 0x40A5B, size: 0x8, addend: 0x0, symName: __ZN13EntityManager28random_procedural_generationEP12SDL_RendererRNSt3__16vectorIP6EntityNS2_9allocatorIS5_EEEEiiiii, symObjAddr: 0x4564, symBinAddr: 0x10000FB1C, symSize: 0x448 }
  - { offsetInCU: 0x186B0, offset: 0x40C14, size: 0x8, addend: 0x0, symName: __ZNKSt3__16vectorIP6EntityNS_9allocatorIS2_EEE4sizeB8ue170006Ev, symObjAddr: 0x49AC, symBinAddr: 0x10000FF64, symSize: 0x28 }
  - { offsetInCU: 0x186D6, offset: 0x40C3A, size: 0x8, addend: 0x0, symName: __ZNSt3__16vectorIP6EntityNS_9allocatorIS2_EEEixB8ue170006Em, symObjAddr: 0x49D4, symBinAddr: 0x10000FF8C, symSize: 0x24 }
  - { offsetInCU: 0x1870D, offset: 0x40C71, size: 0x8, addend: 0x0, symName: __ZNSt3__16vectorIP6EntityNS_9allocatorIS2_EEE5eraseENS_11__wrap_iterIPKS2_EES9_, symObjAddr: 0x49F8, symBinAddr: 0x10000FFB0, symSize: 0xD0 }
  - { offsetInCU: 0x1876D, offset: 0x40CD1, size: 0x8, addend: 0x0, symName: __ZNSt3__111__wrap_iterIPKP6EntityEC1B8ue170006IPS2_EERKNS0_IT_EEPNS_9enable_ifIXsr14is_convertibleIS8_S4_EE5valueEvE4typeE, symObjAddr: 0x4BC8, symBinAddr: 0x100010180, symSize: 0x3C }
  - { offsetInCU: 0x187B9, offset: 0x40D1D, size: 0x8, addend: 0x0, symName: __ZN6Entity16preload_texturesEv, symObjAddr: 0x4C04, symBinAddr: 0x1000101BC, symSize: 0x160 }
  - { offsetInCU: 0x18832, offset: 0x40D96, size: 0x8, addend: 0x0, symName: __ZNKSt3__111__wrap_iterIPP6EntityE4baseB8ue170006Ev, symObjAddr: 0x5EA8, symBinAddr: 0x100010364, symSize: 0x18 }
  - { offsetInCU: 0x18858, offset: 0x40DBC, size: 0x8, addend: 0x0, symName: __ZNSt3__111__wrap_iterIPKP6EntityEC2B8ue170006IPS2_EERKNS0_IT_EEPNS_9enable_ifIXsr14is_convertibleIS8_S4_EE5valueEvE4typeE, symObjAddr: 0x5EC0, symBinAddr: 0x10001037C, symSize: 0x40 }
  - { offsetInCU: 0x188A4, offset: 0x40E08, size: 0x8, addend: 0x0, symName: __ZNSt3__113unordered_mapINS_12basic_stringIcNS_11char_traitsIcEENS_9allocatorIcEEEEP11SDL_TextureNS_4hashIS6_EENS_8equal_toIS6_EENS4_INS_4pairIKS6_S8_EEEEE4findB8ue170006ERSE_, symObjAddr: 0x5FDC, symBinAddr: 0x1000103EC, symSize: 0x40 }
  - { offsetInCU: 0x188D9, offset: 0x40E3D, size: 0x8, addend: 0x0, symName: __ZNSt3__113unordered_mapINS_12basic_stringIcNS_11char_traitsIcEENS_9allocatorIcEEEEP11SDL_TextureNS_4hashIS6_EENS_8equal_toIS6_EENS4_INS_4pairIKS6_S8_EEEEE3endB8ue170006Ev, symObjAddr: 0x601C, symBinAddr: 0x10001042C, symSize: 0x38 }
  - { offsetInCU: 0x188FF, offset: 0x40E63, size: 0x8, addend: 0x0, symName: __ZNSt3__113unordered_mapINS_12basic_stringIcNS_11char_traitsIcEENS_9allocatorIcEEEEP11SDL_TextureNS_4hashIS6_EENS_8equal_toIS6_EENS4_INS_4pairIKS6_S8_EEEEEixERSE_, symObjAddr: 0x60A0, symBinAddr: 0x100010464, symSize: 0x80 }
  - { offsetInCU: 0x18936, offset: 0x40E9A, size: 0x8, addend: 0x0, symName: __ZNSt3__112__hash_tableINS_17__hash_value_typeINS_12basic_stringIcNS_11char_traitsIcEENS_9allocatorIcEEEEP11SDL_TextureEENS_22__unordered_map_hasherIS7_SA_NS_4hashIS7_EENS_8equal_toIS7_EELb1EEENS_21__unordered_map_equalIS7_SA_SF_SD_Lb1EEENS5_ISA_EEE4findIS7_EENS_15__hash_iteratorIPNS_11__hash_nodeISA_PvEEEERKT_, symObjAddr: 0x6254, symBinAddr: 0x100010514, symSize: 0x1B0 }
  - { offsetInCU: 0x189C5, offset: 0x40F29, size: 0x8, addend: 0x0, symName: __ZNSt3__119__hash_map_iteratorINS_15__hash_iteratorIPNS_11__hash_nodeINS_17__hash_value_typeINS_12basic_stringIcNS_11char_traitsIcEENS_9allocatorIcEEEEP11SDL_TextureEEPvEEEEEC1B8ue170006ESG_, symObjAddr: 0x6404, symBinAddr: 0x1000106C4, symSize: 0x34 }
  - { offsetInCU: 0x189FE, offset: 0x40F62, size: 0x8, addend: 0x0, symName: __ZNSt3__112__hash_tableINS_17__hash_value_typeINS_12basic_stringIcNS_11char_traitsIcEENS_9allocatorIcEEEEP11SDL_TextureEENS_22__unordered_map_hasherIS7_SA_NS_4hashIS7_EENS_8equal_toIS7_EELb1EEENS_21__unordered_map_equalIS7_SA_SF_SD_Lb1EEENS5_ISA_EEE13hash_functionB8ue170006Ev, symObjAddr: 0x6438, symBinAddr: 0x1000106F8, symSize: 0x28 }
  - { offsetInCU: 0x18A24, offset: 0x40F88, size: 0x8, addend: 0x0, symName: __ZNKSt3__122__unordered_map_hasherINS_12basic_stringIcNS_11char_traitsIcEENS_9allocatorIcEEEENS_17__hash_value_typeIS6_P11SDL_TextureEENS_4hashIS6_EENS_8equal_toIS6_EELb1EEclB8ue170006ERKS6_, symObjAddr: 0x6460, symBinAddr: 0x100010720, symSize: 0x2C }
  - { offsetInCU: 0x18A59, offset: 0x40FBD, size: 0x8, addend: 0x0, symName: __ZNKSt3__112__hash_tableINS_17__hash_value_typeINS_12basic_stringIcNS_11char_traitsIcEENS_9allocatorIcEEEEP11SDL_TextureEENS_22__unordered_map_hasherIS7_SA_NS_4hashIS7_EENS_8equal_toIS7_EELb1EEENS_21__unordered_map_equalIS7_SA_SF_SD_Lb1EEENS5_ISA_EEE12bucket_countB8ue170006Ev, symObjAddr: 0x648C, symBinAddr: 0x10001074C, symSize: 0x28 }
  - { offsetInCU: 0x18A7F, offset: 0x40FE3, size: 0x8, addend: 0x0, symName: __ZNKSt3__110unique_ptrIA_PNS_16__hash_node_baseIPNS_11__hash_nodeINS_17__hash_value_typeINS_12basic_stringIcNS_11char_traitsIcEENS_9allocatorIcEEEEP11SDL_TextureEEPvEEEENS_25__bucket_list_deallocatorINS7_ISH_EEEEEixB8ue170006Em, symObjAddr: 0x654C, symBinAddr: 0x10001080C, symSize: 0x34 }
  - { offsetInCU: 0x18AB4, offset: 0x41018, size: 0x8, addend: 0x0, symName: __ZNKSt3__116__hash_node_baseIPNS_11__hash_nodeINS_17__hash_value_typeINS_12basic_stringIcNS_11char_traitsIcEENS_9allocatorIcEEEEP11SDL_TextureEEPvEEE6__hashB8ue170006Ev, symObjAddr: 0x6580, symBinAddr: 0x100010840, symSize: 0x18 }
  - { offsetInCU: 0x18ADA, offset: 0x4103E, size: 0x8, addend: 0x0, symName: __ZNSt3__112__hash_tableINS_17__hash_value_typeINS_12basic_stringIcNS_11char_traitsIcEENS_9allocatorIcEEEEP11SDL_TextureEENS_22__unordered_map_hasherIS7_SA_NS_4hashIS7_EENS_8equal_toIS7_EELb1EEENS_21__unordered_map_equalIS7_SA_SF_SD_Lb1EEENS5_ISA_EEE6key_eqB8ue170006Ev, symObjAddr: 0x6598, symBinAddr: 0x100010858, symSize: 0x28 }
  - { offsetInCU: 0x18B00, offset: 0x41064, size: 0x8, addend: 0x0, symName: __ZNKSt3__121__unordered_map_equalINS_12basic_stringIcNS_11char_traitsIcEENS_9allocatorIcEEEENS_17__hash_value_typeIS6_P11SDL_TextureEENS_8equal_toIS6_EENS_4hashIS6_EELb1EEclB8ue170006ERKSA_RKS6_, symObjAddr: 0x65C0, symBinAddr: 0x100010880, symSize: 0x48 }
  - { offsetInCU: 0x18B44, offset: 0x410A8, size: 0x8, addend: 0x0, symName: __ZNSt3__116__hash_node_baseIPNS_11__hash_nodeINS_17__hash_value_typeINS_12basic_stringIcNS_11char_traitsIcEENS_9allocatorIcEEEEP11SDL_TextureEEPvEEE8__upcastB8ue170006Ev, symObjAddr: 0x6608, symBinAddr: 0x1000108C8, symSize: 0x24 }
  - { offsetInCU: 0x18B6A, offset: 0x410CE, size: 0x8, addend: 0x0, symName: __ZNSt3__115__hash_iteratorIPNS_11__hash_nodeINS_17__hash_value_typeINS_12basic_stringIcNS_11char_traitsIcEENS_9allocatorIcEEEEP11SDL_TextureEEPvEEEC1B8ue170006EPNS_16__hash_node_baseISE_EE, symObjAddr: 0x662C, symBinAddr: 0x1000108EC, symSize: 0x34 }
  - { offsetInCU: 0x18BA3, offset: 0x41107, size: 0x8, addend: 0x0, symName: __ZNSt3__112__hash_tableINS_17__hash_value_typeINS_12basic_stringIcNS_11char_traitsIcEENS_9allocatorIcEEEEP11SDL_TextureEENS_22__unordered_map_hasherIS7_SA_NS_4hashIS7_EENS_8equal_toIS7_EELb1EEENS_21__unordered_map_equalIS7_SA_SF_SD_Lb1EEENS5_ISA_EEE3endEv, symObjAddr: 0x6660, symBinAddr: 0x100010920, symSize: 0x2C }
  - { offsetInCU: 0x18BCB, offset: 0x4112F, size: 0x8, addend: 0x0, symName: __ZNSt3__117__compressed_pairImNS_22__unordered_map_hasherINS_12basic_stringIcNS_11char_traitsIcEENS_9allocatorIcEEEENS_17__hash_value_typeIS7_P11SDL_TextureEENS_4hashIS7_EENS_8equal_toIS7_EELb1EEEE6secondB8ue170006Ev, symObjAddr: 0x668C, symBinAddr: 0x10001094C, symSize: 0x24 }
  - { offsetInCU: 0x18BF1, offset: 0x41155, size: 0x8, addend: 0x0, symName: __ZNSt3__122__compressed_pair_elemINS_22__unordered_map_hasherINS_12basic_stringIcNS_11char_traitsIcEENS_9allocatorIcEEEENS_17__hash_value_typeIS7_P11SDL_TextureEENS_4hashIS7_EENS_8equal_toIS7_EELb1EEELi1ELb1EE5__getB8ue170006Ev, symObjAddr: 0x66B0, symBinAddr: 0x100010970, symSize: 0x14 }
  - { offsetInCU: 0x18C17, offset: 0x4117B, size: 0x8, addend: 0x0, symName: __ZNKSt3__113__string_hashIcNS_9allocatorIcEEEclB8ue170006ERKNS_12basic_stringIcNS_11char_traitsIcEES2_EE, symObjAddr: 0x66C4, symBinAddr: 0x100010984, symSize: 0x64 }
  - { offsetInCU: 0x18C4C, offset: 0x411B0, size: 0x8, addend: 0x0, symName: __ZNKSt3__121__murmur2_or_cityhashImLm64EEclB8ue170006EPKvm, symObjAddr: 0x67B8, symBinAddr: 0x100010A24, symSize: 0x410 }
  - { offsetInCU: 0x18CE6, offset: 0x4124A, size: 0x8, addend: 0x0, symName: __ZNSt3__121__murmur2_or_cityhashImLm64EE18__hash_len_0_to_16B8ue170006EPKcm, symObjAddr: 0x6BC8, symBinAddr: 0x100010E34, symSize: 0x1C0 }
  - { offsetInCU: 0x18DC2, offset: 0x41326, size: 0x8, addend: 0x0, symName: __ZNSt3__121__murmur2_or_cityhashImLm64EE19__hash_len_17_to_32B8ue170006EPKcm, symObjAddr: 0x6D88, symBinAddr: 0x100010FF4, symSize: 0x130 }
  - { offsetInCU: 0x18E2B, offset: 0x4138F, size: 0x8, addend: 0x0, symName: __ZNSt3__121__murmur2_or_cityhashImLm64EE19__hash_len_33_to_64B8ue170006EPKcm, symObjAddr: 0x6EB8, symBinAddr: 0x100011124, symSize: 0x2B8 }
  - { offsetInCU: 0x18EE3, offset: 0x41447, size: 0x8, addend: 0x0, symName: __ZNSt3__121__murmur2_or_cityhashImLm64EE13__hash_len_16B8ue170006Emm, symObjAddr: 0x7190, symBinAddr: 0x1000113FC, symSize: 0x80 }
  - { offsetInCU: 0x18F3E, offset: 0x414A2, size: 0x8, addend: 0x0, symName: __ZNSt3__121__murmur2_or_cityhashImLm64EE29__weak_hash_len_32_with_seedsB8ue170006EPKcmm, symObjAddr: 0x7210, symBinAddr: 0x10001147C, symSize: 0x88 }
  - { offsetInCU: 0x18F7D, offset: 0x414E1, size: 0x8, addend: 0x0, symName: __ZNSt3__121__murmur2_or_cityhashImLm64EE8__rotateB8ue170006Emi, symObjAddr: 0x7298, symBinAddr: 0x100011504, symSize: 0x64 }
  - { offsetInCU: 0x18FAE, offset: 0x41512, size: 0x8, addend: 0x0, symName: __ZNSt3__14pairImmEaSB8ue170006EOS1_, symObjAddr: 0x72FC, symBinAddr: 0x100011568, symSize: 0x30 }
  - { offsetInCU: 0x18FE3, offset: 0x41547, size: 0x8, addend: 0x0, symName: __ZNSt3__121__murmur2_or_cityhashImLm64EE11__shift_mixB8ue170006Em, symObjAddr: 0x7368, symBinAddr: 0x1000115D4, symSize: 0x1C }
  - { offsetInCU: 0x19006, offset: 0x4156A, size: 0x8, addend: 0x0, symName: __ZNSt3__121__murmur2_or_cityhashImLm64EE22__rotate_by_at_least_1B8ue170006Emi, symObjAddr: 0x7384, symBinAddr: 0x1000115F0, symSize: 0x38 }
  - { offsetInCU: 0x19037, offset: 0x4159B, size: 0x8, addend: 0x0, symName: __ZNSt3__121__murmur2_or_cityhashImLm64EE29__weak_hash_len_32_with_seedsB8ue170006Emmmmmm, symObjAddr: 0x73DC, symBinAddr: 0x100011648, symSize: 0xD8 }
  - { offsetInCU: 0x190B4, offset: 0x41618, size: 0x8, addend: 0x0, symName: __ZNSt3__14pairImmEC1B8ue170006ImmLPv0EEEOT_OT0_, symObjAddr: 0x74B4, symBinAddr: 0x100011720, symSize: 0x3C }
  - { offsetInCU: 0x19112, offset: 0x41676, size: 0x8, addend: 0x0, symName: __ZNSt3__14pairImmEC2B8ue170006ImmLPv0EEEOT_OT0_, symObjAddr: 0x74F0, symBinAddr: 0x10001175C, symSize: 0x34 }
  - { offsetInCU: 0x19170, offset: 0x416D4, size: 0x8, addend: 0x0, symName: __ZNKSt3__110unique_ptrIA_PNS_16__hash_node_baseIPNS_11__hash_nodeINS_17__hash_value_typeINS_12basic_stringIcNS_11char_traitsIcEENS_9allocatorIcEEEEP11SDL_TextureEEPvEEEENS_25__bucket_list_deallocatorINS7_ISH_EEEEE11get_deleterB8ue170006Ev, symObjAddr: 0x7580, symBinAddr: 0x100011790, symSize: 0x24 }
  - { offsetInCU: 0x19196, offset: 0x416FA, size: 0x8, addend: 0x0, symName: __ZNKSt3__125__bucket_list_deallocatorINS_9allocatorIPNS_16__hash_node_baseIPNS_11__hash_nodeINS_17__hash_value_typeINS_12basic_stringIcNS_11char_traitsIcEENS1_IcEEEEP11SDL_TextureEEPvEEEEEEE4sizeB8ue170006Ev, symObjAddr: 0x75A4, symBinAddr: 0x1000117B4, symSize: 0x28 }
  - { offsetInCU: 0x191BC, offset: 0x41720, size: 0x8, addend: 0x0, symName: __ZNKSt3__117__compressed_pairIPPNS_16__hash_node_baseIPNS_11__hash_nodeINS_17__hash_value_typeINS_12basic_stringIcNS_11char_traitsIcEENS_9allocatorIcEEEEP11SDL_TextureEEPvEEEENS_25__bucket_list_deallocatorINS7_ISH_EEEEE6secondB8ue170006Ev, symObjAddr: 0x75CC, symBinAddr: 0x1000117DC, symSize: 0x28 }
  - { offsetInCU: 0x191E2, offset: 0x41746, size: 0x8, addend: 0x0, symName: __ZNKSt3__122__compressed_pair_elemINS_25__bucket_list_deallocatorINS_9allocatorIPNS_16__hash_node_baseIPNS_11__hash_nodeINS_17__hash_value_typeINS_12basic_stringIcNS_11char_traitsIcEENS2_IcEEEEP11SDL_TextureEEPvEEEEEEEELi1ELb0EE5__getB8ue170006Ev, symObjAddr: 0x75F4, symBinAddr: 0x100011804, symSize: 0x14 }
  - { offsetInCU: 0x19208, offset: 0x4176C, size: 0x8, addend: 0x0, symName: __ZNKSt3__117__compressed_pairImNS_9allocatorIPNS_16__hash_node_baseIPNS_11__hash_nodeINS_17__hash_value_typeINS_12basic_stringIcNS_11char_traitsIcEENS1_IcEEEEP11SDL_TextureEEPvEEEEEEE5firstB8ue170006Ev, symObjAddr: 0x7608, symBinAddr: 0x100011818, symSize: 0x24 }
  - { offsetInCU: 0x1922E, offset: 0x41792, size: 0x8, addend: 0x0, symName: __ZNKSt3__122__compressed_pair_elemImLi0ELb0EE5__getB8ue170006Ev, symObjAddr: 0x762C, symBinAddr: 0x10001183C, symSize: 0x14 }
  - { offsetInCU: 0x19254, offset: 0x417B8, size: 0x8, addend: 0x0, symName: __ZNKSt3__117__compressed_pairIPPNS_16__hash_node_baseIPNS_11__hash_nodeINS_17__hash_value_typeINS_12basic_stringIcNS_11char_traitsIcEENS_9allocatorIcEEEEP11SDL_TextureEEPvEEEENS_25__bucket_list_deallocatorINS7_ISH_EEEEE5firstB8ue170006Ev, symObjAddr: 0x7640, symBinAddr: 0x100011850, symSize: 0x24 }
  - { offsetInCU: 0x1927A, offset: 0x417DE, size: 0x8, addend: 0x0, symName: __ZNKSt3__122__compressed_pair_elemIPPNS_16__hash_node_baseIPNS_11__hash_nodeINS_17__hash_value_typeINS_12basic_stringIcNS_11char_traitsIcEENS_9allocatorIcEEEEP11SDL_TextureEEPvEEEELi0ELb0EE5__getB8ue170006Ev, symObjAddr: 0x7664, symBinAddr: 0x100011874, symSize: 0x14 }
  - { offsetInCU: 0x192A0, offset: 0x41804, size: 0x8, addend: 0x0, symName: __ZNSt3__117__compressed_pairIfNS_21__unordered_map_equalINS_12basic_stringIcNS_11char_traitsIcEENS_9allocatorIcEEEENS_17__hash_value_typeIS7_P11SDL_TextureEENS_8equal_toIS7_EENS_4hashIS7_EELb1EEEE6secondB8ue170006Ev, symObjAddr: 0x7678, symBinAddr: 0x100011888, symSize: 0x24 }
  - { offsetInCU: 0x192C6, offset: 0x4182A, size: 0x8, addend: 0x0, symName: __ZNSt3__122__compressed_pair_elemINS_21__unordered_map_equalINS_12basic_stringIcNS_11char_traitsIcEENS_9allocatorIcEEEENS_17__hash_value_typeIS7_P11SDL_TextureEENS_8equal_toIS7_EENS_4hashIS7_EELb1EEELi1ELb1EE5__getB8ue170006Ev, symObjAddr: 0x769C, symBinAddr: 0x1000118AC, symSize: 0x14 }
  - { offsetInCU: 0x192EC, offset: 0x41850, size: 0x8, addend: 0x0, symName: __ZNKSt3__18equal_toINS_12basic_stringIcNS_11char_traitsIcEENS_9allocatorIcEEEEEclB8ue170006ERKS6_S9_, symObjAddr: 0x76B0, symBinAddr: 0x1000118C0, symSize: 0x34 }
  - { offsetInCU: 0x19330, offset: 0x41894, size: 0x8, addend: 0x0, symName: __ZNKSt3__117__hash_value_typeINS_12basic_stringIcNS_11char_traitsIcEENS_9allocatorIcEEEEP11SDL_TextureE11__get_valueB8ue170006Ev, symObjAddr: 0x76E4, symBinAddr: 0x1000118F4, symSize: 0x24 }
  - { offsetInCU: 0x19356, offset: 0x418BA, size: 0x8, addend: 0x0, symName: __ZNSt3__111char_traitsIcE7compareB8ue170006EPKcS3_m, symObjAddr: 0x7850, symBinAddr: 0x100011A60, symSize: 0x34 }
  - { offsetInCU: 0x19395, offset: 0x418F9, size: 0x8, addend: 0x0, symName: __ZNSt3__114pointer_traitsIPNS_16__hash_node_baseIPNS_11__hash_nodeINS_17__hash_value_typeINS_12basic_stringIcNS_11char_traitsIcEENS_9allocatorIcEEEEP11SDL_TextureEEPvEEEEE10pointer_toB8ue170006ERSG_, symObjAddr: 0x78BC, symBinAddr: 0x100011ACC, symSize: 0x14 }
  - { offsetInCU: 0x193B8, offset: 0x4191C, size: 0x8, addend: 0x0, symName: __ZNSt3__115__hash_iteratorIPNS_11__hash_nodeINS_17__hash_value_typeINS_12basic_stringIcNS_11char_traitsIcEENS_9allocatorIcEEEEP11SDL_TextureEEPvEEEC2B8ue170006EPNS_16__hash_node_baseISE_EE, symObjAddr: 0x78D0, symBinAddr: 0x100011AE0, symSize: 0x20 }
  - { offsetInCU: 0x193F1, offset: 0x41955, size: 0x8, addend: 0x0, symName: __ZNSt3__119__hash_map_iteratorINS_15__hash_iteratorIPNS_11__hash_nodeINS_17__hash_value_typeINS_12basic_stringIcNS_11char_traitsIcEENS_9allocatorIcEEEEP11SDL_TextureEEPvEEEEEC2B8ue170006ESG_, symObjAddr: 0x78F0, symBinAddr: 0x100011B00, symSize: 0x20 }
  - { offsetInCU: 0x1943F, offset: 0x419A3, size: 0x8, addend: 0x0, symName: __ZNSt3__112__hash_tableINS_17__hash_value_typeINS_12basic_stringIcNS_11char_traitsIcEENS_9allocatorIcEEEEP11SDL_TextureEENS_22__unordered_map_hasherIS7_SA_NS_4hashIS7_EENS_8equal_toIS7_EELb1EEENS_21__unordered_map_equalIS7_SA_SF_SD_Lb1EEENS5_ISA_EEE25__emplace_unique_key_argsIS7_JRKNS_21piecewise_construct_tENS_5tupleIJRKS7_EEENSP_IJEEEEEENS_4pairINS_15__hash_iteratorIPNS_11__hash_nodeISA_PvEEEEbEERKT_DpOT0_, symObjAddr: 0x8360, symBinAddr: 0x100011B20, symSize: 0x4B8 }
  - { offsetInCU: 0x19551, offset: 0x41AB5, size: 0x8, addend: 0x0, symName: __ZNKSt3__115__hash_iteratorIPNS_11__hash_nodeINS_17__hash_value_typeINS_12basic_stringIcNS_11char_traitsIcEENS_9allocatorIcEEEEP11SDL_TextureEEPvEEEptB8ue170006Ev, symObjAddr: 0x8848, symBinAddr: 0x100012008, symSize: 0x30 }
  - { offsetInCU: 0x19577, offset: 0x41ADB, size: 0x8, addend: 0x0, symName: __ZNSt3__117__hash_value_typeINS_12basic_stringIcNS_11char_traitsIcEENS_9allocatorIcEEEEP11SDL_TextureE11__get_valueB8ue170006Ev, symObjAddr: 0x8878, symBinAddr: 0x100012038, symSize: 0x24 }
  - { offsetInCU: 0x1959D, offset: 0x41B01, size: 0x8, addend: 0x0, symName: __ZNSt3__112__hash_tableINS_17__hash_value_typeINS_12basic_stringIcNS_11char_traitsIcEENS_9allocatorIcEEEEP11SDL_TextureEENS_22__unordered_map_hasherIS7_SA_NS_4hashIS7_EENS_8equal_toIS7_EELb1EEENS_21__unordered_map_equalIS7_SA_SF_SD_Lb1EEENS5_ISA_EEE21__construct_node_hashIRKNS_21piecewise_construct_tEJNS_5tupleIJRKS7_EEENSP_IJEEEEEENS_10unique_ptrINS_11__hash_nodeISA_PvEENS_22__hash_node_destructorINS5_ISX_EEEEEEmOT_DpOT0_, symObjAddr: 0x889C, symBinAddr: 0x10001205C, symSize: 0x150 }
  - { offsetInCU: 0x1963B, offset: 0x41B9F, size: 0x8, addend: 0x0, symName: __ZNSt3__112__hash_tableINS_17__hash_value_typeINS_12basic_stringIcNS_11char_traitsIcEENS_9allocatorIcEEEEP11SDL_TextureEENS_22__unordered_map_hasherIS7_SA_NS_4hashIS7_EENS_8equal_toIS7_EELb1EEENS_21__unordered_map_equalIS7_SA_SF_SD_Lb1EEENS5_ISA_EEE4sizeB8ue170006Ev, symObjAddr: 0x89EC, symBinAddr: 0x1000121AC, symSize: 0x28 }
  - { offsetInCU: 0x19661, offset: 0x41BC5, size: 0x8, addend: 0x0, symName: __ZNSt3__112__hash_tableINS_17__hash_value_typeINS_12basic_stringIcNS_11char_traitsIcEENS_9allocatorIcEEEEP11SDL_TextureEENS_22__unordered_map_hasherIS7_SA_NS_4hashIS7_EENS_8equal_toIS7_EELb1EEENS_21__unordered_map_equalIS7_SA_SF_SD_Lb1EEENS5_ISA_EEE15max_load_factorB8ue170006Ev, symObjAddr: 0x8A14, symBinAddr: 0x1000121D4, symSize: 0x28 }
  - { offsetInCU: 0x19687, offset: 0x41BEB, size: 0x8, addend: 0x0, symName: __ZNSt3__112__hash_tableINS_17__hash_value_typeINS_12basic_stringIcNS_11char_traitsIcEENS_9allocatorIcEEEEP11SDL_TextureEENS_22__unordered_map_hasherIS7_SA_NS_4hashIS7_EENS_8equal_toIS7_EELb1EEENS_21__unordered_map_equalIS7_SA_SF_SD_Lb1EEENS5_ISA_EEE15__rehash_uniqueB8ue170006Em, symObjAddr: 0x8A3C, symBinAddr: 0x1000121FC, symSize: 0x2C }
  - { offsetInCU: 0x196BC, offset: 0x41C20, size: 0x8, addend: 0x0, symName: __Z4ceilB8ue170006f, symObjAddr: 0x8AE4, symBinAddr: 0x100012278, symSize: 0x18 }
  - { offsetInCU: 0x196EA, offset: 0x41C4E, size: 0x8, addend: 0x0, symName: __ZNSt3__117__compressed_pairINS_16__hash_node_baseIPNS_11__hash_nodeINS_17__hash_value_typeINS_12basic_stringIcNS_11char_traitsIcEENS_9allocatorIcEEEEP11SDL_TextureEEPvEEEENS7_ISE_EEE5firstB8ue170006Ev, symObjAddr: 0x8AFC, symBinAddr: 0x100012290, symSize: 0x24 }
  - { offsetInCU: 0x19710, offset: 0x41C74, size: 0x8, addend: 0x0, symName: __ZNSt3__116__hash_node_baseIPNS_11__hash_nodeINS_17__hash_value_typeINS_12basic_stringIcNS_11char_traitsIcEENS_9allocatorIcEEEEP11SDL_TextureEEPvEEE5__ptrB8ue170006Ev, symObjAddr: 0x8B20, symBinAddr: 0x1000122B4, symSize: 0x24 }
  - { offsetInCU: 0x19736, offset: 0x41C9A, size: 0x8, addend: 0x0, symName: __ZNKSt3__110unique_ptrINS_11__hash_nodeINS_17__hash_value_typeINS_12basic_stringIcNS_11char_traitsIcEENS_9allocatorIcEEEEP11SDL_TextureEEPvEENS_22__hash_node_destructorINS6_ISD_EEEEEptB8ue170006Ev, symObjAddr: 0x8B44, symBinAddr: 0x1000122D8, symSize: 0x28 }
  - { offsetInCU: 0x1975C, offset: 0x41CC0, size: 0x8, addend: 0x0, symName: __ZNKSt3__110unique_ptrINS_11__hash_nodeINS_17__hash_value_typeINS_12basic_stringIcNS_11char_traitsIcEENS_9allocatorIcEEEEP11SDL_TextureEEPvEENS_22__hash_node_destructorINS6_ISD_EEEEE3getB8ue170006Ev, symObjAddr: 0x8B6C, symBinAddr: 0x100012300, symSize: 0x28 }
  - { offsetInCU: 0x19782, offset: 0x41CE6, size: 0x8, addend: 0x0, symName: __ZNSt3__110unique_ptrINS_11__hash_nodeINS_17__hash_value_typeINS_12basic_stringIcNS_11char_traitsIcEENS_9allocatorIcEEEEP11SDL_TextureEEPvEENS_22__hash_node_destructorINS6_ISD_EEEEE7releaseB8ue170006Ev, symObjAddr: 0x8B94, symBinAddr: 0x100012328, symSize: 0x44 }
  - { offsetInCU: 0x197B8, offset: 0x41D1C, size: 0x8, addend: 0x0, symName: __ZNSt3__110unique_ptrINS_11__hash_nodeINS_17__hash_value_typeINS_12basic_stringIcNS_11char_traitsIcEENS_9allocatorIcEEEEP11SDL_TextureEEPvEENS_22__hash_node_destructorINS6_ISD_EEEEED1B8ue170006Ev, symObjAddr: 0x8BD8, symBinAddr: 0x10001236C, symSize: 0x2C }
  - { offsetInCU: 0x197ED, offset: 0x41D51, size: 0x8, addend: 0x0, symName: __ZNSt3__14pairINS_15__hash_iteratorIPNS_11__hash_nodeINS_17__hash_value_typeINS_12basic_stringIcNS_11char_traitsIcEENS_9allocatorIcEEEEP11SDL_TextureEEPvEEEEbEC1B8ue170006ISG_RbLSD_0EEEOT_OT0_, symObjAddr: 0x8C04, symBinAddr: 0x100012398, symSize: 0x3C }
  - { offsetInCU: 0x1984B, offset: 0x41DAF, size: 0x8, addend: 0x0, symName: __ZNSt3__112__hash_tableINS_17__hash_value_typeINS_12basic_stringIcNS_11char_traitsIcEENS_9allocatorIcEEEEP11SDL_TextureEENS_22__unordered_map_hasherIS7_SA_NS_4hashIS7_EENS_8equal_toIS7_EELb1EEENS_21__unordered_map_equalIS7_SA_SF_SD_Lb1EEENS5_ISA_EEE12__node_allocB8ue170006Ev, symObjAddr: 0x8C40, symBinAddr: 0x1000123D4, symSize: 0x28 }
  - { offsetInCU: 0x19871, offset: 0x41DD5, size: 0x8, addend: 0x0, symName: __ZNSt3__116allocator_traitsINS_9allocatorINS_11__hash_nodeINS_17__hash_value_typeINS_12basic_stringIcNS_11char_traitsIcEENS1_IcEEEEP11SDL_TextureEEPvEEEEE8allocateB8ue170006ERSE_m, symObjAddr: 0x8C68, symBinAddr: 0x1000123FC, symSize: 0x2C }
  - { offsetInCU: 0x198A4, offset: 0x41E08, size: 0x8, addend: 0x0, symName: __ZNSt3__122__hash_node_destructorINS_9allocatorINS_11__hash_nodeINS_17__hash_value_typeINS_12basic_stringIcNS_11char_traitsIcEENS1_IcEEEEP11SDL_TextureEEPvEEEEEC1B8ue170006ERSE_b, symObjAddr: 0x8C94, symBinAddr: 0x100012428, symSize: 0x48 }
  - { offsetInCU: 0x198F2, offset: 0x41E56, size: 0x8, addend: 0x0, symName: __ZNSt3__110unique_ptrINS_11__hash_nodeINS_17__hash_value_typeINS_12basic_stringIcNS_11char_traitsIcEENS_9allocatorIcEEEEP11SDL_TextureEEPvEENS_22__hash_node_destructorINS6_ISD_EEEEEC1B8ue170006ILb1EvEEPSD_NS_16__dependent_typeINS_27__unique_ptr_deleter_sfinaeISG_EEXT_EE20__good_rval_ref_typeE, symObjAddr: 0x8CDC, symBinAddr: 0x100012470, symSize: 0x3C }
  - { offsetInCU: 0x19944, offset: 0x41EA8, size: 0x8, addend: 0x0, symName: __ZNSt3__116allocator_traitsINS_9allocatorINS_11__hash_nodeINS_17__hash_value_typeINS_12basic_stringIcNS_11char_traitsIcEENS1_IcEEEEP11SDL_TextureEEPvEEEEE9constructB8ue170006INS_4pairIKS8_SA_EEJRKNS_21piecewise_construct_tENS_5tupleIJRSI_EEENSN_IJEEEEvEEvRSE_PT_DpOT0_, symObjAddr: 0x8D18, symBinAddr: 0x1000124AC, symSize: 0x44 }
  - { offsetInCU: 0x199C4, offset: 0x41F28, size: 0x8, addend: 0x0, symName: __ZNSt3__122__hash_key_value_typesINS_17__hash_value_typeINS_12basic_stringIcNS_11char_traitsIcEENS_9allocatorIcEEEEP11SDL_TextureEEE9__get_ptrB8ue170006ERSA_, symObjAddr: 0x8D5C, symBinAddr: 0x1000124F0, symSize: 0x24 }
  - { offsetInCU: 0x199E7, offset: 0x41F4B, size: 0x8, addend: 0x0, symName: __ZNSt3__110unique_ptrINS_11__hash_nodeINS_17__hash_value_typeINS_12basic_stringIcNS_11char_traitsIcEENS_9allocatorIcEEEEP11SDL_TextureEEPvEENS_22__hash_node_destructorINS6_ISD_EEEEE11get_deleterB8ue170006Ev, symObjAddr: 0x8D80, symBinAddr: 0x100012514, symSize: 0x24 }
  - { offsetInCU: 0x19A0D, offset: 0x41F71, size: 0x8, addend: 0x0, symName: __ZNSt3__117__compressed_pairINS_16__hash_node_baseIPNS_11__hash_nodeINS_17__hash_value_typeINS_12basic_stringIcNS_11char_traitsIcEENS_9allocatorIcEEEEP11SDL_TextureEEPvEEEENS7_ISE_EEE6secondB8ue170006Ev, symObjAddr: 0x8DA4, symBinAddr: 0x100012538, symSize: 0x24 }
  - { offsetInCU: 0x19A33, offset: 0x41F97, size: 0x8, addend: 0x0, symName: __ZNSt3__122__compressed_pair_elemINS_9allocatorINS_11__hash_nodeINS_17__hash_value_typeINS_12basic_stringIcNS_11char_traitsIcEENS1_IcEEEEP11SDL_TextureEEPvEEEELi1ELb1EE5__getB8ue170006Ev, symObjAddr: 0x8DC8, symBinAddr: 0x10001255C, symSize: 0x14 }
  - { offsetInCU: 0x19A59, offset: 0x41FBD, size: 0x8, addend: 0x0, symName: __ZNSt3__19allocatorINS_11__hash_nodeINS_17__hash_value_typeINS_12basic_stringIcNS_11char_traitsIcEENS0_IcEEEEP11SDL_TextureEEPvEEE8allocateB8ue170006Em, symObjAddr: 0x8DDC, symBinAddr: 0x100012570, symSize: 0x5C }
  - { offsetInCU: 0x19A97, offset: 0x41FFB, size: 0x8, addend: 0x0, symName: __ZNSt3__116allocator_traitsINS_9allocatorINS_11__hash_nodeINS_17__hash_value_typeINS_12basic_stringIcNS_11char_traitsIcEENS1_IcEEEEP11SDL_TextureEEPvEEEEE8max_sizeB8ue170006ISE_vEEmRKSE_, symObjAddr: 0x8E38, symBinAddr: 0x1000125CC, symSize: 0x24 }
  - { offsetInCU: 0x19AC6, offset: 0x4202A, size: 0x8, addend: 0x0, symName: __ZNKSt3__19allocatorINS_11__hash_nodeINS_17__hash_value_typeINS_12basic_stringIcNS_11char_traitsIcEENS0_IcEEEEP11SDL_TextureEEPvEEE8max_sizeB8ue170006Ev, symObjAddr: 0x8EF0, symBinAddr: 0x1000125F0, symSize: 0x18 }
  - { offsetInCU: 0x19AEC, offset: 0x42050, size: 0x8, addend: 0x0, symName: __ZNSt3__122__hash_node_destructorINS_9allocatorINS_11__hash_nodeINS_17__hash_value_typeINS_12basic_stringIcNS_11char_traitsIcEENS1_IcEEEEP11SDL_TextureEEPvEEEEEC2B8ue170006ERSE_b, symObjAddr: 0x8F78, symBinAddr: 0x100012608, symSize: 0x38 }
  - { offsetInCU: 0x19B34, offset: 0x42098, size: 0x8, addend: 0x0, symName: __ZNSt3__110unique_ptrINS_11__hash_nodeINS_17__hash_value_typeINS_12basic_stringIcNS_11char_traitsIcEENS_9allocatorIcEEEEP11SDL_TextureEEPvEENS_22__hash_node_destructorINS6_ISD_EEEEEC2B8ue170006ILb1EvEEPSD_NS_16__dependent_typeINS_27__unique_ptr_deleter_sfinaeISG_EEXT_EE20__good_rval_ref_typeE, symObjAddr: 0x8FB0, symBinAddr: 0x100012640, symSize: 0x48 }
  - { offsetInCU: 0x19B86, offset: 0x420EA, size: 0x8, addend: 0x0, symName: __ZNSt3__117__compressed_pairIPNS_11__hash_nodeINS_17__hash_value_typeINS_12basic_stringIcNS_11char_traitsIcEENS_9allocatorIcEEEEP11SDL_TextureEEPvEENS_22__hash_node_destructorINS6_ISD_EEEEEC1B8ue170006IRSE_SH_EEOT_OT0_, symObjAddr: 0x8FF8, symBinAddr: 0x100012688, symSize: 0x3C }
  - { offsetInCU: 0x19BDE, offset: 0x42142, size: 0x8, addend: 0x0, symName: __ZNSt3__117__compressed_pairIPNS_11__hash_nodeINS_17__hash_value_typeINS_12basic_stringIcNS_11char_traitsIcEENS_9allocatorIcEEEEP11SDL_TextureEEPvEENS_22__hash_node_destructorINS6_ISD_EEEEEC2B8ue170006IRSE_SH_EEOT_OT0_, symObjAddr: 0x9034, symBinAddr: 0x1000126C4, symSize: 0x48 }
  - { offsetInCU: 0x19C36, offset: 0x4219A, size: 0x8, addend: 0x0, symName: __ZNSt3__122__compressed_pair_elemIPNS_11__hash_nodeINS_17__hash_value_typeINS_12basic_stringIcNS_11char_traitsIcEENS_9allocatorIcEEEEP11SDL_TextureEEPvEELi0ELb0EEC2B8ue170006IRSE_vEEOT_, symObjAddr: 0x907C, symBinAddr: 0x10001270C, symSize: 0x24 }
  - { offsetInCU: 0x19C79, offset: 0x421DD, size: 0x8, addend: 0x0, symName: __ZNSt3__122__compressed_pair_elemINS_22__hash_node_destructorINS_9allocatorINS_11__hash_nodeINS_17__hash_value_typeINS_12basic_stringIcNS_11char_traitsIcEENS2_IcEEEEP11SDL_TextureEEPvEEEEEELi1ELb0EEC2B8ue170006ISG_vEEOT_, symObjAddr: 0x90A0, symBinAddr: 0x100012730, symSize: 0x24 }
  - { offsetInCU: 0x19CBC, offset: 0x42220, size: 0x8, addend: 0x0, symName: __ZNSt3__19allocatorINS_11__hash_nodeINS_17__hash_value_typeINS_12basic_stringIcNS_11char_traitsIcEENS0_IcEEEEP11SDL_TextureEEPvEEE9constructB8ue170006INS_4pairIKS7_S9_EEJRKNS_21piecewise_construct_tENS_5tupleIJRSG_EEENSL_IJEEEEEEvPT_DpOT0_, symObjAddr: 0x90C4, symBinAddr: 0x100012754, symSize: 0x44 }
  - { offsetInCU: 0x19D38, offset: 0x4229C, size: 0x8, addend: 0x0, symName: __ZNSt3__14pairIKNS_12basic_stringIcNS_11char_traitsIcEENS_9allocatorIcEEEEP11SDL_TextureEC1B8ue170006IJRS7_EJEEENS_21piecewise_construct_tENS_5tupleIJDpT_EEENSE_IJDpT0_EEE, symObjAddr: 0x9108, symBinAddr: 0x100012798, symSize: 0x3C }
  - { offsetInCU: 0x19DA0, offset: 0x42304, size: 0x8, addend: 0x0, symName: __ZNSt3__14pairIKNS_12basic_stringIcNS_11char_traitsIcEENS_9allocatorIcEEEEP11SDL_TextureEC1B8ue170006IJRS7_EJEJLm0EEJEEENS_21piecewise_construct_tERNS_5tupleIJDpT_EEERNSE_IJDpT0_EEENS_15__tuple_indicesIJXspT1_EEEENSN_IJXspT2_EEEE, symObjAddr: 0x9144, symBinAddr: 0x1000127D4, symSize: 0x3C }
  - { offsetInCU: 0x19E32, offset: 0x42396, size: 0x8, addend: 0x0, symName: __ZNSt3__14pairIKNS_12basic_stringIcNS_11char_traitsIcEENS_9allocatorIcEEEEP11SDL_TextureEC2B8ue170006IJRS7_EJEJLm0EEJEEENS_21piecewise_construct_tERNS_5tupleIJDpT_EEERNSE_IJDpT0_EEENS_15__tuple_indicesIJXspT1_EEEENSN_IJXspT2_EEEE, symObjAddr: 0x9180, symBinAddr: 0x100012810, symSize: 0x48 }
  - { offsetInCU: 0x19EC4, offset: 0x42428, size: 0x8, addend: 0x0, symName: __ZNSt3__112__tuple_leafILm0ERKNS_12basic_stringIcNS_11char_traitsIcEENS_9allocatorIcEEEELb0EE3getB8ue170006Ev, symObjAddr: 0x91EC, symBinAddr: 0x10001287C, symSize: 0x18 }
  - { offsetInCU: 0x19EEA, offset: 0x4244E, size: 0x8, addend: 0x0, symName: __ZNSt3__117__compressed_pairIPNS_11__hash_nodeINS_17__hash_value_typeINS_12basic_stringIcNS_11char_traitsIcEENS_9allocatorIcEEEEP11SDL_TextureEEPvEENS_22__hash_node_destructorINS6_ISD_EEEEE6secondB8ue170006Ev, symObjAddr: 0x9204, symBinAddr: 0x100012894, symSize: 0x28 }
  - { offsetInCU: 0x19F10, offset: 0x42474, size: 0x8, addend: 0x0, symName: __ZNSt3__122__compressed_pair_elemINS_22__hash_node_destructorINS_9allocatorINS_11__hash_nodeINS_17__hash_value_typeINS_12basic_stringIcNS_11char_traitsIcEENS2_IcEEEEP11SDL_TextureEEPvEEEEEELi1ELb0EE5__getB8ue170006Ev, symObjAddr: 0x922C, symBinAddr: 0x1000128BC, symSize: 0x14 }
  - { offsetInCU: 0x19F36, offset: 0x4249A, size: 0x8, addend: 0x0, symName: __ZNSt3__117__compressed_pairImNS_22__unordered_map_hasherINS_12basic_stringIcNS_11char_traitsIcEENS_9allocatorIcEEEENS_17__hash_value_typeIS7_P11SDL_TextureEENS_4hashIS7_EENS_8equal_toIS7_EELb1EEEE5firstB8ue170006Ev, symObjAddr: 0x9240, symBinAddr: 0x1000128D0, symSize: 0x24 }
  - { offsetInCU: 0x19F5C, offset: 0x424C0, size: 0x8, addend: 0x0, symName: __ZNSt3__122__compressed_pair_elemImLi0ELb0EE5__getB8ue170006Ev, symObjAddr: 0x9264, symBinAddr: 0x1000128F4, symSize: 0x14 }
  - { offsetInCU: 0x19F82, offset: 0x424E6, size: 0x8, addend: 0x0, symName: __ZNSt3__117__compressed_pairIfNS_21__unordered_map_equalINS_12basic_stringIcNS_11char_traitsIcEENS_9allocatorIcEEEENS_17__hash_value_typeIS7_P11SDL_TextureEENS_8equal_toIS7_EENS_4hashIS7_EELb1EEEE5firstB8ue170006Ev, symObjAddr: 0x9278, symBinAddr: 0x100012908, symSize: 0x24 }
  - { offsetInCU: 0x19FA8, offset: 0x4250C, size: 0x8, addend: 0x0, symName: __ZNSt3__122__compressed_pair_elemIfLi0ELb0EE5__getB8ue170006Ev, symObjAddr: 0x929C, symBinAddr: 0x10001292C, symSize: 0x14 }
  - { offsetInCU: 0x19FCE, offset: 0x42532, size: 0x8, addend: 0x0, symName: __ZNSt3__112__hash_tableINS_17__hash_value_typeINS_12basic_stringIcNS_11char_traitsIcEENS_9allocatorIcEEEEP11SDL_TextureEENS_22__unordered_map_hasherIS7_SA_NS_4hashIS7_EENS_8equal_toIS7_EELb1EEENS_21__unordered_map_equalIS7_SA_SF_SD_Lb1EEENS5_ISA_EEE8__rehashILb1EEEvm, symObjAddr: 0x92B0, symBinAddr: 0x100012940, symSize: 0x1A8 }
  - { offsetInCU: 0x1A01F, offset: 0x42583, size: 0x8, addend: 0x0, symName: __ZNSt3__112__hash_tableINS_17__hash_value_typeINS_12basic_stringIcNS_11char_traitsIcEENS_9allocatorIcEEEEP11SDL_TextureEENS_22__unordered_map_hasherIS7_SA_NS_4hashIS7_EENS_8equal_toIS7_EELb1EEENS_21__unordered_map_equalIS7_SA_SF_SD_Lb1EEENS5_ISA_EEE11__do_rehashILb1EEEvm, symObjAddr: 0x9458, symBinAddr: 0x100012AE8, symSize: 0x288 }
  - { offsetInCU: 0x1A10D, offset: 0x42671, size: 0x8, addend: 0x0, symName: __ZNSt3__110unique_ptrIA_PNS_16__hash_node_baseIPNS_11__hash_nodeINS_17__hash_value_typeINS_12basic_stringIcNS_11char_traitsIcEENS_9allocatorIcEEEEP11SDL_TextureEEPvEEEENS_25__bucket_list_deallocatorINS7_ISH_EEEEE11get_deleterB8ue170006Ev, symObjAddr: 0x974C, symBinAddr: 0x100012DDC, symSize: 0x24 }
  - { offsetInCU: 0x1A133, offset: 0x42697, size: 0x8, addend: 0x0, symName: __ZNSt3__125__bucket_list_deallocatorINS_9allocatorIPNS_16__hash_node_baseIPNS_11__hash_nodeINS_17__hash_value_typeINS_12basic_stringIcNS_11char_traitsIcEENS1_IcEEEEP11SDL_TextureEEPvEEEEEEE7__allocB8ue170006Ev, symObjAddr: 0x9770, symBinAddr: 0x100012E00, symSize: 0x24 }
  - { offsetInCU: 0x1A159, offset: 0x426BD, size: 0x8, addend: 0x0, symName: __ZNSt3__110unique_ptrIA_PNS_16__hash_node_baseIPNS_11__hash_nodeINS_17__hash_value_typeINS_12basic_stringIcNS_11char_traitsIcEENS_9allocatorIcEEEEP11SDL_TextureEEPvEEEENS_25__bucket_list_deallocatorINS7_ISH_EEEEE5resetB8ue170006IPSH_EENS_9enable_ifIXsr28_CheckArrayPointerConversionIT_EE5valueEvE4typeESQ_, symObjAddr: 0x9794, symBinAddr: 0x100012E24, symSize: 0x78 }
  - { offsetInCU: 0x1A1A7, offset: 0x4270B, size: 0x8, addend: 0x0, symName: __ZNSt3__116allocator_traitsINS_9allocatorIPNS_16__hash_node_baseIPNS_11__hash_nodeINS_17__hash_value_typeINS_12basic_stringIcNS_11char_traitsIcEENS1_IcEEEEP11SDL_TextureEEPvEEEEEEE8allocateB8ue170006ERSI_m, symObjAddr: 0x980C, symBinAddr: 0x100012E9C, symSize: 0x2C }
  - { offsetInCU: 0x1A1DA, offset: 0x4273E, size: 0x8, addend: 0x0, symName: __ZNSt3__125__bucket_list_deallocatorINS_9allocatorIPNS_16__hash_node_baseIPNS_11__hash_nodeINS_17__hash_value_typeINS_12basic_stringIcNS_11char_traitsIcEENS1_IcEEEEP11SDL_TextureEEPvEEEEEEE4sizeB8ue170006Ev, symObjAddr: 0x9838, symBinAddr: 0x100012EC8, symSize: 0x24 }
  - { offsetInCU: 0x1A200, offset: 0x42764, size: 0x8, addend: 0x0, symName: __ZNSt3__117__compressed_pairIPPNS_16__hash_node_baseIPNS_11__hash_nodeINS_17__hash_value_typeINS_12basic_stringIcNS_11char_traitsIcEENS_9allocatorIcEEEEP11SDL_TextureEEPvEEEENS_25__bucket_list_deallocatorINS7_ISH_EEEEE6secondB8ue170006Ev, symObjAddr: 0x985C, symBinAddr: 0x100012EEC, symSize: 0x28 }
  - { offsetInCU: 0x1A226, offset: 0x4278A, size: 0x8, addend: 0x0, symName: __ZNSt3__122__compressed_pair_elemINS_25__bucket_list_deallocatorINS_9allocatorIPNS_16__hash_node_baseIPNS_11__hash_nodeINS_17__hash_value_typeINS_12basic_stringIcNS_11char_traitsIcEENS2_IcEEEEP11SDL_TextureEEPvEEEEEEEELi1ELb0EE5__getB8ue170006Ev, symObjAddr: 0x9884, symBinAddr: 0x100012F14, symSize: 0x14 }
  - { offsetInCU: 0x1A24C, offset: 0x427B0, size: 0x8, addend: 0x0, symName: __ZNSt3__117__compressed_pairImNS_9allocatorIPNS_16__hash_node_baseIPNS_11__hash_nodeINS_17__hash_value_typeINS_12basic_stringIcNS_11char_traitsIcEENS1_IcEEEEP11SDL_TextureEEPvEEEEEEE6secondB8ue170006Ev, symObjAddr: 0x9898, symBinAddr: 0x100012F28, symSize: 0x24 }
  - { offsetInCU: 0x1A272, offset: 0x427D6, size: 0x8, addend: 0x0, symName: __ZNSt3__122__compressed_pair_elemINS_9allocatorIPNS_16__hash_node_baseIPNS_11__hash_nodeINS_17__hash_value_typeINS_12basic_stringIcNS_11char_traitsIcEENS1_IcEEEEP11SDL_TextureEEPvEEEEEELi1ELb1EE5__getB8ue170006Ev, symObjAddr: 0x98BC, symBinAddr: 0x100012F4C, symSize: 0x14 }
  - { offsetInCU: 0x1A298, offset: 0x427FC, size: 0x8, addend: 0x0, symName: __ZNSt3__117__compressed_pairIPPNS_16__hash_node_baseIPNS_11__hash_nodeINS_17__hash_value_typeINS_12basic_stringIcNS_11char_traitsIcEENS_9allocatorIcEEEEP11SDL_TextureEEPvEEEENS_25__bucket_list_deallocatorINS7_ISH_EEEEE5firstB8ue170006Ev, symObjAddr: 0x98D0, symBinAddr: 0x100012F60, symSize: 0x24 }
  - { offsetInCU: 0x1A2BE, offset: 0x42822, size: 0x8, addend: 0x0, symName: __ZNSt3__125__bucket_list_deallocatorINS_9allocatorIPNS_16__hash_node_baseIPNS_11__hash_nodeINS_17__hash_value_typeINS_12basic_stringIcNS_11char_traitsIcEENS1_IcEEEEP11SDL_TextureEEPvEEEEEEEclB8ue170006EPSH_, symObjAddr: 0x98F4, symBinAddr: 0x100012F84, symSize: 0x58 }
  - { offsetInCU: 0x1A2F3, offset: 0x42857, size: 0x8, addend: 0x0, symName: __ZNSt3__122__compressed_pair_elemIPPNS_16__hash_node_baseIPNS_11__hash_nodeINS_17__hash_value_typeINS_12basic_stringIcNS_11char_traitsIcEENS_9allocatorIcEEEEP11SDL_TextureEEPvEEEELi0ELb0EE5__getB8ue170006Ev, symObjAddr: 0x994C, symBinAddr: 0x100012FDC, symSize: 0x14 }
  - { offsetInCU: 0x1A319, offset: 0x4287D, size: 0x8, addend: 0x0, symName: __ZNSt3__116allocator_traitsINS_9allocatorIPNS_16__hash_node_baseIPNS_11__hash_nodeINS_17__hash_value_typeINS_12basic_stringIcNS_11char_traitsIcEENS1_IcEEEEP11SDL_TextureEEPvEEEEEEE10deallocateB8ue170006ERSI_PSH_m, symObjAddr: 0x9960, symBinAddr: 0x100012FF0, symSize: 0x34 }
  - { offsetInCU: 0x1A35B, offset: 0x428BF, size: 0x8, addend: 0x0, symName: __ZNSt3__19allocatorIPNS_16__hash_node_baseIPNS_11__hash_nodeINS_17__hash_value_typeINS_12basic_stringIcNS_11char_traitsIcEENS0_IcEEEEP11SDL_TextureEEPvEEEEE10deallocateB8ue170006EPSG_m, symObjAddr: 0x9994, symBinAddr: 0x100013024, symSize: 0x40 }
  - { offsetInCU: 0x1A39D, offset: 0x42901, size: 0x8, addend: 0x0, symName: __ZNSt3__19allocatorIPNS_16__hash_node_baseIPNS_11__hash_nodeINS_17__hash_value_typeINS_12basic_stringIcNS_11char_traitsIcEENS0_IcEEEEP11SDL_TextureEEPvEEEEE8allocateB8ue170006Em, symObjAddr: 0x9ADC, symBinAddr: 0x100013064, symSize: 0x58 }
  - { offsetInCU: 0x1A3DB, offset: 0x4293F, size: 0x8, addend: 0x0, symName: __ZNSt3__116allocator_traitsINS_9allocatorIPNS_16__hash_node_baseIPNS_11__hash_nodeINS_17__hash_value_typeINS_12basic_stringIcNS_11char_traitsIcEENS1_IcEEEEP11SDL_TextureEEPvEEEEEEE8max_sizeB8ue170006ISI_vEEmRKSI_, symObjAddr: 0x9B34, symBinAddr: 0x1000130BC, symSize: 0x24 }
  - { offsetInCU: 0x1A40A, offset: 0x4296E, size: 0x8, addend: 0x0, symName: __ZNKSt3__19allocatorIPNS_16__hash_node_baseIPNS_11__hash_nodeINS_17__hash_value_typeINS_12basic_stringIcNS_11char_traitsIcEENS0_IcEEEEP11SDL_TextureEEPvEEEEE8max_sizeB8ue170006Ev, symObjAddr: 0x9B58, symBinAddr: 0x1000130E0, symSize: 0x14 }
  - { offsetInCU: 0x1A430, offset: 0x42994, size: 0x8, addend: 0x0, symName: __ZNSt3__117__compressed_pairImNS_9allocatorIPNS_16__hash_node_baseIPNS_11__hash_nodeINS_17__hash_value_typeINS_12basic_stringIcNS_11char_traitsIcEENS1_IcEEEEP11SDL_TextureEEPvEEEEEEE5firstB8ue170006Ev, symObjAddr: 0x9B6C, symBinAddr: 0x1000130F4, symSize: 0x24 }
  - { offsetInCU: 0x1A456, offset: 0x429BA, size: 0x8, addend: 0x0, symName: __ZNSt3__122__compressed_pair_elemINS_16__hash_node_baseIPNS_11__hash_nodeINS_17__hash_value_typeINS_12basic_stringIcNS_11char_traitsIcEENS_9allocatorIcEEEEP11SDL_TextureEEPvEEEELi0ELb0EE5__getB8ue170006Ev, symObjAddr: 0x9C34, symBinAddr: 0x100013134, symSize: 0x14 }
  - { offsetInCU: 0x1A47C, offset: 0x429E0, size: 0x8, addend: 0x0, symName: __ZNKSt3__117__compressed_pairIPNS_11__hash_nodeINS_17__hash_value_typeINS_12basic_stringIcNS_11char_traitsIcEENS_9allocatorIcEEEEP11SDL_TextureEEPvEENS_22__hash_node_destructorINS6_ISD_EEEEE5firstB8ue170006Ev, symObjAddr: 0x9C48, symBinAddr: 0x100013148, symSize: 0x24 }
  - { offsetInCU: 0x1A4A2, offset: 0x42A06, size: 0x8, addend: 0x0, symName: __ZNKSt3__122__compressed_pair_elemIPNS_11__hash_nodeINS_17__hash_value_typeINS_12basic_stringIcNS_11char_traitsIcEENS_9allocatorIcEEEEP11SDL_TextureEEPvEELi0ELb0EE5__getB8ue170006Ev, symObjAddr: 0x9C6C, symBinAddr: 0x10001316C, symSize: 0x14 }
  - { offsetInCU: 0x1A4C8, offset: 0x42A2C, size: 0x8, addend: 0x0, symName: __ZNSt3__117__compressed_pairIPNS_11__hash_nodeINS_17__hash_value_typeINS_12basic_stringIcNS_11char_traitsIcEENS_9allocatorIcEEEEP11SDL_TextureEEPvEENS_22__hash_node_destructorINS6_ISD_EEEEE5firstB8ue170006Ev, symObjAddr: 0x9C80, symBinAddr: 0x100013180, symSize: 0x24 }
  - { offsetInCU: 0x1A4EE, offset: 0x42A52, size: 0x8, addend: 0x0, symName: __ZNSt3__122__compressed_pair_elemIPNS_11__hash_nodeINS_17__hash_value_typeINS_12basic_stringIcNS_11char_traitsIcEENS_9allocatorIcEEEEP11SDL_TextureEEPvEELi0ELb0EE5__getB8ue170006Ev, symObjAddr: 0x9CA4, symBinAddr: 0x1000131A4, symSize: 0x14 }
  - { offsetInCU: 0x1A514, offset: 0x42A78, size: 0x8, addend: 0x0, symName: __ZNSt3__110unique_ptrINS_11__hash_nodeINS_17__hash_value_typeINS_12basic_stringIcNS_11char_traitsIcEENS_9allocatorIcEEEEP11SDL_TextureEEPvEENS_22__hash_node_destructorINS6_ISD_EEEEED2B8ue170006Ev, symObjAddr: 0x9CB8, symBinAddr: 0x1000131B8, symSize: 0x30 }
  - { offsetInCU: 0x1A53E, offset: 0x42AA2, size: 0x8, addend: 0x0, symName: __ZNSt3__110unique_ptrINS_11__hash_nodeINS_17__hash_value_typeINS_12basic_stringIcNS_11char_traitsIcEENS_9allocatorIcEEEEP11SDL_TextureEEPvEENS_22__hash_node_destructorINS6_ISD_EEEEE5resetB8ue170006EPSD_, symObjAddr: 0x9CE8, symBinAddr: 0x1000131E8, symSize: 0x78 }
  - { offsetInCU: 0x1A583, offset: 0x42AE7, size: 0x8, addend: 0x0, symName: __ZNSt3__122__hash_node_destructorINS_9allocatorINS_11__hash_nodeINS_17__hash_value_typeINS_12basic_stringIcNS_11char_traitsIcEENS1_IcEEEEP11SDL_TextureEEPvEEEEEclB8ue170006EPSD_, symObjAddr: 0x9D60, symBinAddr: 0x100013260, symSize: 0x98 }
  - { offsetInCU: 0x1A5B8, offset: 0x42B1C, size: 0x8, addend: 0x0, symName: __ZNSt3__116allocator_traitsINS_9allocatorINS_11__hash_nodeINS_17__hash_value_typeINS_12basic_stringIcNS_11char_traitsIcEENS1_IcEEEEP11SDL_TextureEEPvEEEEE7destroyB8ue170006INS_4pairIKS8_SA_EEvvEEvRSE_PT_, symObjAddr: 0x9DF8, symBinAddr: 0x1000132F8, symSize: 0x28 }
  - { offsetInCU: 0x1A5F5, offset: 0x42B59, size: 0x8, addend: 0x0, symName: __ZNSt3__116allocator_traitsINS_9allocatorINS_11__hash_nodeINS_17__hash_value_typeINS_12basic_stringIcNS_11char_traitsIcEENS1_IcEEEEP11SDL_TextureEEPvEEEEE10deallocateB8ue170006ERSE_PSD_m, symObjAddr: 0x9E20, symBinAddr: 0x100013320, symSize: 0x34 }
  - { offsetInCU: 0x1A637, offset: 0x42B9B, size: 0x8, addend: 0x0, symName: __ZNSt3__14pairIKNS_12basic_stringIcNS_11char_traitsIcEENS_9allocatorIcEEEEP11SDL_TextureED1Ev, symObjAddr: 0x9E54, symBinAddr: 0x100013354, symSize: 0x2C }
  - { offsetInCU: 0x1A663, offset: 0x42BC7, size: 0x8, addend: 0x0, symName: __ZNSt3__14pairIKNS_12basic_stringIcNS_11char_traitsIcEENS_9allocatorIcEEEEP11SDL_TextureED2Ev, symObjAddr: 0x9E80, symBinAddr: 0x100013380, symSize: 0x2C }
  - { offsetInCU: 0x1A68F, offset: 0x42BF3, size: 0x8, addend: 0x0, symName: __ZNSt3__19allocatorINS_11__hash_nodeINS_17__hash_value_typeINS_12basic_stringIcNS_11char_traitsIcEENS0_IcEEEEP11SDL_TextureEEPvEEE10deallocateB8ue170006EPSC_m, symObjAddr: 0x9EAC, symBinAddr: 0x1000133AC, symSize: 0x44 }
  - { offsetInCU: 0x1A6D1, offset: 0x42C35, size: 0x8, addend: 0x0, symName: __ZNSt3__14pairINS_15__hash_iteratorIPNS_11__hash_nodeINS_17__hash_value_typeINS_12basic_stringIcNS_11char_traitsIcEENS_9allocatorIcEEEEP11SDL_TextureEEPvEEEEbEC2B8ue170006ISG_RbLSD_0EEEOT_OT0_, symObjAddr: 0x9EF0, symBinAddr: 0x1000133F0, symSize: 0x38 }
  - { offsetInCU: 0x1A72F, offset: 0x42C93, size: 0x8, addend: 0x0, symName: __ZNSt3__15tupleIJRKNS_12basic_stringIcNS_11char_traitsIcEENS_9allocatorIcEEEEEEC1B8ue170006INS_4_AndELi0EEES8_, symObjAddr: 0x9F28, symBinAddr: 0x100013428, symSize: 0x34 }
  - { offsetInCU: 0x1A778, offset: 0x42CDC, size: 0x8, addend: 0x0, symName: __ZNSt3__15tupleIJRKNS_12basic_stringIcNS_11char_traitsIcEENS_9allocatorIcEEEEEEC2B8ue170006INS_4_AndELi0EEES8_, symObjAddr: 0x9F5C, symBinAddr: 0x10001345C, symSize: 0x34 }
  - { offsetInCU: 0x1A7C1, offset: 0x42D25, size: 0x8, addend: 0x0, symName: __ZNSt3__112__tuple_implINS_15__tuple_indicesIJLm0EEEEJRKNS_12basic_stringIcNS_11char_traitsIcEENS_9allocatorIcEEEEEEC1B8ue170006IJLm0EEJSA_EJEJEJSA_EEENS1_IJXspT_EEEENS_13__tuple_typesIJDpT0_EEENS1_IJXspT1_EEEENSE_IJDpT2_EEEDpOT3_, symObjAddr: 0x9F90, symBinAddr: 0x100013490, symSize: 0x34 }
  - { offsetInCU: 0x1A858, offset: 0x42DBC, size: 0x8, addend: 0x0, symName: __ZNSt3__112__tuple_implINS_15__tuple_indicesIJLm0EEEEJRKNS_12basic_stringIcNS_11char_traitsIcEENS_9allocatorIcEEEEEEC2B8ue170006IJLm0EEJSA_EJEJEJSA_EEENS1_IJXspT_EEEENS_13__tuple_typesIJDpT0_EEENS1_IJXspT1_EEEENSE_IJDpT2_EEEDpOT3_, symObjAddr: 0x9FC4, symBinAddr: 0x1000134C4, symSize: 0x34 }
  - { offsetInCU: 0x1A8EF, offset: 0x42E53, size: 0x8, addend: 0x0, symName: __ZNSt3__112__tuple_leafILm0ERKNS_12basic_stringIcNS_11char_traitsIcEENS_9allocatorIcEEEELb0EEC2B8ue170006IS8_vEEOT_, symObjAddr: 0x9FF8, symBinAddr: 0x1000134F8, symSize: 0x20 }
  - { offsetInCU: 0x1A933, offset: 0x42E97, size: 0x8, addend: 0x0, symName: __ZNSt3__114pointer_traitsIPNS_17__hash_value_typeINS_12basic_stringIcNS_11char_traitsIcEENS_9allocatorIcEEEEP11SDL_TextureEEE10pointer_toB8ue170006ERSA_, symObjAddr: 0xA018, symBinAddr: 0x100013518, symSize: 0x14 }
  - { offsetInCU: 0x1A956, offset: 0x42EBA, size: 0x8, addend: 0x0, symName: __ZNSt3__112basic_stringIcNS_11char_traitsIcEENS_9allocatorIcEEEC2B8ue170006Ev, symObjAddr: 0xA114, symBinAddr: 0x100013564, symSize: 0x48 }
  - { offsetInCU: 0x1A986, offset: 0x42EEA, size: 0x8, addend: 0x0, symName: __ZNSt3__16vectorIP6EntityNS_9allocatorIS2_EEE11__make_iterB8ue170006EPS2_, symObjAddr: 0xB65C, symBinAddr: 0x1000135C0, symSize: 0x30 }
  - { offsetInCU: 0x1A9BB, offset: 0x42F1F, size: 0x8, addend: 0x0, symName: __ZNSt3__111__wrap_iterIPP6EntityEC1B8ue170006ES3_, symObjAddr: 0xB68C, symBinAddr: 0x1000135F0, symSize: 0x34 }
  - { offsetInCU: 0x1A9F3, offset: 0x42F57, size: 0x8, addend: 0x0, symName: __ZNSt3__111__wrap_iterIPP6EntityEC2B8ue170006ES3_, symObjAddr: 0xB6C0, symBinAddr: 0x100013624, symSize: 0x20 }
  - { offsetInCU: 0x1AA2B, offset: 0x42F8F, size: 0x8, addend: 0x0, symName: __ZNSt3__112basic_stringIcNS_11char_traitsIcEENS_9allocatorIcEEE6insertB8ue170006EmRKS5_, symObjAddr: 0xB790, symBinAddr: 0x100013644, symSize: 0x5C }
  - { offsetInCU: 0x1AA6F, offset: 0x42FD3, size: 0x8, addend: 0x0, symName: __ZNSt3__112basic_stringIcNS_11char_traitsIcEENS_9allocatorIcEEE13__move_assignB8ue170006ERS5_NS_17integral_constantIbLb1EEE, symObjAddr: 0xB868, symBinAddr: 0x1000136A0, symSize: 0xC8 }
  - { offsetInCU: 0x1AAB2, offset: 0x43016, size: 0x8, addend: 0x0, symName: __ZNSt3__116allocator_traitsINS_9allocatorIcEEE10deallocateB8ue170006ERS2_Pcm, symObjAddr: 0xB930, symBinAddr: 0x100013768, symSize: 0x34 }
  - { offsetInCU: 0x1AAF4, offset: 0x43058, size: 0x8, addend: 0x0, symName: __ZNKSt3__112basic_stringIcNS_11char_traitsIcEENS_9allocatorIcEEE14__get_long_capB8ue170006Ev, symObjAddr: 0xB988, symBinAddr: 0x10001379C, symSize: 0x30 }
  - { offsetInCU: 0x1AB1A, offset: 0x4307E, size: 0x8, addend: 0x0, symName: __ZNSt3__112basic_stringIcNS_11char_traitsIcEENS_9allocatorIcEEE19__move_assign_allocB8ue170006ERS5_, symObjAddr: 0xB9B8, symBinAddr: 0x1000137CC, symSize: 0x2C }
  - { offsetInCU: 0x1AB4F, offset: 0x430B3, size: 0x8, addend: 0x0, symName: __ZNSt3__111char_traitsIcE6assignB8ue170006ERcRKc, symObjAddr: 0xBA5C, symBinAddr: 0x1000137F8, symSize: 0x24 }
  - { offsetInCU: 0x1AB80, offset: 0x430E4, size: 0x8, addend: 0x0, symName: __ZNSt3__19allocatorIcE10deallocateB8ue170006EPcm, symObjAddr: 0xBA80, symBinAddr: 0x10001381C, symSize: 0x40 }
  - { offsetInCU: 0x1ABC2, offset: 0x43126, size: 0x8, addend: 0x0, symName: __ZNSt3__112basic_stringIcNS_11char_traitsIcEENS_9allocatorIcEEE19__move_assign_allocB8ue170006ERS5_NS_17integral_constantIbLb1EEE, symObjAddr: 0xBAF8, symBinAddr: 0x10001385C, symSize: 0x38 }
  - { offsetInCU: 0x1AC03, offset: 0x43167, size: 0x8, addend: 0x0, symName: __ZNSt3__16vectorINS_12basic_stringIcNS_11char_traitsIcEENS_9allocatorIcEEEENS4_IS6_EEEC2B8ue170006ESt16initializer_listIS6_E, symObjAddr: 0xBB30, symBinAddr: 0x100013894, symSize: 0x120 }
  - { offsetInCU: 0x1AC55, offset: 0x431B9, size: 0x8, addend: 0x0, symName: __ZNKSt16initializer_listINSt3__112basic_stringIcNS0_11char_traitsIcEENS0_9allocatorIcEEEEE4sizeB8ue170006Ev, symObjAddr: 0xBC90, symBinAddr: 0x1000139F4, symSize: 0x18 }
  - { offsetInCU: 0x1AC7B, offset: 0x431DF, size: 0x8, addend: 0x0, symName: __ZNSt3__16vectorINS_12basic_stringIcNS_11char_traitsIcEENS_9allocatorIcEEEENS4_IS6_EEE11__vallocateB8ue170006Em, symObjAddr: 0xBCA8, symBinAddr: 0x100013A0C, symSize: 0xB4 }
  - { offsetInCU: 0x1ACC0, offset: 0x43224, size: 0x8, addend: 0x0, symName: __ZNSt3__16vectorINS_12basic_stringIcNS_11char_traitsIcEENS_9allocatorIcEEEENS4_IS6_EEE18__construct_at_endIPKS6_SB_EEvT_T0_m, symObjAddr: 0xBD5C, symBinAddr: 0x100013AC0, symSize: 0x8C }
  - { offsetInCU: 0x1AD37, offset: 0x4329B, size: 0x8, addend: 0x0, symName: __ZNKSt16initializer_listINSt3__112basic_stringIcNS0_11char_traitsIcEENS0_9allocatorIcEEEEE5beginB8ue170006Ev, symObjAddr: 0xBDE8, symBinAddr: 0x100013B4C, symSize: 0x18 }
  - { offsetInCU: 0x1AD5D, offset: 0x432C1, size: 0x8, addend: 0x0, symName: __ZNKSt16initializer_listINSt3__112basic_stringIcNS0_11char_traitsIcEENS0_9allocatorIcEEEEE3endB8ue170006Ev, symObjAddr: 0xBE00, symBinAddr: 0x100013B64, symSize: 0x28 }
  - { offsetInCU: 0x1AD83, offset: 0x432E7, size: 0x8, addend: 0x0, symName: __ZNSt3__128__exception_guard_exceptionsINS_6vectorINS_12basic_stringIcNS_11char_traitsIcEENS_9allocatorIcEEEENS5_IS7_EEE16__destroy_vectorEE10__completeB8ue170006Ev, symObjAddr: 0xBE28, symBinAddr: 0x100013B8C, symSize: 0x1C }
  - { offsetInCU: 0x1ADA9, offset: 0x4330D, size: 0x8, addend: 0x0, symName: __ZNSt3__128__exception_guard_exceptionsINS_6vectorINS_12basic_stringIcNS_11char_traitsIcEENS_9allocatorIcEEEENS5_IS7_EEE16__destroy_vectorEED1B8ue170006Ev, symObjAddr: 0xBE44, symBinAddr: 0x100013BA8, symSize: 0x2C }
  - { offsetInCU: 0x1ADD3, offset: 0x43337, size: 0x8, addend: 0x0, symName: __ZNSt3__128__exception_guard_exceptionsINS_6vectorINS_12basic_stringIcNS_11char_traitsIcEENS_9allocatorIcEEEENS5_IS7_EEE16__destroy_vectorEEC1B8ue170006ESA_, symObjAddr: 0xBE70, symBinAddr: 0x100013BD4, symSize: 0x34 }
  - { offsetInCU: 0x1AE0B, offset: 0x4336F, size: 0x8, addend: 0x0, symName: __ZNSt3__128__exception_guard_exceptionsINS_6vectorINS_12basic_stringIcNS_11char_traitsIcEENS_9allocatorIcEEEENS5_IS7_EEE16__destroy_vectorEEC2B8ue170006ESA_, symObjAddr: 0xBEA4, symBinAddr: 0x100013C08, symSize: 0x24 }
  - { offsetInCU: 0x1AE86, offset: 0x433EA, size: 0x8, addend: 0x0, symName: __ZNSt3__14pairIPKNS_12basic_stringIcNS_11char_traitsIcEENS_9allocatorIcEEEES8_EC1B8ue170006IS8_S8_LPv0EEEOT_OT0_, symObjAddr: 0xC668, symBinAddr: 0x100013EBC, symSize: 0x3C }
  - { offsetInCU: 0x1AEE4, offset: 0x43448, size: 0x8, addend: 0x0, symName: __ZNSt3__14pairIPKNS_12basic_stringIcNS_11char_traitsIcEENS_9allocatorIcEEEES8_EC2B8ue170006IS8_S8_LPv0EEEOT_OT0_, symObjAddr: 0xC6A4, symBinAddr: 0x100013EF8, symSize: 0x34 }
  - { offsetInCU: 0x1AF42, offset: 0x434A6, size: 0x8, addend: 0x0, symName: __ZNSt3__118__unwrap_iter_implIPKNS_12basic_stringIcNS_11char_traitsIcEENS_9allocatorIcEEEELb1EE8__unwrapB8ue170006ES8_, symObjAddr: 0xC6D8, symBinAddr: 0x100013F2C, symSize: 0x24 }
  - { offsetInCU: 0x1AF67, offset: 0x434CB, size: 0x8, addend: 0x0, symName: __ZNSt3__129_AllocatorDestroyRangeReverseINS_9allocatorINS_12basic_stringIcNS_11char_traitsIcEENS1_IcEEEEEEPS6_EC1B8ue170006ERS7_RS8_SB_, symObjAddr: 0xC75C, symBinAddr: 0x100013FB0, symSize: 0x44 }
  - { offsetInCU: 0x1AFBE, offset: 0x43522, size: 0x8, addend: 0x0, symName: __ZNSt3__116allocator_traitsINS_9allocatorINS_12basic_stringIcNS_11char_traitsIcEENS1_IcEEEEEEE9constructB8ue170006IS6_JRKS6_EvEEvRS7_PT_DpOT0_, symObjAddr: 0xC7A0, symBinAddr: 0x100013FF4, symSize: 0x34 }
  - { offsetInCU: 0x1B016, offset: 0x4357A, size: 0x8, addend: 0x0, symName: __ZNSt3__128__exception_guard_exceptionsINS_29_AllocatorDestroyRangeReverseINS_9allocatorINS_12basic_stringIcNS_11char_traitsIcEENS2_IcEEEEEEPS7_EEE10__completeB8ue170006Ev, symObjAddr: 0xC7D4, symBinAddr: 0x100014028, symSize: 0x1C }
  - { offsetInCU: 0x1B03C, offset: 0x435A0, size: 0x8, addend: 0x0, symName: __ZNSt3__128__exception_guard_exceptionsINS_29_AllocatorDestroyRangeReverseINS_9allocatorINS_12basic_stringIcNS_11char_traitsIcEENS2_IcEEEEEEPS7_EEED1B8ue170006Ev, symObjAddr: 0xC7F0, symBinAddr: 0x100014044, symSize: 0x2C }
  - { offsetInCU: 0x1B066, offset: 0x435CA, size: 0x8, addend: 0x0, symName: __ZNSt3__128__exception_guard_exceptionsINS_29_AllocatorDestroyRangeReverseINS_9allocatorINS_12basic_stringIcNS_11char_traitsIcEENS2_IcEEEEEEPS7_EEEC1B8ue170006ESA_, symObjAddr: 0xC81C, symBinAddr: 0x100014070, symSize: 0x34 }
  - { offsetInCU: 0x1B09F, offset: 0x43603, size: 0x8, addend: 0x0, symName: __ZNSt3__128__exception_guard_exceptionsINS_29_AllocatorDestroyRangeReverseINS_9allocatorINS_12basic_stringIcNS_11char_traitsIcEENS2_IcEEEEEEPS7_EEEC2B8ue170006ESA_, symObjAddr: 0xC850, symBinAddr: 0x1000140A4, symSize: 0x30 }
  - { offsetInCU: 0x1B0D8, offset: 0x4363C, size: 0x8, addend: 0x0, symName: __ZNSt3__129_AllocatorDestroyRangeReverseINS_9allocatorINS_12basic_stringIcNS_11char_traitsIcEENS1_IcEEEEEEPS6_EC2B8ue170006ERS7_RS8_SB_, symObjAddr: 0xC880, symBinAddr: 0x1000140D4, symSize: 0x38 }
  - { offsetInCU: 0x1B12F, offset: 0x43693, size: 0x8, addend: 0x0, symName: __ZNSt3__19allocatorINS_12basic_stringIcNS_11char_traitsIcEENS0_IcEEEEE9constructB8ue170006IS5_JRKS5_EEEvPT_DpOT0_, symObjAddr: 0xC8B8, symBinAddr: 0x10001410C, symSize: 0x30 }
  - { offsetInCU: 0x1B185, offset: 0x436E9, size: 0x8, addend: 0x0, symName: __ZNSt3__128__exception_guard_exceptionsINS_29_AllocatorDestroyRangeReverseINS_9allocatorINS_12basic_stringIcNS_11char_traitsIcEENS2_IcEEEEEEPS7_EEED2B8ue170006Ev, symObjAddr: 0xC8E8, symBinAddr: 0x10001413C, symSize: 0x50 }
  - { offsetInCU: 0x1B1AF, offset: 0x43713, size: 0x8, addend: 0x0, symName: __ZNKSt3__129_AllocatorDestroyRangeReverseINS_9allocatorINS_12basic_stringIcNS_11char_traitsIcEENS1_IcEEEEEEPS6_EclB8ue170006Ev, symObjAddr: 0xC938, symBinAddr: 0x10001418C, symSize: 0x68 }
  - { offsetInCU: 0x1B1D5, offset: 0x43739, size: 0x8, addend: 0x0, symName: __ZNSt3__118__unwrap_iter_implIPNS_12basic_stringIcNS_11char_traitsIcEENS_9allocatorIcEEEELb1EE8__unwrapB8ue170006ES7_, symObjAddr: 0xCB94, symBinAddr: 0x100014264, symSize: 0x24 }
  - { offsetInCU: 0x1B1FA, offset: 0x4375E, size: 0x8, addend: 0x0, symName: __ZNSt3__118__unwrap_iter_implIPNS_12basic_stringIcNS_11char_traitsIcEENS_9allocatorIcEEEELb1EE8__rewrapB8ue170006ES7_S7_, symObjAddr: 0xCBB8, symBinAddr: 0x100014288, symSize: 0x58 }
  - { offsetInCU: 0x1B22F, offset: 0x43793, size: 0x8, addend: 0x0, symName: __ZNSt3__128__exception_guard_exceptionsINS_6vectorINS_12basic_stringIcNS_11char_traitsIcEENS_9allocatorIcEEEENS5_IS7_EEE16__destroy_vectorEED2B8ue170006Ev, symObjAddr: 0xCC30, symBinAddr: 0x1000142E0, symSize: 0x48 }
  - { offsetInCU: 0x1B259, offset: 0x437BD, size: 0x8, addend: 0x0, symName: __ZNSt3__16vectorIP6EntityNS_9allocatorIS2_EEE9__end_capB8ue170006Ev, symObjAddr: 0xCC78, symBinAddr: 0x100014328, symSize: 0x28 }
  - { offsetInCU: 0x1B285, offset: 0x437E9, size: 0x8, addend: 0x0, symName: __ZNSt3__16vectorIP6EntityNS_9allocatorIS2_EEE22__construct_one_at_endB8ue170006IJS2_EEEvDpOT_, symObjAddr: 0xCCA0, symBinAddr: 0x100014350, symSize: 0x90 }
  - { offsetInCU: 0x1B2D5, offset: 0x43839, size: 0x8, addend: 0x0, symName: __ZNSt3__16vectorIP6EntityNS_9allocatorIS2_EEE21__push_back_slow_pathIS2_EEvOT_, symObjAddr: 0xCD30, symBinAddr: 0x1000143E0, symSize: 0xD8 }
  - { offsetInCU: 0x1B335, offset: 0x43899, size: 0x8, addend: 0x0, symName: __ZNSt3__117__compressed_pairIPP6EntityNS_9allocatorIS2_EEE5firstB8ue170006Ev, symObjAddr: 0xCE08, symBinAddr: 0x1000144B8, symSize: 0x24 }
  - { offsetInCU: 0x1B35B, offset: 0x438BF, size: 0x8, addend: 0x0, symName: __ZNSt3__122__compressed_pair_elemIPP6EntityLi0ELb0EE5__getB8ue170006Ev, symObjAddr: 0xCE2C, symBinAddr: 0x1000144DC, symSize: 0x14 }
  - { offsetInCU: 0x1B39A, offset: 0x438FE, size: 0x8, addend: 0x0, symName: __ZNSt3__16vectorIP6EntityNS_9allocatorIS2_EEE21_ConstructTransactionC1B8ue170006ERS5_m, symObjAddr: 0xCE40, symBinAddr: 0x1000144F0, symSize: 0x3C }
  - { offsetInCU: 0x1B3E2, offset: 0x43946, size: 0x8, addend: 0x0, symName: __ZNSt3__116allocator_traitsINS_9allocatorIP6EntityEEE9constructB8ue170006IS3_JS3_EvEEvRS4_PT_DpOT0_, symObjAddr: 0xCE7C, symBinAddr: 0x10001452C, symSize: 0x34 }
  - { offsetInCU: 0x1B43A, offset: 0x4399E, size: 0x8, addend: 0x0, symName: __ZNSt3__16vectorIP6EntityNS_9allocatorIS2_EEE7__allocB8ue170006Ev, symObjAddr: 0xCEB0, symBinAddr: 0x100014560, symSize: 0x28 }
  - { offsetInCU: 0x1B460, offset: 0x439C4, size: 0x8, addend: 0x0, symName: __ZNSt3__16vectorIP6EntityNS_9allocatorIS2_EEE21_ConstructTransactionD1B8ue170006Ev, symObjAddr: 0xCEEC, symBinAddr: 0x10001459C, symSize: 0x2C }
  - { offsetInCU: 0x1B48A, offset: 0x439EE, size: 0x8, addend: 0x0, symName: __ZNSt3__16vectorIP6EntityNS_9allocatorIS2_EEE21_ConstructTransactionC2B8ue170006ERS5_m, symObjAddr: 0xCF18, symBinAddr: 0x1000145C8, symSize: 0x44 }
  - { offsetInCU: 0x1B4D2, offset: 0x43A36, size: 0x8, addend: 0x0, symName: __ZNSt3__19allocatorIP6EntityE9constructB8ue170006IS2_JS2_EEEvPT_DpOT0_, symObjAddr: 0xCF5C, symBinAddr: 0x10001460C, symSize: 0x28 }
  - { offsetInCU: 0x1B528, offset: 0x43A8C, size: 0x8, addend: 0x0, symName: __ZNSt3__117__compressed_pairIPP6EntityNS_9allocatorIS2_EEE6secondB8ue170006Ev, symObjAddr: 0xCF84, symBinAddr: 0x100014634, symSize: 0x24 }
  - { offsetInCU: 0x1B54E, offset: 0x43AB2, size: 0x8, addend: 0x0, symName: __ZNSt3__122__compressed_pair_elemINS_9allocatorIP6EntityEELi1ELb1EE5__getB8ue170006Ev, symObjAddr: 0xCFA8, symBinAddr: 0x100014658, symSize: 0x14 }
  - { offsetInCU: 0x1B574, offset: 0x43AD8, size: 0x8, addend: 0x0, symName: __ZNSt3__16vectorIP6EntityNS_9allocatorIS2_EEE21_ConstructTransactionD2B8ue170006Ev, symObjAddr: 0xCFBC, symBinAddr: 0x10001466C, symSize: 0x20 }
  - { offsetInCU: 0x1B59E, offset: 0x43B02, size: 0x8, addend: 0x0, symName: __ZNKSt3__16vectorIP6EntityNS_9allocatorIS2_EEE11__recommendB8ue170006Em, symObjAddr: 0xCFDC, symBinAddr: 0x10001468C, symSize: 0xB4 }
  - { offsetInCU: 0x1B5F5, offset: 0x43B59, size: 0x8, addend: 0x0, symName: __ZNSt3__114__split_bufferIP6EntityRNS_9allocatorIS2_EEEC1EmmS5_, symObjAddr: 0xD090, symBinAddr: 0x100014740, symSize: 0x44 }
  - { offsetInCU: 0x1B64B, offset: 0x43BAF, size: 0x8, addend: 0x0, symName: __ZNSt3__114__split_bufferIP6EntityRNS_9allocatorIS2_EEED1Ev, symObjAddr: 0xD1E4, symBinAddr: 0x100014894, symSize: 0x2C }
  - { offsetInCU: 0x1B677, offset: 0x43BDB, size: 0x8, addend: 0x0, symName: __ZNKSt3__16vectorIP6EntityNS_9allocatorIS2_EEE8max_sizeEv, symObjAddr: 0xD210, symBinAddr: 0x1000148C0, symSize: 0x60 }
  - { offsetInCU: 0x1B69F, offset: 0x43C03, size: 0x8, addend: 0x0, symName: __ZNKSt3__16vectorIP6EntityNS_9allocatorIS2_EEE20__throw_length_errorB8ue170006Ev, symObjAddr: 0xD270, symBinAddr: 0x100014920, symSize: 0x1C }
  - { offsetInCU: 0x1B6C5, offset: 0x43C29, size: 0x8, addend: 0x0, symName: __ZNKSt3__16vectorIP6EntityNS_9allocatorIS2_EEE8capacityB8ue170006Ev, symObjAddr: 0xD28C, symBinAddr: 0x10001493C, symSize: 0x40 }
  - { offsetInCU: 0x1B6F5, offset: 0x43C59, size: 0x8, addend: 0x0, symName: __ZNSt3__116allocator_traitsINS_9allocatorIP6EntityEEE8max_sizeB8ue170006IS4_vEEmRKS4_, symObjAddr: 0xD2CC, symBinAddr: 0x10001497C, symSize: 0x24 }
  - { offsetInCU: 0x1B724, offset: 0x43C88, size: 0x8, addend: 0x0, symName: __ZNKSt3__16vectorIP6EntityNS_9allocatorIS2_EEE7__allocB8ue170006Ev, symObjAddr: 0xD2F0, symBinAddr: 0x1000149A0, symSize: 0x28 }
  - { offsetInCU: 0x1B74A, offset: 0x43CAE, size: 0x8, addend: 0x0, symName: __ZNKSt3__19allocatorIP6EntityE8max_sizeB8ue170006Ev, symObjAddr: 0xD318, symBinAddr: 0x1000149C8, symSize: 0x14 }
  - { offsetInCU: 0x1B770, offset: 0x43CD4, size: 0x8, addend: 0x0, symName: __ZNKSt3__117__compressed_pairIPP6EntityNS_9allocatorIS2_EEE6secondB8ue170006Ev, symObjAddr: 0xD32C, symBinAddr: 0x1000149DC, symSize: 0x24 }
  - { offsetInCU: 0x1B796, offset: 0x43CFA, size: 0x8, addend: 0x0, symName: __ZNKSt3__122__compressed_pair_elemINS_9allocatorIP6EntityEELi1ELb1EE5__getB8ue170006Ev, symObjAddr: 0xD350, symBinAddr: 0x100014A00, symSize: 0x14 }
  - { offsetInCU: 0x1B7BC, offset: 0x43D20, size: 0x8, addend: 0x0, symName: __ZNKSt3__16vectorIP6EntityNS_9allocatorIS2_EEE9__end_capB8ue170006Ev, symObjAddr: 0xD364, symBinAddr: 0x100014A14, symSize: 0x28 }
  - { offsetInCU: 0x1B7E2, offset: 0x43D46, size: 0x8, addend: 0x0, symName: __ZNKSt3__117__compressed_pairIPP6EntityNS_9allocatorIS2_EEE5firstB8ue170006Ev, symObjAddr: 0xD38C, symBinAddr: 0x100014A3C, symSize: 0x24 }
  - { offsetInCU: 0x1B808, offset: 0x43D6C, size: 0x8, addend: 0x0, symName: __ZNKSt3__122__compressed_pair_elemIPP6EntityLi0ELb0EE5__getB8ue170006Ev, symObjAddr: 0xD3B0, symBinAddr: 0x100014A60, symSize: 0x14 }
  - { offsetInCU: 0x1B82E, offset: 0x43D92, size: 0x8, addend: 0x0, symName: __ZNSt3__114__split_bufferIP6EntityRNS_9allocatorIS2_EEEC2EmmS5_, symObjAddr: 0xD3C4, symBinAddr: 0x100014A74, symSize: 0xD4 }
  - { offsetInCU: 0x1B8A3, offset: 0x43E07, size: 0x8, addend: 0x0, symName: __ZNSt3__117__compressed_pairIPP6EntityRNS_9allocatorIS2_EEEC1B8ue170006IDnS6_EEOT_OT0_, symObjAddr: 0xD498, symBinAddr: 0x100014B48, symSize: 0x3C }
  - { offsetInCU: 0x1B8FB, offset: 0x43E5F, size: 0x8, addend: 0x0, symName: __ZNSt3__114__split_bufferIP6EntityRNS_9allocatorIS2_EEE7__allocB8ue170006Ev, symObjAddr: 0xD514, symBinAddr: 0x100014BC4, symSize: 0x28 }
  - { offsetInCU: 0x1B921, offset: 0x43E85, size: 0x8, addend: 0x0, symName: __ZNSt3__114__split_bufferIP6EntityRNS_9allocatorIS2_EEE9__end_capB8ue170006Ev, symObjAddr: 0xD53C, symBinAddr: 0x100014BEC, symSize: 0x28 }
  - { offsetInCU: 0x1B947, offset: 0x43EAB, size: 0x8, addend: 0x0, symName: __ZNSt3__117__compressed_pairIPP6EntityRNS_9allocatorIS2_EEEC2B8ue170006IDnS6_EEOT_OT0_, symObjAddr: 0xD564, symBinAddr: 0x100014C14, symSize: 0x48 }
  - { offsetInCU: 0x1B99F, offset: 0x43F03, size: 0x8, addend: 0x0, symName: __ZNSt3__122__compressed_pair_elemIPP6EntityLi0ELb0EEC2B8ue170006IDnvEEOT_, symObjAddr: 0xD5AC, symBinAddr: 0x100014C5C, symSize: 0x1C }
  - { offsetInCU: 0x1B9E2, offset: 0x43F46, size: 0x8, addend: 0x0, symName: __ZNSt3__122__compressed_pair_elemIRNS_9allocatorIP6EntityEELi1ELb0EEC2B8ue170006IS5_vEEOT_, symObjAddr: 0xD5C8, symBinAddr: 0x100014C78, symSize: 0x20 }
  - { offsetInCU: 0x1BA25, offset: 0x43F89, size: 0x8, addend: 0x0, symName: __ZNSt3__19allocatorIP6EntityE8allocateB8ue170006Em, symObjAddr: 0xD5E8, symBinAddr: 0x100014C98, symSize: 0x58 }
  - { offsetInCU: 0x1BA59, offset: 0x43FBD, size: 0x8, addend: 0x0, symName: __ZNSt3__117__compressed_pairIPP6EntityRNS_9allocatorIS2_EEE6secondB8ue170006Ev, symObjAddr: 0xD640, symBinAddr: 0x100014CF0, symSize: 0x28 }
  - { offsetInCU: 0x1BA7F, offset: 0x43FE3, size: 0x8, addend: 0x0, symName: __ZNSt3__122__compressed_pair_elemIRNS_9allocatorIP6EntityEELi1ELb0EE5__getB8ue170006Ev, symObjAddr: 0xD668, symBinAddr: 0x100014D18, symSize: 0x18 }
  - { offsetInCU: 0x1BAA5, offset: 0x44009, size: 0x8, addend: 0x0, symName: __ZNSt3__117__compressed_pairIPP6EntityRNS_9allocatorIS2_EEE5firstB8ue170006Ev, symObjAddr: 0xD680, symBinAddr: 0x100014D30, symSize: 0x24 }
  - { offsetInCU: 0x1BACB, offset: 0x4402F, size: 0x8, addend: 0x0, symName: __ZNKSt3__16vectorIP6EntityNS_9allocatorIS2_EEE17__annotate_deleteB8ue170006Ev, symObjAddr: 0xD6A4, symBinAddr: 0x100014D54, symSize: 0xB8 }
  - { offsetInCU: 0x1BAF1, offset: 0x44055, size: 0x8, addend: 0x0, symName: __ZNSt3__116reverse_iteratorIPP6EntityEC1B8ue170006ES3_, symObjAddr: 0xD7D4, symBinAddr: 0x100014E84, symSize: 0x34 }
  - { offsetInCU: 0x1BB29, offset: 0x4408D, size: 0x8, addend: 0x0, symName: __ZNKSt3__116reverse_iteratorIPP6EntityE4baseB8ue170006Ev, symObjAddr: 0xD808, symBinAddr: 0x100014EB8, symSize: 0x18 }
  - { offsetInCU: 0x1BB4F, offset: 0x440B3, size: 0x8, addend: 0x0, symName: __ZNKSt3__16vectorIP6EntityNS_9allocatorIS2_EEE14__annotate_newB8ue170006Em, symObjAddr: 0xD85C, symBinAddr: 0x100014F0C, symSize: 0xAC }
  - { offsetInCU: 0x1BB84, offset: 0x440E8, size: 0x8, addend: 0x0, symName: __ZNKSt3__16vectorIP6EntityNS_9allocatorIS2_EEE31__annotate_contiguous_containerB8ue170006EPKvS7_S7_S7_, symObjAddr: 0xD908, symBinAddr: 0x100014FB8, symSize: 0x20 }
  - { offsetInCU: 0x1BBDA, offset: 0x4413E, size: 0x8, addend: 0x0, symName: __ZNKSt3__16vectorIP6EntityNS_9allocatorIS2_EEE4dataB8ue170006Ev, symObjAddr: 0xD928, symBinAddr: 0x100014FD8, symSize: 0x28 }
  - { offsetInCU: 0x1BC24, offset: 0x44188, size: 0x8, addend: 0x0, symName: __ZNKSt3__111__move_loopINS_17_ClassicAlgPolicyEEclB8ue170006INS_16reverse_iteratorIPP6EntityEES8_S8_EENS_4pairIT_T1_EESA_T0_SB_, symObjAddr: 0xDC40, symBinAddr: 0x1000152F0, symSize: 0xA0 }
  - { offsetInCU: 0x1BC95, offset: 0x441F9, size: 0x8, addend: 0x0, symName: __ZNSt3__18_IterOpsINS_17_ClassicAlgPolicyEE11__iter_moveB8ue170006IRNS_16reverse_iteratorIPP6EntityEEEENS_9enable_ifIXsr12is_referenceIDTdeclsr3stdE7declvalIRT_EEEEE5valueEDTclsr3stdE4movedeclsr3stdE7declvalISC_EEEEE4typeEOSB_, symObjAddr: 0xDE74, symBinAddr: 0x100015524, symSize: 0x28 }
  - { offsetInCU: 0x1BCC3, offset: 0x44227, size: 0x8, addend: 0x0, symName: __ZNKSt3__116reverse_iteratorIPP6EntityEdeB8ue170006Ev, symObjAddr: 0xDE9C, symBinAddr: 0x10001554C, symSize: 0x28 }
  - { offsetInCU: 0x1BCF7, offset: 0x4425B, size: 0x8, addend: 0x0, symName: __ZNSt3__116reverse_iteratorIPP6EntityEppB8ue170006Ev, symObjAddr: 0xDEC4, symBinAddr: 0x100015574, symSize: 0x20 }
  - { offsetInCU: 0x1BD1D, offset: 0x44281, size: 0x8, addend: 0x0, symName: __ZNSt3__18_IterOpsINS_17_ClassicAlgPolicyEE25__validate_iter_referenceB8ue170006IRNS_16reverse_iteratorIPP6EntityEEEEvv, symObjAddr: 0xDEE4, symBinAddr: 0x100015594, symSize: 0x4 }
  - { offsetInCU: 0x1BD3B, offset: 0x4429F, size: 0x8, addend: 0x0, symName: __ZNSt3__118__unwrap_iter_implINS_16reverse_iteratorIPP6EntityEELb0EE8__unwrapB8ue170006ES5_, symObjAddr: 0xDEE8, symBinAddr: 0x100015598, symSize: 0x24 }
  - { offsetInCU: 0x1BD66, offset: 0x442CA, size: 0x8, addend: 0x0, symName: __ZNSt3__14pairINS_16reverse_iteratorIPP6EntityEES5_EC1B8ue170006IS5_S5_LPv0EEEOT_OT0_, symObjAddr: 0xDF0C, symBinAddr: 0x1000155BC, symSize: 0x3C }
  - { offsetInCU: 0x1BDC4, offset: 0x44328, size: 0x8, addend: 0x0, symName: __ZNSt3__14pairINS_16reverse_iteratorIPP6EntityEES5_EC2B8ue170006IS5_S5_LPv0EEEOT_OT0_, symObjAddr: 0xDF48, symBinAddr: 0x1000155F8, symSize: 0x34 }
  - { offsetInCU: 0x1BE22, offset: 0x44386, size: 0x8, addend: 0x0, symName: __ZNSt3__118__unwrap_iter_implINS_16reverse_iteratorIPP6EntityEELb0EE8__rewrapB8ue170006ES5_S5_, symObjAddr: 0xDF7C, symBinAddr: 0x10001562C, symSize: 0x2C }
  - { offsetInCU: 0x1BE53, offset: 0x443B7, size: 0x8, addend: 0x0, symName: __ZNSt3__116reverse_iteratorIPP6EntityEC2B8ue170006ES3_, symObjAddr: 0xDFA8, symBinAddr: 0x100015658, symSize: 0x28 }
  - { offsetInCU: 0x1BE8B, offset: 0x443EF, size: 0x8, addend: 0x0, symName: __ZNSt3__114__split_bufferIP6EntityRNS_9allocatorIS2_EEED2Ev, symObjAddr: 0xDFD0, symBinAddr: 0x100015680, symSize: 0x8C }
  - { offsetInCU: 0x1BEB7, offset: 0x4441B, size: 0x8, addend: 0x0, symName: __ZNSt3__114__split_bufferIP6EntityRNS_9allocatorIS2_EEE5clearB8ue170006Ev, symObjAddr: 0xE05C, symBinAddr: 0x10001570C, symSize: 0x28 }
  - { offsetInCU: 0x1BEDD, offset: 0x44441, size: 0x8, addend: 0x0, symName: __ZNSt3__116allocator_traitsINS_9allocatorIP6EntityEEE10deallocateB8ue170006ERS4_PS3_m, symObjAddr: 0xE084, symBinAddr: 0x100015734, symSize: 0x34 }
  - { offsetInCU: 0x1BF1F, offset: 0x44483, size: 0x8, addend: 0x0, symName: __ZNKSt3__114__split_bufferIP6EntityRNS_9allocatorIS2_EEE8capacityB8ue170006Ev, symObjAddr: 0xE0B8, symBinAddr: 0x100015768, symSize: 0x40 }
  - { offsetInCU: 0x1BF45, offset: 0x444A9, size: 0x8, addend: 0x0, symName: __ZNSt3__114__split_bufferIP6EntityRNS_9allocatorIS2_EEE17__destruct_at_endB8ue170006EPS2_, symObjAddr: 0xE0F8, symBinAddr: 0x1000157A8, symSize: 0x2C }
  - { offsetInCU: 0x1BF79, offset: 0x444DD, size: 0x8, addend: 0x0, symName: __ZNSt3__114__split_bufferIP6EntityRNS_9allocatorIS2_EEE17__destruct_at_endB8ue170006EPS2_NS_17integral_constantIbLb0EEE, symObjAddr: 0xE124, symBinAddr: 0x1000157D4, symSize: 0x80 }
  - { offsetInCU: 0x1BFBA, offset: 0x4451E, size: 0x8, addend: 0x0, symName: __ZNSt3__116allocator_traitsINS_9allocatorIP6EntityEEE7destroyB8ue170006IS3_vEEvRS4_PT_, symObjAddr: 0xE1A4, symBinAddr: 0x100015854, symSize: 0x2C }
  - { offsetInCU: 0x1BFF8, offset: 0x4455C, size: 0x8, addend: 0x0, symName: __ZNSt3__19allocatorIP6EntityE7destroyB8ue170006EPS2_, symObjAddr: 0xE1D0, symBinAddr: 0x100015880, symSize: 0x14 }
  - { offsetInCU: 0x1C02C, offset: 0x44590, size: 0x8, addend: 0x0, symName: __ZNSt3__19allocatorIP6EntityE10deallocateB8ue170006EPS2_m, symObjAddr: 0xE1E4, symBinAddr: 0x100015894, symSize: 0x40 }
  - { offsetInCU: 0x1C06E, offset: 0x445D2, size: 0x8, addend: 0x0, symName: __ZNKSt3__114__split_bufferIP6EntityRNS_9allocatorIS2_EEE9__end_capB8ue170006Ev, symObjAddr: 0xE224, symBinAddr: 0x1000158D4, symSize: 0x28 }
  - { offsetInCU: 0x1C094, offset: 0x445F8, size: 0x8, addend: 0x0, symName: __ZNKSt3__117__compressed_pairIPP6EntityRNS_9allocatorIS2_EEE5firstB8ue170006Ev, symObjAddr: 0xE24C, symBinAddr: 0x1000158FC, symSize: 0x24 }
  - { offsetInCU: 0x1C0BA, offset: 0x4461E, size: 0x8, addend: 0x0, symName: __ZNSt3__123mersenne_twister_engineIjLm32ELm624ELm397ELm31ELj2567483615ELm11ELj4294967295ELm7ELj2636928640ELm15ELj4022730752ELm18ELj1812433253EEC2B8ue170006Ej, symObjAddr: 0xE270, symBinAddr: 0x100015920, symSize: 0x34 }
  - { offsetInCU: 0x1C0F2, offset: 0x44656, size: 0x8, addend: 0x0, symName: __ZNSt3__123mersenne_twister_engineIjLm32ELm624ELm397ELm31ELj2567483615ELm11ELj4294967295ELm7ELj2636928640ELm15ELj4022730752ELm18ELj1812433253EE4seedEj, symObjAddr: 0xE2A4, symBinAddr: 0x100015954, symSize: 0xC4 }
  - { offsetInCU: 0x1C147, offset: 0x446AB, size: 0x8, addend: 0x0, symName: __ZNSt3__123mersenne_twister_engineIjLm32ELm624ELm397ELm31ELj2567483615ELm11ELj4294967295ELm7ELj2636928640ELm15ELj4022730752ELm18ELj1812433253EE8__rshiftB8ue170006ILm30EEENS_9enable_ifIXltT_L_ZNS1_3_DtEEEjE4typeEj, symObjAddr: 0xE368, symBinAddr: 0x100015A18, symSize: 0x18 }
  - { offsetInCU: 0x1C174, offset: 0x446D8, size: 0x8, addend: 0x0, symName: __ZNSt3__124uniform_int_distributionIiEC2B8ue170006Eii, symObjAddr: 0xE380, symBinAddr: 0x100015A30, symSize: 0x3C }
  - { offsetInCU: 0x1C1BA, offset: 0x4471E, size: 0x8, addend: 0x0, symName: __ZNSt3__124uniform_int_distributionIiE10param_typeC1B8ue170006Eii, symObjAddr: 0xE3BC, symBinAddr: 0x100015A6C, symSize: 0x3C }
  - { offsetInCU: 0x1C200, offset: 0x44764, size: 0x8, addend: 0x0, symName: __ZNSt3__124uniform_int_distributionIiE10param_typeC2B8ue170006Eii, symObjAddr: 0xE3F8, symBinAddr: 0x100015AA8, symSize: 0x2C }
  - { offsetInCU: 0x1C246, offset: 0x447AA, size: 0x8, addend: 0x0, symName: __ZNKSt3__124uniform_int_distributionIiE10param_type1bB8ue170006Ev, symObjAddr: 0xE5AC, symBinAddr: 0x100015C5C, symSize: 0x18 }
  - { offsetInCU: 0x1C26C, offset: 0x447D0, size: 0x8, addend: 0x0, symName: __ZNKSt3__124uniform_int_distributionIiE10param_type1aB8ue170006Ev, symObjAddr: 0xE5C4, symBinAddr: 0x100015C74, symSize: 0x18 }
  - { offsetInCU: 0x1C292, offset: 0x447F6, size: 0x8, addend: 0x0, symName: __ZNSt3__125__independent_bits_engineINS_23mersenne_twister_engineIjLm32ELm624ELm397ELm31ELj2567483615ELm11ELj4294967295ELm7ELj2636928640ELm15ELj4022730752ELm18ELj1812433253EEEjEC1ERS2_m, symObjAddr: 0xE5DC, symBinAddr: 0x100015C8C, symSize: 0x3C }
  - { offsetInCU: 0x1C2D9, offset: 0x4483D, size: 0x8, addend: 0x0, symName: __ZNSt3__125__independent_bits_engineINS_23mersenne_twister_engineIjLm32ELm624ELm397ELm31ELj2567483615ELm11ELj4294967295ELm7ELj2636928640ELm15ELj4022730752ELm18ELj1812433253EEEjEclB8ue170006Ev, symObjAddr: 0xE618, symBinAddr: 0x100015CC8, symSize: 0x24 }
  - { offsetInCU: 0x1C2FF, offset: 0x44863, size: 0x8, addend: 0x0, symName: __ZNSt3__114numeric_limitsIjE3maxB8ue170006Ev, symObjAddr: 0xE690, symBinAddr: 0x100015D40, symSize: 0x14 }
  - { offsetInCU: 0x1C313, offset: 0x44877, size: 0x8, addend: 0x0, symName: __ZNSt3__125__independent_bits_engineINS_23mersenne_twister_engineIjLm32ELm624ELm397ELm31ELj2567483615ELm11ELj4294967295ELm7ELj2636928640ELm15ELj4022730752ELm18ELj1812433253EEEjEC2ERS2_m, symObjAddr: 0xE6A4, symBinAddr: 0x100015D54, symSize: 0x22C }
  - { offsetInCU: 0x1C35A, offset: 0x448BE, size: 0x8, addend: 0x0, symName: __ZNSt3__125__independent_bits_engineINS_23mersenne_twister_engineIjLm32ELm624ELm397ELm31ELj2567483615ELm11ELj4294967295ELm7ELj2636928640ELm15ELj4022730752ELm18ELj1812433253EEEjE6__evalENS_17integral_constantIbLb0EEE, symObjAddr: 0xE8D0, symBinAddr: 0x100015F80, symSize: 0x38 }
  - { offsetInCU: 0x1C38C, offset: 0x448F0, size: 0x8, addend: 0x0, symName: __ZNSt3__123mersenne_twister_engineIjLm32ELm624ELm397ELm31ELj2567483615ELm11ELj4294967295ELm7ELj2636928640ELm15ELj4022730752ELm18ELj1812433253EEclEv, symObjAddr: 0xE908, symBinAddr: 0x100015FB8, symSize: 0x14C }
  - { offsetInCU: 0x1C404, offset: 0x44968, size: 0x8, addend: 0x0, symName: __ZNSt3__123mersenne_twister_engineIjLm32ELm624ELm397ELm31ELj2567483615ELm11ELj4294967295ELm7ELj2636928640ELm15ELj4022730752ELm18ELj1812433253EE8__rshiftB8ue170006ILm1EEENS_9enable_ifIXltT_L_ZNS1_3_DtEEEjE4typeEj, symObjAddr: 0xEA54, symBinAddr: 0x100016104, symSize: 0x18 }
  - { offsetInCU: 0x1C431, offset: 0x44995, size: 0x8, addend: 0x0, symName: __ZNSt3__123mersenne_twister_engineIjLm32ELm624ELm397ELm31ELj2567483615ELm11ELj4294967295ELm7ELj2636928640ELm15ELj4022730752ELm18ELj1812433253EE8__rshiftB8ue170006ILm11EEENS_9enable_ifIXltT_L_ZNS1_3_DtEEEjE4typeEj, symObjAddr: 0xEA6C, symBinAddr: 0x10001611C, symSize: 0x18 }
  - { offsetInCU: 0x1C45E, offset: 0x449C2, size: 0x8, addend: 0x0, symName: __ZNSt3__123mersenne_twister_engineIjLm32ELm624ELm397ELm31ELj2567483615ELm11ELj4294967295ELm7ELj2636928640ELm15ELj4022730752ELm18ELj1812433253EE8__lshiftB8ue170006ILm7EEENS_9enable_ifIXltT_Lm32EEjE4typeEj, symObjAddr: 0xEA84, symBinAddr: 0x100016134, symSize: 0x1C }
  - { offsetInCU: 0x1C48B, offset: 0x449EF, size: 0x8, addend: 0x0, symName: __ZNSt3__123mersenne_twister_engineIjLm32ELm624ELm397ELm31ELj2567483615ELm11ELj4294967295ELm7ELj2636928640ELm15ELj4022730752ELm18ELj1812433253EE8__lshiftB8ue170006ILm15EEENS_9enable_ifIXltT_Lm32EEjE4typeEj, symObjAddr: 0xEAA0, symBinAddr: 0x100016150, symSize: 0x1C }
  - { offsetInCU: 0x1C4B8, offset: 0x44A1C, size: 0x8, addend: 0x0, symName: __ZNSt3__123mersenne_twister_engineIjLm32ELm624ELm397ELm31ELj2567483615ELm11ELj4294967295ELm7ELj2636928640ELm15ELj4022730752ELm18ELj1812433253EE8__rshiftB8ue170006ILm18EEENS_9enable_ifIXltT_L_ZNS1_3_DtEEEjE4typeEj, symObjAddr: 0xEABC, symBinAddr: 0x10001616C, symSize: 0x18 }
  - { offsetInCU: 0x1C4E5, offset: 0x44A49, size: 0x8, addend: 0x0, symName: __ZNSt3__123__libcpp_numeric_limitsIjLb1EE3maxB8ue170006Ev, symObjAddr: 0xEAEC, symBinAddr: 0x10001619C, symSize: 0x8 }
  - { offsetInCU: 0x1C4F9, offset: 0x44A5D, size: 0x8, addend: 0x0, symName: __ZNSt3__118__unwrap_iter_implINS_11__wrap_iterIPP6EntityEELb1EE8__rewrapB8ue170006ES5_S4_, symObjAddr: 0xEC64, symBinAddr: 0x100016314, symSize: 0x5C }
  - { offsetInCU: 0x1C52E, offset: 0x44A92, size: 0x8, addend: 0x0, symName: __ZNKSt3__111__wrap_iterIPP6EntityEplB8ue170006El, symObjAddr: 0xECC0, symBinAddr: 0x100016370, symSize: 0x3C }
  - { offsetInCU: 0x1C570, offset: 0x44AD4, size: 0x8, addend: 0x0, symName: __ZNSt3__111__wrap_iterIPP6EntityEpLB8ue170006El, symObjAddr: 0xED20, symBinAddr: 0x1000163D0, symSize: 0x28 }
  - { offsetInCU: 0x1C5A9, offset: 0x44B0D, size: 0x8, addend: 0x0, symName: __ZNSt3__119__to_address_helperINS_11__wrap_iterIPP6EntityEEvE6__callB8ue170006ERKS5_, symObjAddr: 0xED48, symBinAddr: 0x1000163F8, symSize: 0x30 }
  - { offsetInCU: 0x1C5CC, offset: 0x44B30, size: 0x8, addend: 0x0, symName: __ZNSt3__114pointer_traitsINS_11__wrap_iterIPP6EntityEEE10to_addressB8ue170006ES5_, symObjAddr: 0xED78, symBinAddr: 0x100016428, symSize: 0x2C }
  - { offsetInCU: 0x1C5F9, offset: 0x44B5D, size: 0x8, addend: 0x0, symName: __ZNKSt3__110__identityclB8ue170006IRP6EntityEEOT_S6_, symObjAddr: 0xEDD0, symBinAddr: 0x100016480, symSize: 0x18 }
  - { offsetInCU: 0x1C638, offset: 0x44B9C, size: 0x8, addend: 0x0, symName: __ZNSt3__118__unwrap_iter_implINS_11__wrap_iterIPP6EntityEELb1EE8__unwrapB8ue170006ES5_, symObjAddr: 0xEDE8, symBinAddr: 0x100016498, symSize: 0x28 }
  - { offsetInCU: 0x1C65D, offset: 0x44BC1, size: 0x8, addend: 0x0, symName: __ZNSt3__16vectorIP6EntityNS_9allocatorIS2_EEE17__destruct_at_endB8ue170006EPS2_, symObjAddr: 0xEE8C, symBinAddr: 0x10001653C, symSize: 0x4C }
  - { offsetInCU: 0x1C6A2, offset: 0x44C06, size: 0x8, addend: 0x0, symName: __ZNKSt3__111__wrap_iterIPKP6EntityE4baseB8ue170006Ev, symObjAddr: 0xEF60, symBinAddr: 0x100016610, symSize: 0x18 }
  - { offsetInCU: 0x1C6C8, offset: 0x44C2C, size: 0x8, addend: 0x0, symName: __ZNSt3__16vectorIP6EntityNS_9allocatorIS2_EEE22__base_destruct_at_endB8ue170006EPS2_, symObjAddr: 0xEFC0, symBinAddr: 0x100016670, symSize: 0x8C }
  - { offsetInCU: 0x1C70D, offset: 0x44C71, size: 0x8, addend: 0x0, symName: __ZNKSt3__16vectorIP6EntityNS_9allocatorIS2_EEE17__annotate_shrinkB8ue170006Em, symObjAddr: 0xF04C, symBinAddr: 0x1000166FC, symSize: 0xB4 }
  - { offsetInCU: 0x1C766, offset: 0x44CCA, size: 0x8, addend: 0x0, symName: __ZNKSt3__114__move_trivialclB8ue170006IP6EntityS3_Li0EEENS_4pairIPT_PT0_EES6_S6_S8_, symObjAddr: 0xF29C, symBinAddr: 0x10001694C, symSize: 0x48 }
  - { offsetInCU: 0x1C7DA, offset: 0x44D3E, size: 0x8, addend: 0x0, symName: __ZNSt3__14pairIPP6EntityS3_EC1B8ue170006IRS3_S3_LPv0EEEOT_OT0_, symObjAddr: 0xF4C4, symBinAddr: 0x100016B74, symSize: 0x3C }
  - { offsetInCU: 0x1C838, offset: 0x44D9C, size: 0x8, addend: 0x0, symName: __ZNSt3__14pairIPP6EntityS3_EC2B8ue170006IRS3_S3_LPv0EEEOT_OT0_, symObjAddr: 0xF500, symBinAddr: 0x100016BB0, symSize: 0x34 }
  - { offsetInCU: 0x1C896, offset: 0x44DFA, size: 0x8, addend: 0x0, symName: __ZNSt3__118__unwrap_iter_implIPP6EntityLb1EE8__unwrapB8ue170006ES3_, symObjAddr: 0xF534, symBinAddr: 0x100016BE4, symSize: 0x24 }
  - { offsetInCU: 0x1C8BB, offset: 0x44E1F, size: 0x8, addend: 0x0, symName: __ZNSt3__14pairIPP6EntityS3_EC1B8ue170006IS3_S3_LPv0EEEOT_OT0_, symObjAddr: 0xF558, symBinAddr: 0x100016C08, symSize: 0x3C }
  - { offsetInCU: 0x1C919, offset: 0x44E7D, size: 0x8, addend: 0x0, symName: __ZNSt3__14pairIPP6EntityS3_EC2B8ue170006IS3_S3_LPv0EEEOT_OT0_, symObjAddr: 0xF594, symBinAddr: 0x100016C44, symSize: 0x34 }
  - { offsetInCU: 0x1C977, offset: 0x44EDB, size: 0x8, addend: 0x0, symName: __ZNSt3__118__unwrap_iter_implIPP6EntityLb1EE8__rewrapB8ue170006ES3_S3_, symObjAddr: 0xF5C8, symBinAddr: 0x100016C78, symSize: 0x50 }
  - { offsetInCU: 0x4F, offset: 0x456F7, size: 0x8, addend: 0x0, symName: __ZN5boost4asio5errorL15system_categoryE, symObjAddr: 0x729A0, symBinAddr: 0x1000B0258, symSize: 0x0 }
  - { offsetInCU: 0x69, offset: 0x45711, size: 0x8, addend: 0x0, symName: __ZN5boost4asio5errorL14netdb_categoryE, symObjAddr: 0x729A8, symBinAddr: 0x1000B0260, symSize: 0x0 }
  - { offsetInCU: 0x83, offset: 0x4572B, size: 0x8, addend: 0x0, symName: __ZN5boost4asio5errorL17addrinfo_categoryE, symObjAddr: 0x729B0, symBinAddr: 0x1000B0268, symSize: 0x0 }
  - { offsetInCU: 0x9D, offset: 0x45745, size: 0x8, addend: 0x0, symName: __ZN5boost4asio5errorL13misc_categoryE, symObjAddr: 0x729B8, symBinAddr: 0x1000B0270, symSize: 0x0 }
  - { offsetInCU: 0x376A, offset: 0x48E12, size: 0x8, addend: 0x0, symName: __ZNSt3__14__fs10filesystem6existsB8ue170006ERKNS1_4pathE, symObjAddr: 0x710, symBinAddr: 0x10001740C, symSize: 0x50 }
  - { offsetInCU: 0x3796, offset: 0x48E3E, size: 0x8, addend: 0x0, symName: __ZNSt3__14__fs10filesystem6existsB8ue170006ENS1_11file_statusE, symObjAddr: 0x19E4, symBinAddr: 0x1000176C8, symSize: 0x78 }
  - { offsetInCU: 0x38CF, offset: 0x48F77, size: 0x8, addend: 0x0, symName: __ZNSt3__14__fs10filesystem12status_knownB8ue170006ENS1_11file_statusE, symObjAddr: 0x1A88, symBinAddr: 0x10001776C, symSize: 0x30 }
  - { offsetInCU: 0xAC9F, offset: 0x50347, size: 0x8, addend: 0x0, symName: __ZNSt3__18distanceB8ue170006IPKcEENS_15iterator_traitsIT_E15difference_typeES4_S4_, symObjAddr: 0x4E38, symBinAddr: 0x100017B88, symSize: 0x2C }
  - { offsetInCU: 0xACE8, offset: 0x50390, size: 0x8, addend: 0x0, symName: __ZNSt3__110__distanceB8ue170006IPKcEENS_15iterator_traitsIT_E15difference_typeES4_S4_NS_26random_access_iterator_tagE, symObjAddr: 0x5030, symBinAddr: 0x100017D2C, symSize: 0x20 }
  - { offsetInCU: 0xAD3D, offset: 0x503E5, size: 0x8, addend: 0x0, symName: __ZNSt3__121__is_pointer_in_rangeB8ue170006IccLi0EEEbPKT_S3_PKT0_, symObjAddr: 0x5050, symBinAddr: 0x100017D4C, symSize: 0x68 }
  - { offsetInCU: 0xADF0, offset: 0x50498, size: 0x8, addend: 0x0, symName: __ZNSt3__119__allocate_at_leastB8ue170006INS_9allocatorIcEEEENS_19__allocation_resultINS_16allocator_traitsIT_E7pointerEEERS5_m, symObjAddr: 0x52D4, symBinAddr: 0x100017FD0, symSize: 0x40 }
  - { offsetInCU: 0xD2B1, offset: 0x52959, size: 0x8, addend: 0x0, symName: __Z8save_mapv, symObjAddr: 0x38, symBinAddr: 0x100017158, symSize: 0x4 }
  - { offsetInCU: 0xD2CB, offset: 0x52973, size: 0x8, addend: 0x0, symName: __Z10import_mapNSt3__112basic_stringIcNS_11char_traitsIcEENS_9allocatorIcEEEE, symObjAddr: 0x3C, symBinAddr: 0x10001715C, symSize: 0x10 }
  - { offsetInCU: 0xD2F5, offset: 0x5299D, size: 0x8, addend: 0x0, symName: __Z7get_mapRKNSt3__112basic_stringIcNS_11char_traitsIcEENS_9allocatorIcEEEE, symObjAddr: 0x4C, symBinAddr: 0x10001716C, symSize: 0x10 }
  - { offsetInCU: 0xD31E, offset: 0x529C6, size: 0x8, addend: 0x0, symName: __Z8load_mapRKNSt3__112basic_stringIcNS_11char_traitsIcEENS_9allocatorIcEEEE, symObjAddr: 0x5C, symBinAddr: 0x10001717C, symSize: 0x10 }
  - { offsetInCU: 0xD347, offset: 0x529EF, size: 0x8, addend: 0x0, symName: __Z7new_mapRKNSt3__112basic_stringIcNS_11char_traitsIcEENS_9allocatorIcEEEES7_, symObjAddr: 0x6C, symBinAddr: 0x10001718C, symSize: 0x280 }
  - { offsetInCU: 0xD3EB, offset: 0x52A93, size: 0x8, addend: 0x0, symName: __ZNSt3__14__fs10filesystem4pathC1B8ue170006INS_12basic_stringIcNS_11char_traitsIcEENS_9allocatorIcEEEEvEERKT_NS2_6formatE, symObjAddr: 0x760, symBinAddr: 0x10001745C, symSize: 0x3C }
  - { offsetInCU: 0xD43B, offset: 0x52AE3, size: 0x8, addend: 0x0, symName: __ZNSt3__14__fs10filesystem4pathD1B8ue170006Ev, symObjAddr: 0x79C, symBinAddr: 0x100017498, symSize: 0x2C }
  - { offsetInCU: 0xD46A, offset: 0x52B12, size: 0x8, addend: 0x0, symName: __Z10delete_mapRKNSt3__112basic_stringIcNS_11char_traitsIcEENS_9allocatorIcEEEE, symObjAddr: 0x808, symBinAddr: 0x1000174C4, symSize: 0x90 }
  - { offsetInCU: 0xD493, offset: 0x52B3B, size: 0x8, addend: 0x0, symName: __Z15import_entitiesRKNSt3__112basic_stringIcNS_11char_traitsIcEENS_9allocatorIcEEEE, symObjAddr: 0x8BC, symBinAddr: 0x100017554, symSize: 0x10 }
  - { offsetInCU: 0xD4BC, offset: 0x52B64, size: 0x8, addend: 0x0, symName: __Z12get_entitiesNSt3__112basic_stringIcNS_11char_traitsIcEENS_9allocatorIcEEEE, symObjAddr: 0x8CC, symBinAddr: 0x100017564, symSize: 0x10 }
  - { offsetInCU: 0xD4E6, offset: 0x52B8E, size: 0x8, addend: 0x0, symName: __Z11load_entityNSt3__112basic_stringIcNS_11char_traitsIcEENS_9allocatorIcEEEE, symObjAddr: 0x8DC, symBinAddr: 0x100017574, symSize: 0x10 }
  - { offsetInCU: 0xD510, offset: 0x52BB8, size: 0x8, addend: 0x0, symName: __Z15create_entitiesv, symObjAddr: 0x8EC, symBinAddr: 0x100017584, symSize: 0x4 }
  - { offsetInCU: 0xD52A, offset: 0x52BD2, size: 0x8, addend: 0x0, symName: __Z15delete_entitiesNSt3__112basic_stringIcNS_11char_traitsIcEENS_9allocatorIcEEEE, symObjAddr: 0x8F0, symBinAddr: 0x100017588, symSize: 0x10 }
  - { offsetInCU: 0xD554, offset: 0x52BFC, size: 0x8, addend: 0x0, symName: __Z13import_soundsNSt3__112basic_stringIcNS_11char_traitsIcEENS_9allocatorIcEEEE, symObjAddr: 0x900, symBinAddr: 0x100017598, symSize: 0x10 }
  - { offsetInCU: 0xD57E, offset: 0x52C26, size: 0x8, addend: 0x0, symName: __Z10get_soundsNSt3__112basic_stringIcNS_11char_traitsIcEENS_9allocatorIcEEEE, symObjAddr: 0x910, symBinAddr: 0x1000175A8, symSize: 0x10 }
  - { offsetInCU: 0xD5A8, offset: 0x52C50, size: 0x8, addend: 0x0, symName: __Z10play_soundNSt3__112basic_stringIcNS_11char_traitsIcEENS_9allocatorIcEEEE, symObjAddr: 0x920, symBinAddr: 0x1000175B8, symSize: 0x10 }
  - { offsetInCU: 0xD5D2, offset: 0x52C7A, size: 0x8, addend: 0x0, symName: __Z13delete_soundsNSt3__112basic_stringIcNS_11char_traitsIcEENS_9allocatorIcEEEE, symObjAddr: 0x930, symBinAddr: 0x1000175C8, symSize: 0x10 }
  - { offsetInCU: 0xD5FC, offset: 0x52CA4, size: 0x8, addend: 0x0, symName: __Z12import_musicNSt3__112basic_stringIcNS_11char_traitsIcEENS_9allocatorIcEEEE, symObjAddr: 0x940, symBinAddr: 0x1000175D8, symSize: 0x10 }
  - { offsetInCU: 0xD626, offset: 0x52CCE, size: 0x8, addend: 0x0, symName: __Z9get_musicNSt3__112basic_stringIcNS_11char_traitsIcEENS_9allocatorIcEEEE, symObjAddr: 0x950, symBinAddr: 0x1000175E8, symSize: 0x10 }
  - { offsetInCU: 0xD650, offset: 0x52CF8, size: 0x8, addend: 0x0, symName: __Z10play_musicNSt3__112basic_stringIcNS_11char_traitsIcEENS_9allocatorIcEEEE, symObjAddr: 0x960, symBinAddr: 0x1000175F8, symSize: 0x10 }
  - { offsetInCU: 0xD67A, offset: 0x52D22, size: 0x8, addend: 0x0, symName: __Z12delete_musicNSt3__112basic_stringIcNS_11char_traitsIcEENS_9allocatorIcEEEE, symObjAddr: 0x970, symBinAddr: 0x100017608, symSize: 0x10 }
  - { offsetInCU: 0xD6A4, offset: 0x52D4C, size: 0x8, addend: 0x0, symName: __Z15import_texturesNSt3__112basic_stringIcNS_11char_traitsIcEENS_9allocatorIcEEEE, symObjAddr: 0x980, symBinAddr: 0x100017618, symSize: 0x10 }
  - { offsetInCU: 0xD6CE, offset: 0x52D76, size: 0x8, addend: 0x0, symName: __Z12get_texturesNSt3__112basic_stringIcNS_11char_traitsIcEENS_9allocatorIcEEEE, symObjAddr: 0x990, symBinAddr: 0x100017628, symSize: 0x10 }
  - { offsetInCU: 0xD6F8, offset: 0x52DA0, size: 0x8, addend: 0x0, symName: __Z16display_texturesRKNSt3__112basic_stringIcNS_11char_traitsIcEENS_9allocatorIcEEEE, symObjAddr: 0x9A0, symBinAddr: 0x100017638, symSize: 0x10 }
  - { offsetInCU: 0xD721, offset: 0x52DC9, size: 0x8, addend: 0x0, symName: __Z15delete_texturesNSt3__112basic_stringIcNS_11char_traitsIcEENS_9allocatorIcEEEE, symObjAddr: 0x9B0, symBinAddr: 0x100017648, symSize: 0x10 }
  - { offsetInCU: 0xD74B, offset: 0x52DF3, size: 0x8, addend: 0x0, symName: __Z28create_point_in_rect_triggerv, symObjAddr: 0x9C0, symBinAddr: 0x100017658, symSize: 0x4 }
  - { offsetInCU: 0xD765, offset: 0x52E0D, size: 0x8, addend: 0x0, symName: __Z17draw_software_GUIv, symObjAddr: 0x9C4, symBinAddr: 0x10001765C, symSize: 0x6C }
  - { offsetInCU: 0xD7C0, offset: 0x52E68, size: 0x8, addend: 0x0, symName: __ZNSt3__14__fs10filesystem11file_statusD1B8ue170006Ev, symObjAddr: 0x1A5C, symBinAddr: 0x100017740, symSize: 0x2C }
  - { offsetInCU: 0xD7EA, offset: 0x52E92, size: 0x8, addend: 0x0, symName: __ZNKSt3__14__fs10filesystem11file_status4typeB8ue170006Ev, symObjAddr: 0x1AB8, symBinAddr: 0x10001779C, symSize: 0x18 }
  - { offsetInCU: 0xD810, offset: 0x52EB8, size: 0x8, addend: 0x0, symName: __ZNSt3__14__fs10filesystem11file_statusD2B8ue170006Ev, symObjAddr: 0x1AD0, symBinAddr: 0x1000177B4, symSize: 0x14 }
  - { offsetInCU: 0xD83A, offset: 0x52EE2, size: 0x8, addend: 0x0, symName: __ZNSt3__14__fs10filesystem4pathD2B8ue170006Ev, symObjAddr: 0x1AE4, symBinAddr: 0x1000177C8, symSize: 0x2C }
  - { offsetInCU: 0xD882, offset: 0x52F2A, size: 0x8, addend: 0x0, symName: __ZNSt3__14__fs10filesystem4pathC2B8ue170006INS_12basic_stringIcNS_11char_traitsIcEENS_9allocatorIcEEEEvEERKT_NS2_6formatE, symObjAddr: 0x4A04, symBinAddr: 0x100017808, symSize: 0x68 }
  - { offsetInCU: 0xD8D7, offset: 0x52F7F, size: 0x8, addend: 0x0, symName: __ZNSt3__14__fs10filesystem8_PathCVTIcE15__append_sourceB8ue170006INS_12basic_stringIcNS_11char_traitsIcEENS_9allocatorIcEEEEEEvRSA_RKT_, symObjAddr: 0x4A98, symBinAddr: 0x100017870, symSize: 0x4C }
  - { offsetInCU: 0xD913, offset: 0x52FBB, size: 0x8, addend: 0x0, symName: __ZNSt3__14__fs10filesystem8_PathCVTIcE14__append_rangeB8ue170006IPKcEENS_9enable_ifIXsr31__has_forward_iterator_categoryIT_EE5valueEvE4typeERNS_12basic_stringIcNS_11char_traitsIcEENS_9allocatorIcEEEES8_S8_, symObjAddr: 0x4B6C, symBinAddr: 0x1000178BC, symSize: 0x34 }
  - { offsetInCU: 0xD968, offset: 0x53010, size: 0x8, addend: 0x0, symName: __ZNSt3__14__fs10filesystem20__is_pathable_stringINS_12basic_stringIcNS_11char_traitsIcEENS_9allocatorIcEEEEvE13__range_beginB8ue170006ERKS8_, symObjAddr: 0x4BA0, symBinAddr: 0x1000178F0, symSize: 0x24 }
  - { offsetInCU: 0xD98B, offset: 0x53033, size: 0x8, addend: 0x0, symName: __ZNSt3__14__fs10filesystem20__is_pathable_stringINS_12basic_stringIcNS_11char_traitsIcEENS_9allocatorIcEEEEvE11__range_endB8ue170006ERKS8_, symObjAddr: 0x4BC4, symBinAddr: 0x100017914, symSize: 0x3C }
  - { offsetInCU: 0xD9AE, offset: 0x53056, size: 0x8, addend: 0x0, symName: __ZNSt3__112basic_stringIcNS_11char_traitsIcEENS_9allocatorIcEEE6appendB8ue170006IPKcLi0EEERS5_T_SA_, symObjAddr: 0x4C00, symBinAddr: 0x100017950, symSize: 0x1E4 }
  - { offsetInCU: 0xDA69, offset: 0x53111, size: 0x8, addend: 0x0, symName: __ZNKSt3__112basic_stringIcNS_11char_traitsIcEENS_9allocatorIcEEE8capacityB8ue170006Ev, symObjAddr: 0x4DE4, symBinAddr: 0x100017B34, symSize: 0x54 }
  - { offsetInCU: 0xDA8F, offset: 0x53137, size: 0x8, addend: 0x0, symName: __ZNKSt3__112basic_stringIcNS_11char_traitsIcEENS_9allocatorIcEEE15__addr_in_rangeB8ue170006IcEEbRKT_, symObjAddr: 0x4E64, symBinAddr: 0x100017BB4, symSize: 0x6C }
  - { offsetInCU: 0xDACD, offset: 0x53175, size: 0x8, addend: 0x0, symName: __ZNSt3__112basic_stringIcNS_11char_traitsIcEENS_9allocatorIcEEE25__grow_by_without_replaceB8ue170006Emmmmmm, symObjAddr: 0x4ED0, symBinAddr: 0x100017C20, symSize: 0x74 }
  - { offsetInCU: 0xDB4F, offset: 0x531F7, size: 0x8, addend: 0x0, symName: __ZNSt3__112basic_stringIcNS_11char_traitsIcEENS_9allocatorIcEEE10__set_sizeB8ue170006Em, symObjAddr: 0x4F68, symBinAddr: 0x100017C94, symSize: 0x54 }
  - { offsetInCU: 0xDB84, offset: 0x5322C, size: 0x8, addend: 0x0, symName: __ZNSt3__112basic_stringIcNS_11char_traitsIcEENS_9allocatorIcEEEC1B8ue170006IPKcLi0EEET_S9_RKS4_, symObjAddr: 0x4FBC, symBinAddr: 0x100017CE8, symSize: 0x44 }
  - { offsetInCU: 0xDBFE, offset: 0x532A6, size: 0x8, addend: 0x0, symName: __ZNKSt3__16__lessIvvEclB8ue170006IPKcS4_EEbRKT_RKT0_, symObjAddr: 0x50B8, symBinAddr: 0x100017DB4, symSize: 0x34 }
  - { offsetInCU: 0xDC56, offset: 0x532FE, size: 0x8, addend: 0x0, symName: __ZNSt3__112basic_stringIcNS_11char_traitsIcEENS_9allocatorIcEEEC2B8ue170006IPKcLi0EEET_S9_RKS4_, symObjAddr: 0x50EC, symBinAddr: 0x100017DE8, symSize: 0x50 }
  - { offsetInCU: 0xDCBC, offset: 0x53364, size: 0x8, addend: 0x0, symName: __ZNSt3__112basic_stringIcNS_11char_traitsIcEENS_9allocatorIcEEE6__initIPKcLi0EEEvT_S9_, symObjAddr: 0x513C, symBinAddr: 0x100017E38, symSize: 0x54 }
  - { offsetInCU: 0xDD21, offset: 0x533C9, size: 0x8, addend: 0x0, symName: __ZNSt3__112basic_stringIcNS_11char_traitsIcEENS_9allocatorIcEEE16__init_with_sizeB8ue170006IPKcS8_EEvT_T0_m, symObjAddr: 0x5190, symBinAddr: 0x100017E8C, symSize: 0x144 }
  - { offsetInCU: 0xDDB7, offset: 0x5345F, size: 0x8, addend: 0x0, symName: __ZNKSt3__112basic_stringIcNS_11char_traitsIcEENS_9allocatorIcEEE6lengthB8ue170006Ev, symObjAddr: 0x5314, symBinAddr: 0x100018010, symSize: 0x24 }
  - { offsetInCU: 0x3AAB, offset: 0x56F4D, size: 0x8, addend: 0x0, symName: __ZNSt3__1eqB8ue170006IcNS_11char_traitsIcEENS_9allocatorIcEEEEbRKNS_12basic_stringIT_T0_T1_EEPKS6_, symObjAddr: 0x50C, symBinAddr: 0x1000188BC, symSize: 0xAC }
  - { offsetInCU: 0x3B14, offset: 0x56FB6, size: 0x8, addend: 0x0, symName: __ZNSt3__1neB8ue170006IP17ParticleGeneratorEEbRKNS_11__wrap_iterIT_EES7_, symObjAddr: 0x780, symBinAddr: 0x100018B30, symSize: 0x34 }
  - { offsetInCU: 0x3B57, offset: 0x56FF9, size: 0x8, addend: 0x0, symName: __ZNSt3__1eqB8ue170006IP17ParticleGeneratorEEbRKNS_11__wrap_iterIT_EES7_, symObjAddr: 0xB88, symBinAddr: 0x100018D50, symSize: 0x48 }
  - { offsetInCU: 0x3B9A, offset: 0x5703C, size: 0x8, addend: 0x0, symName: __ZNSt3__112__to_addressB8ue170006I17ParticleGeneratorEEPT_S3_, symObjAddr: 0xBE8, symBinAddr: 0x100018DB0, symSize: 0x14 }
  - { offsetInCU: 0x3BCF, offset: 0x57071, size: 0x8, addend: 0x0, symName: __ZNSt3__1miB8ue170006IPK17ParticleGeneratorS3_EEDTmicldtfp_4baseEcldtfp0_4baseEERKNS_11__wrap_iterIT_EERKNS5_IT0_EE, symObjAddr: 0x1664, symBinAddr: 0x100018E88, symSize: 0x48 }
  - { offsetInCU: 0x3C1B, offset: 0x570BD, size: 0x8, addend: 0x0, symName: __ZNSt3__14moveB8ue170006IP17ParticleGeneratorS2_EET0_T_S4_S3_, symObjAddr: 0x1724, symBinAddr: 0x100018F48, symSize: 0x40 }
  - { offsetInCU: 0x3C75, offset: 0x57117, size: 0x8, addend: 0x0, symName: __ZNSt3__16__moveB8ue170006INS_17_ClassicAlgPolicyEP17ParticleGeneratorS3_S3_EENS_4pairIT0_T2_EES5_T1_S6_, symObjAddr: 0x1BAC, symBinAddr: 0x1000193D0, symSize: 0x44 }
  - { offsetInCU: 0x3CE1, offset: 0x57183, size: 0x8, addend: 0x0, symName: __ZNSt3__123__dispatch_copy_or_moveB8ue170006INS_17_ClassicAlgPolicyENS_11__move_loopIS1_EENS_14__move_trivialEP17ParticleGeneratorS6_S6_EENS_4pairIT2_T4_EES8_T3_S9_, symObjAddr: 0x1BF0, symBinAddr: 0x100019414, symSize: 0x44 }
  - { offsetInCU: 0x3D5F, offset: 0x57201, size: 0x8, addend: 0x0, symName: __ZNSt3__121__unwrap_and_dispatchB8ue170006INS_10__overloadINS_11__move_loopINS_17_ClassicAlgPolicyEEENS_14__move_trivialEEEP17ParticleGeneratorS8_S8_Li0EEENS_4pairIT0_T2_EESA_T1_SB_, symObjAddr: 0x1C34, symBinAddr: 0x100019458, symSize: 0xB4 }
  - { offsetInCU: 0x3DED, offset: 0x5728F, size: 0x8, addend: 0x0, symName: __ZNSt3__114__unwrap_rangeB8ue170006IP17ParticleGeneratorS2_EENS_4pairIT0_S4_EET_S6_, symObjAddr: 0x1CE8, symBinAddr: 0x10001950C, symSize: 0x60 }
  - { offsetInCU: 0x3F5F, offset: 0x57401, size: 0x8, addend: 0x0, symName: __ZNSt3__113__unwrap_iterB8ue170006IP17ParticleGeneratorNS_18__unwrap_iter_implIS2_Lb1EEELi0EEEDTclsrT0_8__unwrapclsr3stdE7declvalIT_EEEES6_, symObjAddr: 0x1DD8, symBinAddr: 0x1000195FC, symSize: 0x24 }
  - { offsetInCU: 0x3FA3, offset: 0x57445, size: 0x8, addend: 0x0, symName: __ZNSt3__19make_pairB8ue170006IP17ParticleGeneratorS2_EENS_4pairINS_18__unwrap_ref_decayIT_E4typeENS4_IT0_E4typeEEEOS5_OS8_, symObjAddr: 0x1DFC, symBinAddr: 0x100019620, symSize: 0x38 }
  - { offsetInCU: 0x3FF3, offset: 0x57495, size: 0x8, addend: 0x0, symName: __ZNSt3__114__rewrap_rangeB8ue170006IP17ParticleGeneratorS2_EET_S3_T0_, symObjAddr: 0x1E34, symBinAddr: 0x100019658, symSize: 0x2C }
  - { offsetInCU: 0x403F, offset: 0x574E1, size: 0x8, addend: 0x0, symName: __ZNSt3__113__rewrap_iterB8ue170006IP17ParticleGeneratorS2_NS_18__unwrap_iter_implIS2_Lb1EEEEET_S5_T0_, symObjAddr: 0x1E60, symBinAddr: 0x100019684, symSize: 0x3C }
  - { offsetInCU: 0x6321, offset: 0x597C3, size: 0x8, addend: 0x0, symName: __ZN17ParticleGeneratorC2EiiNSt3__112basic_stringIcNS0_11char_traitsIcEENS0_9allocatorIcEEEE, symObjAddr: 0x0, symBinAddr: 0x1000184C4, symSize: 0x3F8 }
  - { offsetInCU: 0x6432, offset: 0x598D4, size: 0x8, addend: 0x0, symName: __ZN17ParticleGeneratorC1EiiNSt3__112basic_stringIcNS0_11char_traitsIcEENS0_9allocatorIcEEEE, symObjAddr: 0x5B8, symBinAddr: 0x100018968, symSize: 0x44 }
  - { offsetInCU: 0x6489, offset: 0x5992B, size: 0x8, addend: 0x0, symName: __ZN17ParticleGenerator6updateEv, symObjAddr: 0x5FC, symBinAddr: 0x1000189AC, symSize: 0x40 }
  - { offsetInCU: 0x64B1, offset: 0x59953, size: 0x8, addend: 0x0, symName: __ZN17ParticleGenerator16render_particlesERNSt3__16vectorIS_NS0_9allocatorIS_EEEEP12SDL_Renderer, symObjAddr: 0x63C, symBinAddr: 0x1000189EC, symSize: 0xE4 }
  - { offsetInCU: 0x6554, offset: 0x599F6, size: 0x8, addend: 0x0, symName: __ZNSt3__16vectorI17ParticleGeneratorNS_9allocatorIS1_EEE5beginB8ue170006Ev, symObjAddr: 0x720, symBinAddr: 0x100018AD0, symSize: 0x30 }
  - { offsetInCU: 0x657C, offset: 0x59A1E, size: 0x8, addend: 0x0, symName: __ZNSt3__16vectorI17ParticleGeneratorNS_9allocatorIS1_EEE3endB8ue170006Ev, symObjAddr: 0x750, symBinAddr: 0x100018B00, symSize: 0x30 }
  - { offsetInCU: 0x65A4, offset: 0x59A46, size: 0x8, addend: 0x0, symName: __ZNKSt3__111__wrap_iterIP17ParticleGeneratorEdeB8ue170006Ev, symObjAddr: 0x7B4, symBinAddr: 0x100018B64, symSize: 0x18 }
  - { offsetInCU: 0x65CA, offset: 0x59A6C, size: 0x8, addend: 0x0, symName: __ZNSt3__111__wrap_iterIP17ParticleGeneratorEppB8ue170006Ev, symObjAddr: 0x7CC, symBinAddr: 0x100018B7C, symSize: 0x20 }
  - { offsetInCU: 0x65F0, offset: 0x59A92, size: 0x8, addend: 0x0, symName: __ZN17ParticleGenerator15clear_particlesERNSt3__16vectorIS_NS0_9allocatorIS_EEEEi, symObjAddr: 0x7EC, symBinAddr: 0x100018B9C, symSize: 0xB4 }
  - { offsetInCU: 0x6640, offset: 0x59AE2, size: 0x8, addend: 0x0, symName: __ZNKSt3__111__wrap_iterIP17ParticleGeneratorEptB8ue170006Ev, symObjAddr: 0x8A0, symBinAddr: 0x100018C50, symSize: 0x28 }
  - { offsetInCU: 0x6666, offset: 0x59B08, size: 0x8, addend: 0x0, symName: __ZNSt3__16vectorI17ParticleGeneratorNS_9allocatorIS1_EEE5eraseB8ue170006ENS_11__wrap_iterIPKS1_EE, symObjAddr: 0x8C8, symBinAddr: 0x100018C78, symSize: 0x9C }
  - { offsetInCU: 0x66C7, offset: 0x59B69, size: 0x8, addend: 0x0, symName: __ZNSt3__111__wrap_iterIPK17ParticleGeneratorEC1B8ue170006IPS1_EERKNS0_IT_EEPNS_9enable_ifIXsr14is_convertibleIS7_S3_EE5valueEvE4typeE, symObjAddr: 0x964, symBinAddr: 0x100018D14, symSize: 0x3C }
  - { offsetInCU: 0x6718, offset: 0x59BBA, size: 0x8, addend: 0x0, symName: __ZNKSt3__111__wrap_iterIP17ParticleGeneratorE4baseB8ue170006Ev, symObjAddr: 0xBD0, symBinAddr: 0x100018D98, symSize: 0x18 }
  - { offsetInCU: 0x673E, offset: 0x59BE0, size: 0x8, addend: 0x0, symName: __ZNSt3__111__wrap_iterIPK17ParticleGeneratorEC2B8ue170006IPS1_EERKNS0_IT_EEPNS_9enable_ifIXsr14is_convertibleIS7_S3_EE5valueEvE4typeE, symObjAddr: 0xBFC, symBinAddr: 0x100018DC4, symSize: 0x40 }
  - { offsetInCU: 0x678A, offset: 0x59C2C, size: 0x8, addend: 0x0, symName: __ZNSt3__16vectorI17ParticleGeneratorNS_9allocatorIS1_EEE11__make_iterB8ue170006EPS1_, symObjAddr: 0x15E0, symBinAddr: 0x100018E04, symSize: 0x30 }
  - { offsetInCU: 0x67BF, offset: 0x59C61, size: 0x8, addend: 0x0, symName: __ZNSt3__111__wrap_iterIP17ParticleGeneratorEC1B8ue170006ES2_, symObjAddr: 0x1610, symBinAddr: 0x100018E34, symSize: 0x34 }
  - { offsetInCU: 0x67F7, offset: 0x59C99, size: 0x8, addend: 0x0, symName: __ZNSt3__111__wrap_iterIP17ParticleGeneratorEC2B8ue170006ES2_, symObjAddr: 0x1644, symBinAddr: 0x100018E68, symSize: 0x20 }
  - { offsetInCU: 0x682F, offset: 0x59CD1, size: 0x8, addend: 0x0, symName: __ZNKSt3__16vectorI17ParticleGeneratorNS_9allocatorIS1_EEE6cbeginB8ue170006Ev, symObjAddr: 0x16AC, symBinAddr: 0x100018ED0, symSize: 0x2C }
  - { offsetInCU: 0x6855, offset: 0x59CF7, size: 0x8, addend: 0x0, symName: __ZNSt3__16vectorI17ParticleGeneratorNS_9allocatorIS1_EEE17__destruct_at_endB8ue170006EPS1_, symObjAddr: 0x16D8, symBinAddr: 0x100018EFC, symSize: 0x4C }
  - { offsetInCU: 0x689A, offset: 0x59D3C, size: 0x8, addend: 0x0, symName: __ZNKSt3__111__wrap_iterIPK17ParticleGeneratorE4baseB8ue170006Ev, symObjAddr: 0x1764, symBinAddr: 0x100018F88, symSize: 0x18 }
  - { offsetInCU: 0x68C0, offset: 0x59D62, size: 0x8, addend: 0x0, symName: __ZNKSt3__16vectorI17ParticleGeneratorNS_9allocatorIS1_EEE5beginB8ue170006Ev, symObjAddr: 0x177C, symBinAddr: 0x100018FA0, symSize: 0x30 }
  - { offsetInCU: 0x68E8, offset: 0x59D8A, size: 0x8, addend: 0x0, symName: __ZNKSt3__16vectorI17ParticleGeneratorNS_9allocatorIS1_EEE11__make_iterB8ue170006EPKS1_, symObjAddr: 0x17AC, symBinAddr: 0x100018FD0, symSize: 0x30 }
  - { offsetInCU: 0x691D, offset: 0x59DBF, size: 0x8, addend: 0x0, symName: __ZNSt3__111__wrap_iterIPK17ParticleGeneratorEC1B8ue170006ES3_, symObjAddr: 0x17DC, symBinAddr: 0x100019000, symSize: 0x34 }
  - { offsetInCU: 0x6955, offset: 0x59DF7, size: 0x8, addend: 0x0, symName: __ZNSt3__111__wrap_iterIPK17ParticleGeneratorEC2B8ue170006ES3_, symObjAddr: 0x1810, symBinAddr: 0x100019034, symSize: 0x20 }
  - { offsetInCU: 0x698D, offset: 0x59E2F, size: 0x8, addend: 0x0, symName: __ZNKSt3__16vectorI17ParticleGeneratorNS_9allocatorIS1_EEE4sizeB8ue170006Ev, symObjAddr: 0x1830, symBinAddr: 0x100019054, symSize: 0x28 }
  - { offsetInCU: 0x69B3, offset: 0x59E55, size: 0x8, addend: 0x0, symName: __ZNSt3__16vectorI17ParticleGeneratorNS_9allocatorIS1_EEE22__base_destruct_at_endB8ue170006EPS1_, symObjAddr: 0x1858, symBinAddr: 0x10001907C, symSize: 0x8C }
  - { offsetInCU: 0x69F8, offset: 0x59E9A, size: 0x8, addend: 0x0, symName: __ZNKSt3__16vectorI17ParticleGeneratorNS_9allocatorIS1_EEE17__annotate_shrinkB8ue170006Em, symObjAddr: 0x18E4, symBinAddr: 0x100019108, symSize: 0xD0 }
  - { offsetInCU: 0x6A2D, offset: 0x59ECF, size: 0x8, addend: 0x0, symName: __ZNSt3__116allocator_traitsINS_9allocatorI17ParticleGeneratorEEE7destroyB8ue170006IS2_vEEvRS3_PT_, symObjAddr: 0x19B4, symBinAddr: 0x1000191D8, symSize: 0x2C }
  - { offsetInCU: 0x6A6B, offset: 0x59F0D, size: 0x8, addend: 0x0, symName: __ZNSt3__16vectorI17ParticleGeneratorNS_9allocatorIS1_EEE7__allocB8ue170006Ev, symObjAddr: 0x19E0, symBinAddr: 0x100019204, symSize: 0x28 }
  - { offsetInCU: 0x6A91, offset: 0x59F33, size: 0x8, addend: 0x0, symName: __ZNSt3__19allocatorI17ParticleGeneratorE7destroyB8ue170006EPS1_, symObjAddr: 0x1A08, symBinAddr: 0x10001922C, symSize: 0x28 }
  - { offsetInCU: 0x6AC5, offset: 0x59F67, size: 0x8, addend: 0x0, symName: __ZN17ParticleGeneratorD1Ev, symObjAddr: 0x1A30, symBinAddr: 0x100019254, symSize: 0x2C }
  - { offsetInCU: 0x6AF1, offset: 0x59F93, size: 0x8, addend: 0x0, symName: __ZN17ParticleGeneratorD2Ev, symObjAddr: 0x1A5C, symBinAddr: 0x100019280, symSize: 0x30 }
  - { offsetInCU: 0x6B1D, offset: 0x59FBF, size: 0x8, addend: 0x0, symName: __ZNSt3__117__compressed_pairIP17ParticleGeneratorNS_9allocatorIS1_EEE6secondB8ue170006Ev, symObjAddr: 0x1A8C, symBinAddr: 0x1000192B0, symSize: 0x24 }
  - { offsetInCU: 0x6B43, offset: 0x59FE5, size: 0x8, addend: 0x0, symName: __ZNSt3__122__compressed_pair_elemINS_9allocatorI17ParticleGeneratorEELi1ELb1EE5__getB8ue170006Ev, symObjAddr: 0x1AB0, symBinAddr: 0x1000192D4, symSize: 0x14 }
  - { offsetInCU: 0x6B69, offset: 0x5A00B, size: 0x8, addend: 0x0, symName: __ZNKSt3__16vectorI17ParticleGeneratorNS_9allocatorIS1_EEE31__annotate_contiguous_containerB8ue170006EPKvS6_S6_S6_, symObjAddr: 0x1AC4, symBinAddr: 0x1000192E8, symSize: 0x20 }
  - { offsetInCU: 0x6BBF, offset: 0x5A061, size: 0x8, addend: 0x0, symName: __ZNKSt3__16vectorI17ParticleGeneratorNS_9allocatorIS1_EEE4dataB8ue170006Ev, symObjAddr: 0x1AE4, symBinAddr: 0x100019308, symSize: 0x28 }
  - { offsetInCU: 0x6BE5, offset: 0x5A087, size: 0x8, addend: 0x0, symName: __ZNKSt3__16vectorI17ParticleGeneratorNS_9allocatorIS1_EEE8capacityB8ue170006Ev, symObjAddr: 0x1B0C, symBinAddr: 0x100019330, symSize: 0x40 }
  - { offsetInCU: 0x6C0B, offset: 0x5A0AD, size: 0x8, addend: 0x0, symName: __ZNKSt3__16vectorI17ParticleGeneratorNS_9allocatorIS1_EEE9__end_capB8ue170006Ev, symObjAddr: 0x1B4C, symBinAddr: 0x100019370, symSize: 0x28 }
  - { offsetInCU: 0x6C31, offset: 0x5A0D3, size: 0x8, addend: 0x0, symName: __ZNKSt3__117__compressed_pairIP17ParticleGeneratorNS_9allocatorIS1_EEE5firstB8ue170006Ev, symObjAddr: 0x1B74, symBinAddr: 0x100019398, symSize: 0x24 }
  - { offsetInCU: 0x6C57, offset: 0x5A0F9, size: 0x8, addend: 0x0, symName: __ZNKSt3__122__compressed_pair_elemIP17ParticleGeneratorLi0ELb0EE5__getB8ue170006Ev, symObjAddr: 0x1B98, symBinAddr: 0x1000193BC, symSize: 0x14 }
  - { offsetInCU: 0x6CA1, offset: 0x5A143, size: 0x8, addend: 0x0, symName: __ZNKSt3__111__move_loopINS_17_ClassicAlgPolicyEEclB8ue170006IP17ParticleGeneratorS5_S5_EENS_4pairIT_T1_EES7_T0_S8_, symObjAddr: 0x1D48, symBinAddr: 0x10001956C, symSize: 0x90 }
  - { offsetInCU: 0x6D12, offset: 0x5A1B4, size: 0x8, addend: 0x0, symName: __ZNSt3__18_IterOpsINS_17_ClassicAlgPolicyEE11__iter_moveB8ue170006IRP17ParticleGeneratorEENS_9enable_ifIXsr12is_referenceIDTdeclsr3stdE7declvalIRT_EEEEE5valueEDTclsr3stdE4movedeclsr3stdE7declvalIS9_EEEEE4typeEOS8_, symObjAddr: 0x1E9C, symBinAddr: 0x1000196C0, symSize: 0x28 }
  - { offsetInCU: 0x6D3F, offset: 0x5A1E1, size: 0x8, addend: 0x0, symName: __ZN17ParticleGeneratoraSEOS_, symObjAddr: 0x1EC4, symBinAddr: 0x1000196E8, symSize: 0x50 }
  - { offsetInCU: 0x6D70, offset: 0x5A212, size: 0x8, addend: 0x0, symName: __ZNSt3__18_IterOpsINS_17_ClassicAlgPolicyEE25__validate_iter_referenceB8ue170006IRP17ParticleGeneratorEEvv, symObjAddr: 0x1F14, symBinAddr: 0x100019738, symSize: 0x4 }
  - { offsetInCU: 0x6D8D, offset: 0x5A22F, size: 0x8, addend: 0x0, symName: __ZNSt3__118__unwrap_iter_implIP17ParticleGeneratorLb1EE8__unwrapB8ue170006ES2_, symObjAddr: 0x23D8, symBinAddr: 0x10001973C, symSize: 0x24 }
  - { offsetInCU: 0x6DB6, offset: 0x5A258, size: 0x8, addend: 0x0, symName: __ZNSt3__14pairIP17ParticleGeneratorS2_EC1B8ue170006IS2_S2_LPv0EEEOT_OT0_, symObjAddr: 0x23FC, symBinAddr: 0x100019760, symSize: 0x3C }
  - { offsetInCU: 0x6E14, offset: 0x5A2B6, size: 0x8, addend: 0x0, symName: __ZNSt3__14pairIP17ParticleGeneratorS2_EC2B8ue170006IS2_S2_LPv0EEEOT_OT0_, symObjAddr: 0x2438, symBinAddr: 0x10001979C, symSize: 0x34 }
  - { offsetInCU: 0x6E72, offset: 0x5A314, size: 0x8, addend: 0x0, symName: __ZNSt3__118__unwrap_iter_implIP17ParticleGeneratorLb1EE8__rewrapB8ue170006ES2_S2_, symObjAddr: 0x246C, symBinAddr: 0x1000197D0, symSize: 0x58 }
  - { offsetInCU: 0xC83E, offset: 0x66BBF, size: 0x8, addend: 0x0, symName: __ZNSt3__1lsB8ue170006INS_11char_traitsIcEEEERNS_13basic_ostreamIcT_EES6_c, symObjAddr: 0x810, symBinAddr: 0x100019F6C, symSize: 0x34 }
  - { offsetInCU: 0xCA3E, offset: 0x66DBF, size: 0x8, addend: 0x0, symName: __ZNSt3__17getlineB8ue170006IcNS_11char_traitsIcEENS_9allocatorIcEEEERNS_13basic_istreamIT_T0_EES9_RNS_12basic_stringIS6_S7_T1_EE, symObjAddr: 0xF4C, symBinAddr: 0x10001A630, symSize: 0x5C }
  - { offsetInCU: 0xCBC3, offset: 0x66F44, size: 0x8, addend: 0x0, symName: __ZNSt3__1rsB8ue170006IcNS_11char_traitsIcEENS_9allocatorIcEEEERNS_13basic_istreamIT_T0_EES9_RNS_12basic_stringIS6_S7_T1_EE, symObjAddr: 0x10D0, symBinAddr: 0x10001A7B4, symSize: 0x308 }
  - { offsetInCU: 0xCE5E, offset: 0x671DF, size: 0x8, addend: 0x0, symName: __ZNSt3__110__str_findB8ue170006IcmNS_11char_traitsIcEELm18446744073709551615EEET0_PKT_S3_S6_S3_S3_, symObjAddr: 0x32BC, symBinAddr: 0x10001B7D0, symSize: 0xE4 }
  - { offsetInCU: 0xCF07, offset: 0x67288, size: 0x8, addend: 0x0, symName: __ZNSt3__118__search_substringB8ue170006IcNS_11char_traitsIcEEEEPKT_S5_S5_S5_S5_, symObjAddr: 0x33F4, symBinAddr: 0x10001B8B4, symSize: 0x154 }
  - { offsetInCU: 0xCFA5, offset: 0x67326, size: 0x8, addend: 0x0, symName: __ZNSt3__118__constexpr_memchrB8ue170006IKccEEPT_S3_T0_m, symObjAddr: 0x35EC, symBinAddr: 0x10001BA78, symSize: 0x40 }
  - { offsetInCU: 0xD01C, offset: 0x6739D, size: 0x8, addend: 0x0, symName: __ZNSt3__1eqB8ue170006I11__mbstate_tEEbRKNS_4fposIT_EES6_, symObjAddr: 0x3688, symBinAddr: 0x10001BAB8, symSize: 0x48 }
  - { offsetInCU: 0xD05F, offset: 0x673E0, size: 0x8, addend: 0x0, symName: __ZNSt3__17getlineB8ue170006IcNS_11char_traitsIcEENS_9allocatorIcEEEERNS_13basic_istreamIT_T0_EES9_RNS_12basic_stringIS6_S7_T1_EES6_, symObjAddr: 0x37BC, symBinAddr: 0x10001BBEC, symSize: 0x238 }
  - { offsetInCU: 0xD125, offset: 0x674A6, size: 0x8, addend: 0x0, symName: __ZNSt3__112__to_addressB8ue170006IiEEPT_S2_, symObjAddr: 0x4460, symBinAddr: 0x10001C52C, symSize: 0x14 }
  - { offsetInCU: 0xD15A, offset: 0x674DB, size: 0x8, addend: 0x0, symName: __ZNSt3__119__allocate_at_leastB8ue170006INS_9allocatorIiEEEENS_19__allocation_resultINS_16allocator_traitsIT_E7pointerEEERS5_m, symObjAddr: 0x4C74, symBinAddr: 0x10001CB28, symSize: 0x40 }
  - { offsetInCU: 0xD19D, offset: 0x6751E, size: 0x8, addend: 0x0, symName: __ZNSt3__142__uninitialized_allocator_move_if_noexceptB8ue170006INS_9allocatorIiEENS_16reverse_iteratorIPiEES5_ivEET1_RT_T0_S9_S6_, symObjAddr: 0x5000, symBinAddr: 0x10001CDB0, symSize: 0x78 }
  - { offsetInCU: 0xD21D, offset: 0x6759E, size: 0x8, addend: 0x0, symName: __ZNSt3__14swapB8ue170006IPiEENS_9enable_ifIXaasr21is_move_constructibleIT_EE5valuesr18is_move_assignableIS3_EE5valueEvE4typeERS3_S6_, symObjAddr: 0x50C4, symBinAddr: 0x10001CE74, symSize: 0x3C }
  - { offsetInCU: 0xD26E, offset: 0x675EF, size: 0x8, addend: 0x0, symName: __ZNSt3__14moveB8ue170006INS_16reverse_iteratorIPiEES3_EET0_T_S5_S4_, symObjAddr: 0x51F4, symBinAddr: 0x10001CFA4, symSize: 0x78 }
  - { offsetInCU: 0xD2C8, offset: 0x67649, size: 0x8, addend: 0x0, symName: __ZNSt3__16__moveB8ue170006INS_17_ClassicAlgPolicyENS_16reverse_iteratorIPiEES4_S4_EENS_4pairIT0_T2_EES6_T1_S7_, symObjAddr: 0x526C, symBinAddr: 0x10001D01C, symSize: 0x64 }
  - { offsetInCU: 0xD334, offset: 0x676B5, size: 0x8, addend: 0x0, symName: __ZNSt3__123__dispatch_copy_or_moveB8ue170006INS_17_ClassicAlgPolicyENS_11__move_loopIS1_EENS_14__move_trivialENS_16reverse_iteratorIPiEES7_S7_EENS_4pairIT2_T4_EES9_T3_SA_, symObjAddr: 0x52D0, symBinAddr: 0x10001D080, symSize: 0x64 }
  - { offsetInCU: 0xD3B2, offset: 0x67733, size: 0x8, addend: 0x0, symName: __ZNSt3__121__unwrap_and_dispatchB8ue170006INS_10__overloadINS_11__move_loopINS_17_ClassicAlgPolicyEEENS_14__move_trivialEEENS_16reverse_iteratorIPiEES9_S9_Li0EEENS_4pairIT0_T2_EESB_T1_SC_, symObjAddr: 0x5334, symBinAddr: 0x10001D0E4, symSize: 0x12C }
  - { offsetInCU: 0xD442, offset: 0x677C3, size: 0x8, addend: 0x0, symName: __ZNSt3__114__unwrap_rangeB8ue170006INS_16reverse_iteratorIPiEES3_EENS_4pairIT0_S5_EET_S7_, symObjAddr: 0x5460, symBinAddr: 0x10001D210, symSize: 0x84 }
  - { offsetInCU: 0xD5B4, offset: 0x67935, size: 0x8, addend: 0x0, symName: __ZNSt3__113__unwrap_iterB8ue170006INS_16reverse_iteratorIPiEENS_18__unwrap_iter_implIS3_Lb0EEELi0EEEDTclsrT0_8__unwrapclsr3stdE7declvalIT_EEEES7_, symObjAddr: 0x5584, symBinAddr: 0x10001D334, symSize: 0x44 }
  - { offsetInCU: 0xD5F8, offset: 0x67979, size: 0x8, addend: 0x0, symName: __ZNSt3__19make_pairB8ue170006INS_16reverse_iteratorIPiEES3_EENS_4pairINS_18__unwrap_ref_decayIT_E4typeENS5_IT0_E4typeEEEOS6_OS9_, symObjAddr: 0x55C8, symBinAddr: 0x10001D378, symSize: 0x38 }
  - { offsetInCU: 0xD648, offset: 0x679C9, size: 0x8, addend: 0x0, symName: __ZNSt3__114__rewrap_rangeB8ue170006INS_16reverse_iteratorIPiEES3_EET_S4_T0_, symObjAddr: 0x5600, symBinAddr: 0x10001D3B0, symSize: 0x5C }
  - { offsetInCU: 0xD694, offset: 0x67A15, size: 0x8, addend: 0x0, symName: __ZNSt3__113__rewrap_iterB8ue170006INS_16reverse_iteratorIPiEES3_NS_18__unwrap_iter_implIS3_Lb0EEEEET_S6_T0_, symObjAddr: 0x565C, symBinAddr: 0x10001D40C, symSize: 0x74 }
  - { offsetInCU: 0xD6E9, offset: 0x67A6A, size: 0x8, addend: 0x0, symName: __ZNSt3__1neB8ue170006IPiS1_EEbRKNS_16reverse_iteratorIT_EERKNS2_IT0_EE, symObjAddr: 0x56D0, symBinAddr: 0x10001D480, symSize: 0x48 }
  - { offsetInCU: 0xE103, offset: 0x68484, size: 0x8, addend: 0x0, symName: __ZNSt3__16vectorIiNS_9allocatorIiEEE26__swap_out_circular_bufferERNS_14__split_bufferIiRS2_EE, symObjAddr: 0x465C, symBinAddr: 0x10001C728, symSize: 0x110 }
  - { offsetInCU: 0xFEB7, offset: 0x6A238, size: 0x8, addend: 0x0, symName: __ZN12SaveLoadData13save_settingsERKNSt3__112basic_stringIcNS0_11char_traitsIcEENS0_9allocatorIcEEEES8_, symObjAddr: 0x0, symBinAddr: 0x100019828, symSize: 0x370 }
  - { offsetInCU: 0xFFE0, offset: 0x6A361, size: 0x8, addend: 0x0, symName: __ZNSt3__113basic_fstreamIcNS_11char_traitsIcEEEC1ERKNS_12basic_stringIcS2_NS_9allocatorIcEEEEj, symObjAddr: 0x370, symBinAddr: 0x100019B98, symSize: 0x180 }
  - { offsetInCU: 0x1002A, offset: 0x6A3AB, size: 0x8, addend: 0x0, symName: __ZNKSt3__19basic_iosIcNS_11char_traitsIcEEEntB8ue170006Ev, symObjAddr: 0x4F0, symBinAddr: 0x100019D18, symSize: 0x28 }
  - { offsetInCU: 0x10074, offset: 0x6A3F5, size: 0x8, addend: 0x0, symName: __ZNSt3__118basic_stringstreamIcNS_11char_traitsIcEENS_9allocatorIcEEEC1B8ue170006Ev, symObjAddr: 0x5E4, symBinAddr: 0x100019D40, symSize: 0x104 }
  - { offsetInCU: 0x1009E, offset: 0x6A41F, size: 0x8, addend: 0x0, symName: __ZNKSt3__113basic_fstreamIcNS_11char_traitsIcEEE5rdbufEv, symObjAddr: 0x6E8, symBinAddr: 0x100019E44, symSize: 0x18 }
  - { offsetInCU: 0x100C6, offset: 0x6A447, size: 0x8, addend: 0x0, symName: __ZNKSt3__118basic_stringstreamIcNS_11char_traitsIcEENS_9allocatorIcEEE3strB8ue170006Ev, symObjAddr: 0x700, symBinAddr: 0x100019E5C, symSize: 0x30 }
  - { offsetInCU: 0x100EC, offset: 0x6A46D, size: 0x8, addend: 0x0, symName: __ZNKSt3__112basic_stringIcNS_11char_traitsIcEENS_9allocatorIcEEE4findB8ue170006EPKcm, symObjAddr: 0x730, symBinAddr: 0x100019E8C, symSize: 0x74 }
  - { offsetInCU: 0x10132, offset: 0x6A4B3, size: 0x8, addend: 0x0, symName: __ZNSt3__112basic_stringIcNS_11char_traitsIcEENS_9allocatorIcEEE7replaceB8ue170006EmmRKS5_, symObjAddr: 0x7A4, symBinAddr: 0x100019F00, symSize: 0x6C }
  - { offsetInCU: 0x10185, offset: 0x6A506, size: 0x8, addend: 0x0, symName: __ZNSt3__113basic_ostreamIcNS_11char_traitsIcEEE5seekpENS_4fposI11__mbstate_tEE, symObjAddr: 0x890, symBinAddr: 0x100019FA0, symSize: 0x160 }
  - { offsetInCU: 0x101D0, offset: 0x6A551, size: 0x8, addend: 0x0, symName: __ZNSt3__14fposI11__mbstate_tEC1B8ue170006Ex, symObjAddr: 0x9F0, symBinAddr: 0x10001A100, symSize: 0x34 }
  - { offsetInCU: 0x10208, offset: 0x6A589, size: 0x8, addend: 0x0, symName: __ZNKSt3__118basic_stringstreamIcNS_11char_traitsIcEENS_9allocatorIcEEE5rdbufB8ue170006Ev, symObjAddr: 0xA24, symBinAddr: 0x10001A134, symSize: 0x18 }
  - { offsetInCU: 0x1022E, offset: 0x6A5AF, size: 0x8, addend: 0x0, symName: __ZNSt3__113basic_fstreamIcNS_11char_traitsIcEEE5closeEv, symObjAddr: 0xA3C, symBinAddr: 0x10001A14C, symSize: 0x58 }
  - { offsetInCU: 0x1025B, offset: 0x6A5DC, size: 0x8, addend: 0x0, symName: __ZNSt3__118basic_stringstreamIcNS_11char_traitsIcEENS_9allocatorIcEEED1Ev, symObjAddr: 0xA94, symBinAddr: 0x10001A1A4, symSize: 0x40 }
  - { offsetInCU: 0x1028D, offset: 0x6A60E, size: 0x8, addend: 0x0, symName: __ZNSt3__113basic_fstreamIcNS_11char_traitsIcEEED1Ev, symObjAddr: 0xAD4, symBinAddr: 0x10001A1E4, symSize: 0x40 }
  - { offsetInCU: 0x102B9, offset: 0x6A63A, size: 0x8, addend: 0x0, symName: __ZN12SaveLoadData13load_settingsERKNSt3__112basic_stringIcNS0_11char_traitsIcEENS0_9allocatorIcEEEERS6_RNS0_6vectorIiNS4_IiEEEE, symObjAddr: 0xB14, symBinAddr: 0x10001A224, symSize: 0x2A0 }
  - { offsetInCU: 0x1035A, offset: 0x6A6DB, size: 0x8, addend: 0x0, symName: __ZNSt3__114basic_ifstreamIcNS_11char_traitsIcEEEC1ERKNS_12basic_stringIcS2_NS_9allocatorIcEEEEj, symObjAddr: 0xDB4, symBinAddr: 0x10001A4C4, symSize: 0x16C }
  - { offsetInCU: 0x103A4, offset: 0x6A725, size: 0x8, addend: 0x0, symName: __ZNKSt3__19basic_iosIcNS_11char_traitsIcEEEcvbB8ue170006Ev, symObjAddr: 0xFA8, symBinAddr: 0x10001A68C, symSize: 0x2C }
  - { offsetInCU: 0x103EE, offset: 0x6A76F, size: 0x8, addend: 0x0, symName: __ZNSt3__119basic_istringstreamIcNS_11char_traitsIcEENS_9allocatorIcEEEC1B8ue170006ERKNS_12basic_stringIcS2_S4_EEj, symObjAddr: 0xFD4, symBinAddr: 0x10001A6B8, symSize: 0xFC }
  - { offsetInCU: 0x1043B, offset: 0x6A7BC, size: 0x8, addend: 0x0, symName: __ZNSt3__119basic_istringstreamIcNS_11char_traitsIcEENS_9allocatorIcEEED1Ev, symObjAddr: 0x13D8, symBinAddr: 0x10001AABC, symSize: 0x40 }
  - { offsetInCU: 0x1046D, offset: 0x6A7EE, size: 0x8, addend: 0x0, symName: __ZNSt3__114basic_ifstreamIcNS_11char_traitsIcEEED1Ev, symObjAddr: 0x1418, symBinAddr: 0x10001AAFC, symSize: 0x40 }
  - { offsetInCU: 0x1049A, offset: 0x6A81B, size: 0x8, addend: 0x0, symName: __ZN12SaveLoadData9save_fileERKNSt3__112basic_stringIcNS0_11char_traitsIcEENS0_9allocatorIcEEEERKNS0_6vectorIiNS4_IiEEEE, symObjAddr: 0x1458, symBinAddr: 0x10001AB3C, symSize: 0x1F8 }
  - { offsetInCU: 0x10515, offset: 0x6A896, size: 0x8, addend: 0x0, symName: __ZNKSt3__16vectorIiNS_9allocatorIiEEE4sizeB8ue170006Ev, symObjAddr: 0x17BC, symBinAddr: 0x10001AD34, symSize: 0x28 }
  - { offsetInCU: 0x1053B, offset: 0x6A8BC, size: 0x8, addend: 0x0, symName: __ZNKSt3__16vectorIiNS_9allocatorIiEEEixB8ue170006Em, symObjAddr: 0x17E4, symBinAddr: 0x10001AD5C, symSize: 0x24 }
  - { offsetInCU: 0x10577, offset: 0x6A8F8, size: 0x8, addend: 0x0, symName: __ZN12SaveLoadData9load_fileERKNSt3__112basic_stringIcNS0_11char_traitsIcEENS0_9allocatorIcEEEERNS0_6vectorIiNS4_IiEEEE, symObjAddr: 0x1848, symBinAddr: 0x10001AD80, symSize: 0x310 }
  - { offsetInCU: 0x105EF, offset: 0x6A970, size: 0x8, addend: 0x0, symName: __ZNKSt3__112basic_stringIcNS_11char_traitsIcEENS_9allocatorIcEEE6substrB8ue170006Emm, symObjAddr: 0x1B58, symBinAddr: 0x10001B090, symSize: 0x68 }
  - { offsetInCU: 0x10633, offset: 0x6A9B4, size: 0x8, addend: 0x0, symName: __ZNSt3__16vectorIiNS_9allocatorIiEEE9push_backB8ue170006ERKi, symObjAddr: 0x1BC0, symBinAddr: 0x10001B0F8, symSize: 0x6C }
  - { offsetInCU: 0x1066A, offset: 0x6A9EB, size: 0x8, addend: 0x0, symName: __ZN12SaveLoadData15does_file_existERKNSt3__112basic_stringIcNS0_11char_traitsIcEENS0_9allocatorIcEEEE, symObjAddr: 0x1C34, symBinAddr: 0x10001B164, symSize: 0x70 }
  - { offsetInCU: 0x1068F, offset: 0x6AA10, size: 0x8, addend: 0x0, symName: __ZN12SaveLoadData11delete_fileERKNSt3__112basic_stringIcNS0_11char_traitsIcEENS0_9allocatorIcEEEE, symObjAddr: 0x1D5C, symBinAddr: 0x10001B1D4, symSize: 0x80 }
  - { offsetInCU: 0x106B4, offset: 0x6AA35, size: 0x8, addend: 0x0, symName: __ZNSt3__118basic_stringstreamIcNS_11char_traitsIcEENS_9allocatorIcEEED2Ev, symObjAddr: 0x1E00, symBinAddr: 0x10001B254, symSize: 0x6C }
  - { offsetInCU: 0x106EE, offset: 0x6AA6F, size: 0x8, addend: 0x0, symName: __ZThn16_NSt3__118basic_stringstreamIcNS_11char_traitsIcEENS_9allocatorIcEEED1Ev, symObjAddr: 0x1E6C, symBinAddr: 0x10001B2C0, symSize: 0x1C }
  - { offsetInCU: 0x10705, offset: 0x6AA86, size: 0x8, addend: 0x0, symName: __ZTv0_n24_NSt3__118basic_stringstreamIcNS_11char_traitsIcEENS_9allocatorIcEEED1Ev, symObjAddr: 0x1E88, symBinAddr: 0x10001B2DC, symSize: 0x28 }
  - { offsetInCU: 0x10721, offset: 0x6AAA2, size: 0x8, addend: 0x0, symName: __ZNSt3__115basic_stringbufIcNS_11char_traitsIcEENS_9allocatorIcEEED1Ev, symObjAddr: 0x1EB0, symBinAddr: 0x10001B304, symSize: 0x2C }
  - { offsetInCU: 0x1074E, offset: 0x6AACF, size: 0x8, addend: 0x0, symName: __ZNSt3__115basic_stringbufIcNS_11char_traitsIcEENS_9allocatorIcEEED2Ev, symObjAddr: 0x1EDC, symBinAddr: 0x10001B330, symSize: 0x48 }
  - { offsetInCU: 0x1077B, offset: 0x6AAFC, size: 0x8, addend: 0x0, symName: __ZNSt3__113basic_fstreamIcNS_11char_traitsIcEEED2Ev, symObjAddr: 0x1F24, symBinAddr: 0x10001B378, symSize: 0x6C }
  - { offsetInCU: 0x107B4, offset: 0x6AB35, size: 0x8, addend: 0x0, symName: __ZThn16_NSt3__113basic_fstreamIcNS_11char_traitsIcEEED1Ev, symObjAddr: 0x1F90, symBinAddr: 0x10001B3E4, symSize: 0x1C }
  - { offsetInCU: 0x107CA, offset: 0x6AB4B, size: 0x8, addend: 0x0, symName: __ZTv0_n24_NSt3__113basic_fstreamIcNS_11char_traitsIcEEED1Ev, symObjAddr: 0x1FAC, symBinAddr: 0x10001B400, symSize: 0x28 }
  - { offsetInCU: 0x107E0, offset: 0x6AB61, size: 0x8, addend: 0x0, symName: __ZNSt3__113basic_fstreamIcNS_11char_traitsIcEEED0Ev, symObjAddr: 0x1FD4, symBinAddr: 0x10001B428, symSize: 0x30 }
  - { offsetInCU: 0x1080C, offset: 0x6AB8D, size: 0x8, addend: 0x0, symName: __ZThn16_NSt3__113basic_fstreamIcNS_11char_traitsIcEEED0Ev, symObjAddr: 0x2004, symBinAddr: 0x10001B458, symSize: 0x18 }
  - { offsetInCU: 0x10822, offset: 0x6ABA3, size: 0x8, addend: 0x0, symName: __ZTv0_n24_NSt3__113basic_fstreamIcNS_11char_traitsIcEEED0Ev, symObjAddr: 0x201C, symBinAddr: 0x10001B470, symSize: 0x20 }
  - { offsetInCU: 0x10838, offset: 0x6ABB9, size: 0x8, addend: 0x0, symName: __ZNSt3__119basic_istringstreamIcNS_11char_traitsIcEENS_9allocatorIcEEED2Ev, symObjAddr: 0x203C, symBinAddr: 0x10001B490, symSize: 0x64 }
  - { offsetInCU: 0x10872, offset: 0x6ABF3, size: 0x8, addend: 0x0, symName: __ZTv0_n24_NSt3__119basic_istringstreamIcNS_11char_traitsIcEENS_9allocatorIcEEED1Ev, symObjAddr: 0x20A0, symBinAddr: 0x10001B4F4, symSize: 0x28 }
  - { offsetInCU: 0x10889, offset: 0x6AC0A, size: 0x8, addend: 0x0, symName: __ZNSt3__114basic_ifstreamIcNS_11char_traitsIcEEED2Ev, symObjAddr: 0x20C8, symBinAddr: 0x10001B51C, symSize: 0x64 }
  - { offsetInCU: 0x108C3, offset: 0x6AC44, size: 0x8, addend: 0x0, symName: __ZTv0_n24_NSt3__114basic_ifstreamIcNS_11char_traitsIcEEED1Ev, symObjAddr: 0x212C, symBinAddr: 0x10001B580, symSize: 0x28 }
  - { offsetInCU: 0x108DA, offset: 0x6AC5B, size: 0x8, addend: 0x0, symName: __ZNSt3__114basic_iostreamIcNS_11char_traitsIcEEEC2B8ue170006EPNS_15basic_streambufIcS2_EE, symObjAddr: 0x2678, symBinAddr: 0x10001B5A8, symSize: 0xAC }
  - { offsetInCU: 0x10920, offset: 0x6ACA1, size: 0x8, addend: 0x0, symName: __ZNSt3__113basic_istreamIcNS_11char_traitsIcEEEC2B8ue170006EPNS_15basic_streambufIcS2_EE, symObjAddr: 0x27B8, symBinAddr: 0x10001B654, symSize: 0x64 }
  - { offsetInCU: 0x10965, offset: 0x6ACE6, size: 0x8, addend: 0x0, symName: __ZNSt3__113basic_ostreamIcNS_11char_traitsIcEEEC2B8ue170006Ev, symObjAddr: 0x281C, symBinAddr: 0x10001B6B8, symSize: 0x34 }
  - { offsetInCU: 0x1099C, offset: 0x6AD1D, size: 0x8, addend: 0x0, symName: __ZNKSt3__19basic_iosIcNS_11char_traitsIcEEE4failB8ue170006Ev, symObjAddr: 0x28C8, symBinAddr: 0x10001B6EC, symSize: 0x28 }
  - { offsetInCU: 0x109C2, offset: 0x6AD43, size: 0x8, addend: 0x0, symName: __ZNKSt3__18ios_base4failB8ue170006Ev, symObjAddr: 0x28F0, symBinAddr: 0x10001B714, symSize: 0x28 }
  - { offsetInCU: 0x10A0D, offset: 0x6AD8E, size: 0x8, addend: 0x0, symName: __ZNSt3__115basic_stringbufIcNS_11char_traitsIcEENS_9allocatorIcEEEC1B8ue170006Ej, symObjAddr: 0x3228, symBinAddr: 0x10001B73C, symSize: 0x34 }
  - { offsetInCU: 0x10A46, offset: 0x6ADC7, size: 0x8, addend: 0x0, symName: __ZNSt3__115basic_stringbufIcNS_11char_traitsIcEENS_9allocatorIcEEEC2B8ue170006Ej, symObjAddr: 0x325C, symBinAddr: 0x10001B770, symSize: 0x60 }
  - { offsetInCU: 0x10A7F, offset: 0x6AE00, size: 0x8, addend: 0x0, symName: __ZNSt3__111char_traitsIcE4findB8ue170006EPKcmRS2_, symObjAddr: 0x3548, symBinAddr: 0x10001BA08, symSize: 0x70 }
  - { offsetInCU: 0x10ABE, offset: 0x6AE3F, size: 0x8, addend: 0x0, symName: __ZNSt3__115basic_streambufIcNS_11char_traitsIcEEE10pubseekposB8ue170006ENS_4fposI11__mbstate_tEEj, symObjAddr: 0x36D0, symBinAddr: 0x10001BB00, symSize: 0x94 }
  - { offsetInCU: 0x10B01, offset: 0x6AE82, size: 0x8, addend: 0x0, symName: __ZNKSt3__14fposI11__mbstate_tEcvxB8ue170006Ev, symObjAddr: 0x3764, symBinAddr: 0x10001BB94, symSize: 0x18 }
  - { offsetInCU: 0x10B27, offset: 0x6AEA8, size: 0x8, addend: 0x0, symName: __ZNSt3__14fposI11__mbstate_tEC2B8ue170006Ex, symObjAddr: 0x377C, symBinAddr: 0x10001BBAC, symSize: 0x40 }
  - { offsetInCU: 0x10B7D, offset: 0x6AEFE, size: 0x8, addend: 0x0, symName: __ZNKSt3__113basic_istreamIcNS_11char_traitsIcEEE6sentrycvbB8ue170006Ev, symObjAddr: 0x39F4, symBinAddr: 0x10001BE24, symSize: 0x1C }
  - { offsetInCU: 0x10BA3, offset: 0x6AF24, size: 0x8, addend: 0x0, symName: __ZNSt3__112basic_stringIcNS_11char_traitsIcEENS_9allocatorIcEEE5clearB8ue170006Ev, symObjAddr: 0x3A10, symBinAddr: 0x10001BE40, symSize: 0x78 }
  - { offsetInCU: 0x10BCB, offset: 0x6AF4C, size: 0x8, addend: 0x0, symName: __ZNSt3__115basic_streambufIcNS_11char_traitsIcEEE6sbumpcB8ue170006Ev, symObjAddr: 0x3A88, symBinAddr: 0x10001BEB8, symSize: 0x78 }
  - { offsetInCU: 0x10BF1, offset: 0x6AF72, size: 0x8, addend: 0x0, symName: __ZNSt3__111char_traitsIcE12to_char_typeB8ue170006Ei, symObjAddr: 0x3B00, symBinAddr: 0x10001BF30, symSize: 0x18 }
  - { offsetInCU: 0x10C14, offset: 0x6AF95, size: 0x8, addend: 0x0, symName: __ZNSt3__111char_traitsIcE2eqEcc, symObjAddr: 0x3B18, symBinAddr: 0x10001BF48, symSize: 0x28 }
  - { offsetInCU: 0x10C45, offset: 0x6AFC6, size: 0x8, addend: 0x0, symName: __ZNSt3__18ios_base18__setstate_nothrowB8ue170006Ej, symObjAddr: 0x3BEC, symBinAddr: 0x10001BF70, symSize: 0x64 }
  - { offsetInCU: 0x10C7A, offset: 0x6AFFB, size: 0x8, addend: 0x0, symName: __ZNKSt3__19basic_iosIcNS_11char_traitsIcEEE10exceptionsB8ue170006Ev, symObjAddr: 0x3C50, symBinAddr: 0x10001BFD4, symSize: 0x24 }
  - { offsetInCU: 0x10CA0, offset: 0x6B021, size: 0x8, addend: 0x0, symName: __ZNSt3__111char_traitsIcE11to_int_typeB8ue170006Ec, symObjAddr: 0x3D48, symBinAddr: 0x10001BFF8, symSize: 0x14 }
  - { offsetInCU: 0x10CC4, offset: 0x6B045, size: 0x8, addend: 0x0, symName: __ZNKSt3__18ios_base10exceptionsB8ue170006Ev, symObjAddr: 0x3E0C, symBinAddr: 0x10001C00C, symSize: 0x18 }
  - { offsetInCU: 0x10CEC, offset: 0x6B06D, size: 0x8, addend: 0x0, symName: __ZNSt3__115basic_stringbufIcNS_11char_traitsIcEENS_9allocatorIcEEEC1B8ue170006ERKNS_12basic_stringIcS2_S4_EEj, symObjAddr: 0x3E24, symBinAddr: 0x10001C024, symSize: 0x3C }
  - { offsetInCU: 0x10D34, offset: 0x6B0B5, size: 0x8, addend: 0x0, symName: __ZNSt3__115basic_stringbufIcNS_11char_traitsIcEENS_9allocatorIcEEEC2B8ue170006ERKNS_12basic_stringIcS2_S4_EEj, symObjAddr: 0x3E60, symBinAddr: 0x10001C060, symSize: 0xB4 }
  - { offsetInCU: 0x10D7C, offset: 0x6B0FD, size: 0x8, addend: 0x0, symName: __ZNSt3__112basic_stringIcNS_11char_traitsIcEENS_9allocatorIcEEEC1B8ue170006ERKS4_, symObjAddr: 0x3F38, symBinAddr: 0x10001C114, symSize: 0x34 }
  - { offsetInCU: 0x10DB5, offset: 0x6B136, size: 0x8, addend: 0x0, symName: __ZNSt3__112basic_stringIcNS_11char_traitsIcEENS_9allocatorIcEEEC2B8ue170006ERKS4_, symObjAddr: 0x3F6C, symBinAddr: 0x10001C148, symSize: 0x48 }
  - { offsetInCU: 0x10DEE, offset: 0x6B16F, size: 0x8, addend: 0x0, symName: __ZNSt3__115basic_streambufIcNS_11char_traitsIcEEE5sgetcB8ue170006Ev, symObjAddr: 0x405C, symBinAddr: 0x10001C190, symSize: 0x70 }
  - { offsetInCU: 0x10E14, offset: 0x6B195, size: 0x8, addend: 0x0, symName: __ZNKSt3__15ctypeIcE2isB8ue170006Ejc, symObjAddr: 0x40CC, symBinAddr: 0x10001C200, symSize: 0x7C }
  - { offsetInCU: 0x10E57, offset: 0x6B1D8, size: 0x8, addend: 0x0, symName: __Z7isasciii, symObjAddr: 0x4150, symBinAddr: 0x10001C27C, symSize: 0x24 }
  - { offsetInCU: 0x10E84, offset: 0x6B205, size: 0x8, addend: 0x0, symName: __ZNSt3__19allocatorIcEC1B8ue170006Ev, symObjAddr: 0x41D4, symBinAddr: 0x10001C2A0, symSize: 0x2C }
  - { offsetInCU: 0x10EAE, offset: 0x6B22F, size: 0x8, addend: 0x0, symName: __ZNSt3__16vectorIiNS_9allocatorIiEEE9__end_capB8ue170006Ev, symObjAddr: 0x4200, symBinAddr: 0x10001C2CC, symSize: 0x28 }
  - { offsetInCU: 0x10ED4, offset: 0x6B255, size: 0x8, addend: 0x0, symName: __ZNSt3__16vectorIiNS_9allocatorIiEEE22__construct_one_at_endB8ue170006IJRKiEEEvDpOT_, symObjAddr: 0x4228, symBinAddr: 0x10001C2F4, symSize: 0x90 }
  - { offsetInCU: 0x10F24, offset: 0x6B2A5, size: 0x8, addend: 0x0, symName: __ZNSt3__16vectorIiNS_9allocatorIiEEE21__push_back_slow_pathIRKiEEvOT_, symObjAddr: 0x42B8, symBinAddr: 0x10001C384, symSize: 0xD8 }
  - { offsetInCU: 0x10F84, offset: 0x6B305, size: 0x8, addend: 0x0, symName: __ZNSt3__117__compressed_pairIPiNS_9allocatorIiEEE5firstB8ue170006Ev, symObjAddr: 0x4390, symBinAddr: 0x10001C45C, symSize: 0x24 }
  - { offsetInCU: 0x10FAA, offset: 0x6B32B, size: 0x8, addend: 0x0, symName: __ZNSt3__122__compressed_pair_elemIPiLi0ELb0EE5__getB8ue170006Ev, symObjAddr: 0x43B4, symBinAddr: 0x10001C480, symSize: 0x14 }
  - { offsetInCU: 0x10FE9, offset: 0x6B36A, size: 0x8, addend: 0x0, symName: __ZNSt3__16vectorIiNS_9allocatorIiEEE21_ConstructTransactionC1B8ue170006ERS3_m, symObjAddr: 0x43C8, symBinAddr: 0x10001C494, symSize: 0x3C }
  - { offsetInCU: 0x11031, offset: 0x6B3B2, size: 0x8, addend: 0x0, symName: __ZNSt3__116allocator_traitsINS_9allocatorIiEEE9constructB8ue170006IiJRKiEvEEvRS2_PT_DpOT0_, symObjAddr: 0x4404, symBinAddr: 0x10001C4D0, symSize: 0x34 }
  - { offsetInCU: 0x11089, offset: 0x6B40A, size: 0x8, addend: 0x0, symName: __ZNSt3__16vectorIiNS_9allocatorIiEEE7__allocB8ue170006Ev, symObjAddr: 0x4438, symBinAddr: 0x10001C504, symSize: 0x28 }
  - { offsetInCU: 0x110AF, offset: 0x6B430, size: 0x8, addend: 0x0, symName: __ZNSt3__16vectorIiNS_9allocatorIiEEE21_ConstructTransactionD1B8ue170006Ev, symObjAddr: 0x4474, symBinAddr: 0x10001C540, symSize: 0x2C }
  - { offsetInCU: 0x110D9, offset: 0x6B45A, size: 0x8, addend: 0x0, symName: __ZNSt3__16vectorIiNS_9allocatorIiEEE21_ConstructTransactionC2B8ue170006ERS3_m, symObjAddr: 0x44A0, symBinAddr: 0x10001C56C, symSize: 0x44 }
  - { offsetInCU: 0x11121, offset: 0x6B4A2, size: 0x8, addend: 0x0, symName: __ZNSt3__19allocatorIiE9constructB8ue170006IiJRKiEEEvPT_DpOT0_, symObjAddr: 0x44E4, symBinAddr: 0x10001C5B0, symSize: 0x28 }
  - { offsetInCU: 0x11177, offset: 0x6B4F8, size: 0x8, addend: 0x0, symName: __ZNSt3__117__compressed_pairIPiNS_9allocatorIiEEE6secondB8ue170006Ev, symObjAddr: 0x450C, symBinAddr: 0x10001C5D8, symSize: 0x24 }
  - { offsetInCU: 0x1119D, offset: 0x6B51E, size: 0x8, addend: 0x0, symName: __ZNSt3__122__compressed_pair_elemINS_9allocatorIiEELi1ELb1EE5__getB8ue170006Ev, symObjAddr: 0x4530, symBinAddr: 0x10001C5FC, symSize: 0x14 }
  - { offsetInCU: 0x111C3, offset: 0x6B544, size: 0x8, addend: 0x0, symName: __ZNSt3__16vectorIiNS_9allocatorIiEEE21_ConstructTransactionD2B8ue170006Ev, symObjAddr: 0x4544, symBinAddr: 0x10001C610, symSize: 0x20 }
  - { offsetInCU: 0x111ED, offset: 0x6B56E, size: 0x8, addend: 0x0, symName: __ZNKSt3__16vectorIiNS_9allocatorIiEEE11__recommendB8ue170006Em, symObjAddr: 0x4564, symBinAddr: 0x10001C630, symSize: 0xB4 }
  - { offsetInCU: 0x11244, offset: 0x6B5C5, size: 0x8, addend: 0x0, symName: __ZNSt3__114__split_bufferIiRNS_9allocatorIiEEEC1EmmS3_, symObjAddr: 0x4618, symBinAddr: 0x10001C6E4, symSize: 0x44 }
  - { offsetInCU: 0x1129A, offset: 0x6B61B, size: 0x8, addend: 0x0, symName: __ZNSt3__114__split_bufferIiRNS_9allocatorIiEEED1Ev, symObjAddr: 0x476C, symBinAddr: 0x10001C838, symSize: 0x2C }
  - { offsetInCU: 0x112C6, offset: 0x6B647, size: 0x8, addend: 0x0, symName: __ZNKSt3__16vectorIiNS_9allocatorIiEEE8max_sizeEv, symObjAddr: 0x4798, symBinAddr: 0x10001C864, symSize: 0x60 }
  - { offsetInCU: 0x112EE, offset: 0x6B66F, size: 0x8, addend: 0x0, symName: __ZNKSt3__16vectorIiNS_9allocatorIiEEE20__throw_length_errorB8ue170006Ev, symObjAddr: 0x47F8, symBinAddr: 0x10001C8C4, symSize: 0x1C }
  - { offsetInCU: 0x11314, offset: 0x6B695, size: 0x8, addend: 0x0, symName: __ZNKSt3__16vectorIiNS_9allocatorIiEEE8capacityB8ue170006Ev, symObjAddr: 0x4814, symBinAddr: 0x10001C8E0, symSize: 0x40 }
  - { offsetInCU: 0x11344, offset: 0x6B6C5, size: 0x8, addend: 0x0, symName: __ZNSt3__116allocator_traitsINS_9allocatorIiEEE8max_sizeB8ue170006IS2_vEEmRKS2_, symObjAddr: 0x48AC, symBinAddr: 0x10001C920, symSize: 0x24 }
  - { offsetInCU: 0x11373, offset: 0x6B6F4, size: 0x8, addend: 0x0, symName: __ZNKSt3__16vectorIiNS_9allocatorIiEEE7__allocB8ue170006Ev, symObjAddr: 0x48D0, symBinAddr: 0x10001C944, symSize: 0x28 }
  - { offsetInCU: 0x11399, offset: 0x6B71A, size: 0x8, addend: 0x0, symName: __ZNKSt3__19allocatorIiE8max_sizeB8ue170006Ev, symObjAddr: 0x4980, symBinAddr: 0x10001C96C, symSize: 0x14 }
  - { offsetInCU: 0x113BF, offset: 0x6B740, size: 0x8, addend: 0x0, symName: __ZNKSt3__117__compressed_pairIPiNS_9allocatorIiEEE6secondB8ue170006Ev, symObjAddr: 0x4994, symBinAddr: 0x10001C980, symSize: 0x24 }
  - { offsetInCU: 0x113E5, offset: 0x6B766, size: 0x8, addend: 0x0, symName: __ZNKSt3__122__compressed_pair_elemINS_9allocatorIiEELi1ELb1EE5__getB8ue170006Ev, symObjAddr: 0x49B8, symBinAddr: 0x10001C9A4, symSize: 0x14 }
  - { offsetInCU: 0x1140B, offset: 0x6B78C, size: 0x8, addend: 0x0, symName: __ZNKSt3__16vectorIiNS_9allocatorIiEEE9__end_capB8ue170006Ev, symObjAddr: 0x4AB0, symBinAddr: 0x10001C9B8, symSize: 0x28 }
  - { offsetInCU: 0x11431, offset: 0x6B7B2, size: 0x8, addend: 0x0, symName: __ZNKSt3__117__compressed_pairIPiNS_9allocatorIiEEE5firstB8ue170006Ev, symObjAddr: 0x4AD8, symBinAddr: 0x10001C9E0, symSize: 0x24 }
  - { offsetInCU: 0x11457, offset: 0x6B7D8, size: 0x8, addend: 0x0, symName: __ZNKSt3__122__compressed_pair_elemIPiLi0ELb0EE5__getB8ue170006Ev, symObjAddr: 0x4AFC, symBinAddr: 0x10001CA04, symSize: 0x14 }
  - { offsetInCU: 0x1147D, offset: 0x6B7FE, size: 0x8, addend: 0x0, symName: __ZNSt3__114__split_bufferIiRNS_9allocatorIiEEEC2EmmS3_, symObjAddr: 0x4B64, symBinAddr: 0x10001CA18, symSize: 0xD4 }
  - { offsetInCU: 0x114F8, offset: 0x6B879, size: 0x8, addend: 0x0, symName: __ZNSt3__117__compressed_pairIPiRNS_9allocatorIiEEEC1B8ue170006IDnS4_EEOT_OT0_, symObjAddr: 0x4C38, symBinAddr: 0x10001CAEC, symSize: 0x3C }
  - { offsetInCU: 0x11550, offset: 0x6B8D1, size: 0x8, addend: 0x0, symName: __ZNSt3__114__split_bufferIiRNS_9allocatorIiEEE7__allocB8ue170006Ev, symObjAddr: 0x4CB4, symBinAddr: 0x10001CB68, symSize: 0x28 }
  - { offsetInCU: 0x11576, offset: 0x6B8F7, size: 0x8, addend: 0x0, symName: __ZNSt3__114__split_bufferIiRNS_9allocatorIiEEE9__end_capB8ue170006Ev, symObjAddr: 0x4CDC, symBinAddr: 0x10001CB90, symSize: 0x28 }
  - { offsetInCU: 0x1159C, offset: 0x6B91D, size: 0x8, addend: 0x0, symName: __ZNSt3__117__compressed_pairIPiRNS_9allocatorIiEEEC2B8ue170006IDnS4_EEOT_OT0_, symObjAddr: 0x4D04, symBinAddr: 0x10001CBB8, symSize: 0x48 }
  - { offsetInCU: 0x115F4, offset: 0x6B975, size: 0x8, addend: 0x0, symName: __ZNSt3__122__compressed_pair_elemIPiLi0ELb0EEC2B8ue170006IDnvEEOT_, symObjAddr: 0x4D4C, symBinAddr: 0x10001CC00, symSize: 0x1C }
  - { offsetInCU: 0x11637, offset: 0x6B9B8, size: 0x8, addend: 0x0, symName: __ZNSt3__122__compressed_pair_elemIRNS_9allocatorIiEELi1ELb0EEC2B8ue170006IS3_vEEOT_, symObjAddr: 0x4D68, symBinAddr: 0x10001CC1C, symSize: 0x20 }
  - { offsetInCU: 0x1167A, offset: 0x6B9FB, size: 0x8, addend: 0x0, symName: __ZNSt3__19allocatorIiE8allocateB8ue170006Em, symObjAddr: 0x4D88, symBinAddr: 0x10001CC3C, symSize: 0x58 }
  - { offsetInCU: 0x116AE, offset: 0x6BA2F, size: 0x8, addend: 0x0, symName: __ZNSt3__117__compressed_pairIPiRNS_9allocatorIiEEE6secondB8ue170006Ev, symObjAddr: 0x4EE4, symBinAddr: 0x10001CC94, symSize: 0x28 }
  - { offsetInCU: 0x116D4, offset: 0x6BA55, size: 0x8, addend: 0x0, symName: __ZNSt3__122__compressed_pair_elemIRNS_9allocatorIiEELi1ELb0EE5__getB8ue170006Ev, symObjAddr: 0x4F0C, symBinAddr: 0x10001CCBC, symSize: 0x18 }
  - { offsetInCU: 0x116FA, offset: 0x6BA7B, size: 0x8, addend: 0x0, symName: __ZNSt3__117__compressed_pairIPiRNS_9allocatorIiEEE5firstB8ue170006Ev, symObjAddr: 0x4F24, symBinAddr: 0x10001CCD4, symSize: 0x24 }
  - { offsetInCU: 0x11720, offset: 0x6BAA1, size: 0x8, addend: 0x0, symName: __ZNKSt3__16vectorIiNS_9allocatorIiEEE17__annotate_deleteB8ue170006Ev, symObjAddr: 0x4F48, symBinAddr: 0x10001CCF8, symSize: 0xB8 }
  - { offsetInCU: 0x11746, offset: 0x6BAC7, size: 0x8, addend: 0x0, symName: __ZNSt3__116reverse_iteratorIPiEC1B8ue170006ES1_, symObjAddr: 0x5078, symBinAddr: 0x10001CE28, symSize: 0x34 }
  - { offsetInCU: 0x1177E, offset: 0x6BAFF, size: 0x8, addend: 0x0, symName: __ZNKSt3__116reverse_iteratorIPiE4baseB8ue170006Ev, symObjAddr: 0x50AC, symBinAddr: 0x10001CE5C, symSize: 0x18 }
  - { offsetInCU: 0x117A4, offset: 0x6BB25, size: 0x8, addend: 0x0, symName: __ZNKSt3__16vectorIiNS_9allocatorIiEEE14__annotate_newB8ue170006Em, symObjAddr: 0x5100, symBinAddr: 0x10001CEB0, symSize: 0xAC }
  - { offsetInCU: 0x117D9, offset: 0x6BB5A, size: 0x8, addend: 0x0, symName: __ZNKSt3__16vectorIiNS_9allocatorIiEEE31__annotate_contiguous_containerB8ue170006EPKvS5_S5_S5_, symObjAddr: 0x51AC, symBinAddr: 0x10001CF5C, symSize: 0x20 }
  - { offsetInCU: 0x1182F, offset: 0x6BBB0, size: 0x8, addend: 0x0, symName: __ZNKSt3__16vectorIiNS_9allocatorIiEEE4dataB8ue170006Ev, symObjAddr: 0x51CC, symBinAddr: 0x10001CF7C, symSize: 0x28 }
  - { offsetInCU: 0x11879, offset: 0x6BBFA, size: 0x8, addend: 0x0, symName: __ZNKSt3__111__move_loopINS_17_ClassicAlgPolicyEEclB8ue170006INS_16reverse_iteratorIPiEES6_S6_EENS_4pairIT_T1_EES8_T0_S9_, symObjAddr: 0x54E4, symBinAddr: 0x10001D294, symSize: 0xA0 }
  - { offsetInCU: 0x118EA, offset: 0x6BC6B, size: 0x8, addend: 0x0, symName: __ZNSt3__18_IterOpsINS_17_ClassicAlgPolicyEE11__iter_moveB8ue170006IRNS_16reverse_iteratorIPiEEEENS_9enable_ifIXsr12is_referenceIDTdeclsr3stdE7declvalIRT_EEEEE5valueEDTclsr3stdE4movedeclsr3stdE7declvalISA_EEEEE4typeEOS9_, symObjAddr: 0x5718, symBinAddr: 0x10001D4C8, symSize: 0x28 }
  - { offsetInCU: 0x11916, offset: 0x6BC97, size: 0x8, addend: 0x0, symName: __ZNKSt3__116reverse_iteratorIPiEdeB8ue170006Ev, symObjAddr: 0x5740, symBinAddr: 0x10001D4F0, symSize: 0x28 }
  - { offsetInCU: 0x1194A, offset: 0x6BCCB, size: 0x8, addend: 0x0, symName: __ZNSt3__116reverse_iteratorIPiEppB8ue170006Ev, symObjAddr: 0x5768, symBinAddr: 0x10001D518, symSize: 0x20 }
  - { offsetInCU: 0x11970, offset: 0x6BCF1, size: 0x8, addend: 0x0, symName: __ZNSt3__18_IterOpsINS_17_ClassicAlgPolicyEE25__validate_iter_referenceB8ue170006IRNS_16reverse_iteratorIPiEEEEvv, symObjAddr: 0x5788, symBinAddr: 0x10001D538, symSize: 0x4 }
  - { offsetInCU: 0x1198E, offset: 0x6BD0F, size: 0x8, addend: 0x0, symName: __ZNSt3__118__unwrap_iter_implINS_16reverse_iteratorIPiEELb0EE8__unwrapB8ue170006ES3_, symObjAddr: 0x578C, symBinAddr: 0x10001D53C, symSize: 0x24 }
  - { offsetInCU: 0x119B7, offset: 0x6BD38, size: 0x8, addend: 0x0, symName: __ZNSt3__14pairINS_16reverse_iteratorIPiEES3_EC1B8ue170006IS3_S3_LPv0EEEOT_OT0_, symObjAddr: 0x57B0, symBinAddr: 0x10001D560, symSize: 0x3C }
  - { offsetInCU: 0x11A15, offset: 0x6BD96, size: 0x8, addend: 0x0, symName: __ZNSt3__14pairINS_16reverse_iteratorIPiEES3_EC2B8ue170006IS3_S3_LPv0EEEOT_OT0_, symObjAddr: 0x57EC, symBinAddr: 0x10001D59C, symSize: 0x34 }
  - { offsetInCU: 0x11A73, offset: 0x6BDF4, size: 0x8, addend: 0x0, symName: __ZNSt3__118__unwrap_iter_implINS_16reverse_iteratorIPiEELb0EE8__rewrapB8ue170006ES3_S3_, symObjAddr: 0x5820, symBinAddr: 0x10001D5D0, symSize: 0x2C }
  - { offsetInCU: 0x11AA1, offset: 0x6BE22, size: 0x8, addend: 0x0, symName: __ZNSt3__116reverse_iteratorIPiEC2B8ue170006ES1_, symObjAddr: 0x584C, symBinAddr: 0x10001D5FC, symSize: 0x28 }
  - { offsetInCU: 0x11AD9, offset: 0x6BE5A, size: 0x8, addend: 0x0, symName: __ZNSt3__114__split_bufferIiRNS_9allocatorIiEEED2Ev, symObjAddr: 0x5874, symBinAddr: 0x10001D624, symSize: 0x8C }
  - { offsetInCU: 0x11B05, offset: 0x6BE86, size: 0x8, addend: 0x0, symName: __ZNSt3__114__split_bufferIiRNS_9allocatorIiEEE5clearB8ue170006Ev, symObjAddr: 0x5900, symBinAddr: 0x10001D6B0, symSize: 0x28 }
  - { offsetInCU: 0x11B2B, offset: 0x6BEAC, size: 0x8, addend: 0x0, symName: __ZNSt3__116allocator_traitsINS_9allocatorIiEEE10deallocateB8ue170006ERS2_Pim, symObjAddr: 0x5928, symBinAddr: 0x10001D6D8, symSize: 0x34 }
  - { offsetInCU: 0x11B6D, offset: 0x6BEEE, size: 0x8, addend: 0x0, symName: __ZNKSt3__114__split_bufferIiRNS_9allocatorIiEEE8capacityB8ue170006Ev, symObjAddr: 0x595C, symBinAddr: 0x10001D70C, symSize: 0x40 }
  - { offsetInCU: 0x11B93, offset: 0x6BF14, size: 0x8, addend: 0x0, symName: __ZNSt3__114__split_bufferIiRNS_9allocatorIiEEE17__destruct_at_endB8ue170006EPi, symObjAddr: 0x599C, symBinAddr: 0x10001D74C, symSize: 0x2C }
  - { offsetInCU: 0x11BC7, offset: 0x6BF48, size: 0x8, addend: 0x0, symName: __ZNSt3__114__split_bufferIiRNS_9allocatorIiEEE17__destruct_at_endB8ue170006EPiNS_17integral_constantIbLb0EEE, symObjAddr: 0x59C8, symBinAddr: 0x10001D778, symSize: 0x80 }
  - { offsetInCU: 0x11C08, offset: 0x6BF89, size: 0x8, addend: 0x0, symName: __ZNSt3__116allocator_traitsINS_9allocatorIiEEE7destroyB8ue170006IivEEvRS2_PT_, symObjAddr: 0x5A48, symBinAddr: 0x10001D7F8, symSize: 0x2C }
  - { offsetInCU: 0x11C46, offset: 0x6BFC7, size: 0x8, addend: 0x0, symName: __ZNSt3__19allocatorIiE7destroyB8ue170006EPi, symObjAddr: 0x5A74, symBinAddr: 0x10001D824, symSize: 0x14 }
  - { offsetInCU: 0x11C7A, offset: 0x6BFFB, size: 0x8, addend: 0x0, symName: __ZNSt3__19allocatorIiE10deallocateB8ue170006EPim, symObjAddr: 0x5A88, symBinAddr: 0x10001D838, symSize: 0x40 }
  - { offsetInCU: 0x11CBC, offset: 0x6C03D, size: 0x8, addend: 0x0, symName: __ZNKSt3__114__split_bufferIiRNS_9allocatorIiEEE9__end_capB8ue170006Ev, symObjAddr: 0x5BD0, symBinAddr: 0x10001D878, symSize: 0x28 }
  - { offsetInCU: 0x11CE2, offset: 0x6C063, size: 0x8, addend: 0x0, symName: __ZNKSt3__117__compressed_pairIPiRNS_9allocatorIiEEE5firstB8ue170006Ev, symObjAddr: 0x5BF8, symBinAddr: 0x10001D8A0, symSize: 0x24 }
  - { offsetInCU: 0x13AE, offset: 0x6D4FE, size: 0x8, addend: 0x0, symName: __ZNSt3__14__fs10filesystem12current_pathB8ue170006Ev, symObjAddr: 0x704, symBinAddr: 0x10001DEA4, symSize: 0x28 }
  - { offsetInCU: 0x13CC, offset: 0x6D51C, size: 0x8, addend: 0x0, symName: __ZNSt3__14__fs10filesystemdvB8ue170006ERKNS1_4pathES4_, symObjAddr: 0x20F8, symBinAddr: 0x10001F6CC, symSize: 0xA8 }
  - { offsetInCU: 0x141B, offset: 0x6D56B, size: 0x8, addend: 0x0, symName: __ZNSt3__14__fs10filesystem16create_directoryB8ue170006ERKNS1_4pathE, symObjAddr: 0x21A0, symBinAddr: 0x10001F774, symSize: 0x2C }
  - { offsetInCU: 0x1447, offset: 0x6D597, size: 0x8, addend: 0x0, symName: __ZNSt3__14__fs10filesystemlsB8ue170006IcNS_11char_traitsIcEEEENS_9enable_ifIXaasr7is_sameIT_cEE5valuesr7is_sameIT0_S4_EE5valueERNS_13basic_ostreamIS6_S7_EEE4typeESA_RKNS1_4pathE, symObjAddr: 0x221C, symBinAddr: 0x10001F7A0, symSize: 0x54 }
  - { offsetInCU: 0x1497, offset: 0x6D5E7, size: 0x8, addend: 0x0, symName: __ZNSt3__14__fs10filesystem18create_directoriesB8ue170006ERKNS1_4pathE, symObjAddr: 0x22B8, symBinAddr: 0x10001F83C, symSize: 0x2C }
  - { offsetInCU: 0x14C3, offset: 0x6D613, size: 0x8, addend: 0x0, symName: __ZNSt3__14__fs10filesystem9copy_fileB8ue170006ERKNS1_4pathES4_NS1_12copy_optionsE, symObjAddr: 0x2560, symBinAddr: 0x10001FAE4, symSize: 0x3C }
  - { offsetInCU: 0x150B, offset: 0x6D65B, size: 0x8, addend: 0x0, symName: __ZNSt3__14__fs10filesystem5beginB8ue170006ENS1_28recursive_directory_iteratorE, symObjAddr: 0x2B3C, symBinAddr: 0x100020008, symSize: 0x38 }
  - { offsetInCU: 0x1538, offset: 0x6D688, size: 0x8, addend: 0x0, symName: __ZNSt3__14__fs10filesystem3endB8ue170006ENS1_28recursive_directory_iteratorE, symObjAddr: 0x2BD4, symBinAddr: 0x1000200A0, symSize: 0x34 }
  - { offsetInCU: 0x1562, offset: 0x6D6B2, size: 0x8, addend: 0x0, symName: __ZNSt3__14__fs10filesystemneB8ue170006ERKNS1_28recursive_directory_iteratorES4_, symObjAddr: 0x2C08, symBinAddr: 0x1000200D4, symSize: 0x34 }
  - { offsetInCU: 0x159C, offset: 0x6D6EC, size: 0x8, addend: 0x0, symName: __ZNSt3__14__fs10filesystem6removeB8ue170006ERKNS1_4pathE, symObjAddr: 0x2C98, symBinAddr: 0x100020164, symSize: 0x2C }
  - { offsetInCU: 0x15C8, offset: 0x6D718, size: 0x8, addend: 0x0, symName: __ZNSt3__14__fs10filesystem10remove_allB8ue170006ERKNS1_4pathE, symObjAddr: 0x2D00, symBinAddr: 0x1000201CC, symSize: 0x28 }
  - { offsetInCU: 0x15F4, offset: 0x6D744, size: 0x8, addend: 0x0, symName: __ZNSt3__14__fs10filesystem6renameB8ue170006ERKNS1_4pathES4_, symObjAddr: 0x2F90, symBinAddr: 0x10002045C, symSize: 0x30 }
  - { offsetInCU: 0x162B, offset: 0x6D77B, size: 0x8, addend: 0x0, symName: __ZNSt3__14__fs10filesystemeqB8ue170006ERKNS1_28recursive_directory_iteratorES4_, symObjAddr: 0x44A0, symBinAddr: 0x1000213AC, symSize: 0x30 }
  - { offsetInCU: 0xA0C0, offset: 0x76210, size: 0x8, addend: 0x0, symName: __ZNSt3__1plB8ue170006IcNS_11char_traitsIcEENS_9allocatorIcEEEENS_12basic_stringIT_T0_T1_EEOS9_PKS6_, symObjAddr: 0x1480, symBinAddr: 0x10001EA90, symSize: 0x40 }
  - { offsetInCU: 0xA119, offset: 0x76269, size: 0x8, addend: 0x0, symName: __ZNSt3__1plB8ue170006IcNS_11char_traitsIcEENS_9allocatorIcEEEENS_12basic_stringIT_T0_T1_EERKS9_SB_, symObjAddr: 0x14C0, symBinAddr: 0x10001EAD0, symSize: 0x134 }
  - { offsetInCU: 0xA1BF, offset: 0x7630F, size: 0x8, addend: 0x0, symName: __ZNSt3__134__libcpp_atomic_refcount_incrementB8ue170006IlEET_RS1_, symObjAddr: 0x4238, symBinAddr: 0x100021144, symSize: 0x30 }
  - { offsetInCU: 0xA1F4, offset: 0x76344, size: 0x8, addend: 0x0, symName: __ZNSt3__134__libcpp_atomic_refcount_decrementB8ue170006IlEET_RS1_, symObjAddr: 0x43CC, symBinAddr: 0x1000212D8, symSize: 0x30 }
  - { offsetInCU: 0xA229, offset: 0x76379, size: 0x8, addend: 0x0, symName: __ZNSt3__1eqB8ue170006INS_4__fs10filesystem28recursive_directory_iterator12__shared_impES4_EEbRKNS_10shared_ptrIT_EERKNS5_IT0_EE, symObjAddr: 0x44D0, symBinAddr: 0x1000213DC, symSize: 0x48 }
  - { offsetInCU: 0xA279, offset: 0x763C9, size: 0x8, addend: 0x0, symName: __ZNSt3__115make_error_codeB8ue170006ENS_4errcE, symObjAddr: 0x4724, symBinAddr: 0x100021630, symSize: 0x40 }
  - { offsetInCU: 0xA2A5, offset: 0x763F5, size: 0x8, addend: 0x0, symName: __ZNSt3__120__libcpp_unreachableB8ue170006Ev, symObjAddr: 0x4798, symBinAddr: 0x1000216A4, symSize: 0x4 }
  - { offsetInCU: 0xA2BF, offset: 0x7640F, size: 0x8, addend: 0x0, symName: __ZNSt3__123__str_find_first_not_ofB8ue170006IcmNS_11char_traitsIcEELm18446744073709551615EEET0_PKT_S3_S6_S3_S3_, symObjAddr: 0x5950, symBinAddr: 0x10002173C, symSize: 0xDC }
  - { offsetInCU: 0xA396, offset: 0x764E6, size: 0x8, addend: 0x0, symName: __ZNSt3__1lsB8ue170006INS_11char_traitsIcEELPv0EEERNS_13basic_ostreamIcT_EES7_RKNS_21__quoted_output_proxyIcS2_EE, symObjAddr: 0x722C, symBinAddr: 0x100021818, symSize: 0x48 }
  - { offsetInCU: 0xA3E3, offset: 0x76533, size: 0x8, addend: 0x0, symName: __ZNSt3__18__quotedB8ue170006IcNS_11char_traitsIcEENS_9allocatorIcEEEENS_21__quoted_output_proxyIT_T0_EERKNS_12basic_stringIS6_S7_T1_EES6_S6_, symObjAddr: 0x7274, symBinAddr: 0x100021860, symSize: 0x68 }
  - { offsetInCU: 0xA44B, offset: 0x7659B, size: 0x8, addend: 0x0, symName: __ZNSt3__115__quoted_outputB8ue170006IcNS_11char_traitsIcEEEERNS_13basic_ostreamIT_T0_EES7_PKS4_S9_S4_S4_, symObjAddr: 0x72DC, symBinAddr: 0x1000218C8, symSize: 0x148 }
  - { offsetInCU: 0xD18A, offset: 0x792DA, size: 0x8, addend: 0x0, symName: __ZN9UpdateAppC2ENSt3__112basic_stringIcNS0_11char_traitsIcEENS0_9allocatorIcEEEES6_S6_S6_S6_S6_S6_, symObjAddr: 0x0, symBinAddr: 0x10001D8C4, symSize: 0x2B8 }
  - { offsetInCU: 0xD221, offset: 0x79371, size: 0x8, addend: 0x0, symName: __ZN9UpdateAppC1ENSt3__112basic_stringIcNS0_11char_traitsIcEENS0_9allocatorIcEEEES6_S6_S6_S6_S6_S6_, symObjAddr: 0x3DC, symBinAddr: 0x10001DB7C, symSize: 0x64 }
  - { offsetInCU: 0xD2B6, offset: 0x79406, size: 0x8, addend: 0x0, symName: __ZN9UpdateAppD2Ev, symObjAddr: 0x440, symBinAddr: 0x10001DBE0, symSize: 0xBC }
  - { offsetInCU: 0xD2E2, offset: 0x79432, size: 0x8, addend: 0x0, symName: __ZN9UpdateAppD1Ev, symObjAddr: 0x4FC, symBinAddr: 0x10001DC9C, symSize: 0x2C }
  - { offsetInCU: 0xD30E, offset: 0x7945E, size: 0x8, addend: 0x0, symName: __ZN9UpdateApp32get_current_and_parent_directoryEv, symObjAddr: 0x528, symBinAddr: 0x10001DCC8, symSize: 0x1DC }
  - { offsetInCU: 0xD352, offset: 0x794A2, size: 0x8, addend: 0x0, symName: __ZNKSt3__14__fs10filesystem4path11parent_pathB8ue170006Ev, symObjAddr: 0x72C, symBinAddr: 0x10001DECC, symSize: 0x60 }
  - { offsetInCU: 0xD378, offset: 0x794C8, size: 0x8, addend: 0x0, symName: __ZNKSt3__14__fs10filesystem4path6stringB8ue170006Ev, symObjAddr: 0x78C, symBinAddr: 0x10001DF2C, symSize: 0x38 }
  - { offsetInCU: 0xD39E, offset: 0x794EE, size: 0x8, addend: 0x0, symName: __ZNKSt3__112basic_stringIcNS_11char_traitsIcEENS_9allocatorIcEEE5emptyB8ue170006Ev, symObjAddr: 0x844, symBinAddr: 0x10001DF64, symSize: 0x30 }
  - { offsetInCU: 0xD3C4, offset: 0x79514, size: 0x8, addend: 0x0, symName: __ZN9UpdateApp19curl_write_callbackEPvmmPNSt3__112basic_stringIcNS1_11char_traitsIcEENS1_9allocatorIcEEEE, symObjAddr: 0x8A0, symBinAddr: 0x10001DF94, symSize: 0x4C }
  - { offsetInCU: 0xD421, offset: 0x79571, size: 0x8, addend: 0x0, symName: __ZN9UpdateApp27curl_website_to_find_stringEv, symObjAddr: 0x8EC, symBinAddr: 0x10001DFE0, symSize: 0x4EC }
  - { offsetInCU: 0xD4BB, offset: 0x7960B, size: 0x8, addend: 0x0, symName: __ZNKSt3__112basic_stringIcNS_11char_traitsIcEENS_9allocatorIcEEE4findB8ue170006ERKS5_m, symObjAddr: 0xE30, symBinAddr: 0x10001E4CC, symSize: 0x78 }
  - { offsetInCU: 0xD501, offset: 0x79651, size: 0x8, addend: 0x0, symName: __ZNKSt3__112basic_stringIcNS_11char_traitsIcEENS_9allocatorIcEEE17find_first_not_ofB8ue170006EPKcm, symObjAddr: 0xECC, symBinAddr: 0x10001E544, symSize: 0x74 }
  - { offsetInCU: 0xD547, offset: 0x79697, size: 0x8, addend: 0x0, symName: __ZN9UpdateApp29compare_curl_response_stringsENSt3__112basic_stringIcNS0_11char_traitsIcEENS0_9allocatorIcEEEE, symObjAddr: 0xFA8, symBinAddr: 0x10001E5B8, symSize: 0xF0 }
  - { offsetInCU: 0xD59A, offset: 0x796EA, size: 0x8, addend: 0x0, symName: __ZN9UpdateApp23download_write_callbackEPvmmP7__sFILE, symObjAddr: 0x1098, symBinAddr: 0x10001E6A8, symSize: 0x3C }
  - { offsetInCU: 0xD5E9, offset: 0x79739, size: 0x8, addend: 0x0, symName: __ZN9UpdateApp12download_zipENSt3__112basic_stringIcNS0_11char_traitsIcEENS0_9allocatorIcEEEES6_S6_, symObjAddr: 0x10D4, symBinAddr: 0x10001E6E4, symSize: 0x3AC }
  - { offsetInCU: 0xD668, offset: 0x797B8, size: 0x8, addend: 0x0, symName: __ZN9UpdateApp16XferInfoCallbackEPvllll, symObjAddr: 0x15F4, symBinAddr: 0x10001EC04, symSize: 0x128 }
  - { offsetInCU: 0xD6FA, offset: 0x7984A, size: 0x8, addend: 0x0, symName: __ZN9UpdateApp11extract_zipENSt3__112basic_stringIcNS0_11char_traitsIcEENS0_9allocatorIcEEEES6_, symObjAddr: 0x171C, symBinAddr: 0x10001ED2C, symSize: 0x914 }
  - { offsetInCU: 0xD84A, offset: 0x7999A, size: 0x8, addend: 0x0, symName: __ZNKSt3__14__fs10filesystem4path4stemB8ue170006Ev, symObjAddr: 0x206C, symBinAddr: 0x10001F640, symSize: 0x60 }
  - { offsetInCU: 0xD870, offset: 0x799C0, size: 0x8, addend: 0x0, symName: __ZNSt3__112basic_stringIcNS_11char_traitsIcEENS_9allocatorIcEEEpLB8ue170006EPKc, symObjAddr: 0x20CC, symBinAddr: 0x10001F6A0, symSize: 0x2C }
  - { offsetInCU: 0xD8A5, offset: 0x799F5, size: 0x8, addend: 0x0, symName: __ZNSt3__112basic_stringIcNS_11char_traitsIcEENS_9allocatorIcEEE4backB8ue170006Ev, symObjAddr: 0x2270, symBinAddr: 0x10001F7F4, symSize: 0x48 }
  - { offsetInCU: 0xD8CB, offset: 0x79A1B, size: 0x8, addend: 0x0, symName: __ZN9UpdateApp36copy_data_from_source_to_destinationENSt3__112basic_stringIcNS0_11char_traitsIcEENS0_9allocatorIcEEEES6_S6_, symObjAddr: 0x22E4, symBinAddr: 0x10001F868, symSize: 0x27C }
  - { offsetInCU: 0xD946, offset: 0x79A96, size: 0x8, addend: 0x0, symName: __ZNK9UpdateApp16exit_applicationEv, symObjAddr: 0x259C, symBinAddr: 0x10001FB20, symSize: 0x1CC }
  - { offsetInCU: 0xD9AD, offset: 0x79AFD, size: 0x8, addend: 0x0, symName: __ZN9UpdateApp16delete_directoryERKNSt3__112basic_stringIcNS0_11char_traitsIcEENS0_9allocatorIcEEEE, symObjAddr: 0x2820, symBinAddr: 0x10001FCEC, symSize: 0x2DC }
  - { offsetInCU: 0xDA46, offset: 0x79B96, size: 0x8, addend: 0x0, symName: __ZNSt3__14__fs10filesystem28recursive_directory_iteratorC1B8ue170006ERKNS1_4pathENS1_17directory_optionsE, symObjAddr: 0x2AFC, symBinAddr: 0x10001FFC8, symSize: 0x40 }
  - { offsetInCU: 0xDA8C, offset: 0x79BDC, size: 0x8, addend: 0x0, symName: __ZNSt3__14__fs10filesystem28recursive_directory_iteratorC1B8ue170006ERKS2_, symObjAddr: 0x2B74, symBinAddr: 0x100020040, symSize: 0x34 }
  - { offsetInCU: 0xDAC1, offset: 0x79C11, size: 0x8, addend: 0x0, symName: __ZNSt3__14__fs10filesystem28recursive_directory_iteratorD1B8ue170006Ev, symObjAddr: 0x2BA8, symBinAddr: 0x100020074, symSize: 0x2C }
  - { offsetInCU: 0xDAEB, offset: 0x79C3B, size: 0x8, addend: 0x0, symName: __ZNKSt3__14__fs10filesystem28recursive_directory_iteratordeB8ue170006Ev, symObjAddr: 0x2C3C, symBinAddr: 0x100020108, symSize: 0x24 }
  - { offsetInCU: 0xDB11, offset: 0x79C61, size: 0x8, addend: 0x0, symName: __ZNKSt3__14__fs10filesystem15directory_entry15is_regular_fileB8ue170006Ev, symObjAddr: 0x2C60, symBinAddr: 0x10002012C, symSize: 0x38 }
  - { offsetInCU: 0xDB37, offset: 0x79C87, size: 0x8, addend: 0x0, symName: __ZNKSt3__14__fs10filesystem15directory_entry4pathB8ue170006Ev, symObjAddr: 0x2CC4, symBinAddr: 0x100020190, symSize: 0x14 }
  - { offsetInCU: 0xDB5D, offset: 0x79CAD, size: 0x8, addend: 0x0, symName: __ZNSt3__14__fs10filesystem28recursive_directory_iteratorppB8ue170006Ev, symObjAddr: 0x2CD8, symBinAddr: 0x1000201A4, symSize: 0x28 }
  - { offsetInCU: 0xDB83, offset: 0x79CD3, size: 0x8, addend: 0x0, symName: __ZN9UpdateApp23rename_extracted_folderENSt3__112basic_stringIcNS0_11char_traitsIcEENS0_9allocatorIcEEEES6_, symObjAddr: 0x2D28, symBinAddr: 0x1000201F4, symSize: 0x268 }
  - { offsetInCU: 0xDBDD, offset: 0x79D2D, size: 0x8, addend: 0x0, symName: __ZNK9UpdateApp17application_startENSt3__112basic_stringIcNS0_11char_traitsIcEENS0_9allocatorIcEEEES6_, symObjAddr: 0x2FC0, symBinAddr: 0x10002048C, symSize: 0x2A0 }
  - { offsetInCU: 0xDC87, offset: 0x79DD7, size: 0x8, addend: 0x0, symName: __ZNKSt3__112basic_stringIcNS_11char_traitsIcEENS_9allocatorIcEEE12find_last_ofB8ue170006Ecm, symObjAddr: 0x32A0, symBinAddr: 0x10002072C, symSize: 0x34 }
  - { offsetInCU: 0xDCCD, offset: 0x79E1D, size: 0x8, addend: 0x0, symName: __ZN9UpdateApp12start_updateEv, symObjAddr: 0x32D4, symBinAddr: 0x100020760, symSize: 0x440 }
  - { offsetInCU: 0xDD6C, offset: 0x79EBC, size: 0x8, addend: 0x0, symName: __ZNSt3__112basic_stringIcNS_11char_traitsIcEENS_9allocatorIcEEEC1INS_17basic_string_viewIcS2_EELi0EEERKT_, symObjAddr: 0x3714, symBinAddr: 0x100020BA0, symSize: 0x34 }
  - { offsetInCU: 0xDDB4, offset: 0x79F04, size: 0x8, addend: 0x0, symName: __ZNSt3__14__fs10filesystem4pathC1B8ue170006EONS_12basic_stringIcNS_11char_traitsIcEENS_9allocatorIcEEEENS2_6formatE, symObjAddr: 0x3748, symBinAddr: 0x100020BD4, symSize: 0x3C }
  - { offsetInCU: 0xDDF9, offset: 0x79F49, size: 0x8, addend: 0x0, symName: __ZNSt3__112basic_stringIcNS_11char_traitsIcEENS_9allocatorIcEEEC2INS_17basic_string_viewIcS2_EELi0EEERKT_, symObjAddr: 0x3784, symBinAddr: 0x100020C10, symSize: 0x70 }
  - { offsetInCU: 0xDE60, offset: 0x79FB0, size: 0x8, addend: 0x0, symName: __ZNKSt3__117basic_string_viewIcNS_11char_traitsIcEEE4dataB8ue170006Ev, symObjAddr: 0x3830, symBinAddr: 0x100020C80, symSize: 0x18 }
  - { offsetInCU: 0xDE86, offset: 0x79FD6, size: 0x8, addend: 0x0, symName: __ZNKSt3__117basic_string_viewIcNS_11char_traitsIcEEE4sizeB8ue170006Ev, symObjAddr: 0x3848, symBinAddr: 0x100020C98, symSize: 0x18 }
  - { offsetInCU: 0xDEAC, offset: 0x79FFC, size: 0x8, addend: 0x0, symName: __ZNSt3__14__fs10filesystem4pathC2B8ue170006EONS_12basic_stringIcNS_11char_traitsIcEENS_9allocatorIcEEEENS2_6formatE, symObjAddr: 0x391C, symBinAddr: 0x100020CB0, symSize: 0x38 }
  - { offsetInCU: 0xDEF1, offset: 0x7A041, size: 0x8, addend: 0x0, symName: __ZNSt3__14__fs10filesystem4pathC1B8ue170006ERKS2_, symObjAddr: 0x3A7C, symBinAddr: 0x100020CE8, symSize: 0x34 }
  - { offsetInCU: 0xDF2A, offset: 0x7A07A, size: 0x8, addend: 0x0, symName: __ZNSt3__14__fs10filesystem4pathdVB8ue170006ERKS2_, symObjAddr: 0x3AB0, symBinAddr: 0x100020D1C, symSize: 0x94 }
  - { offsetInCU: 0xDF5F, offset: 0x7A0AF, size: 0x8, addend: 0x0, symName: __ZNSt3__14__fs10filesystem4pathC2B8ue170006ERKS2_, symObjAddr: 0x3B44, symBinAddr: 0x100020DB0, symSize: 0x34 }
  - { offsetInCU: 0xDF98, offset: 0x7A0E8, size: 0x8, addend: 0x0, symName: __ZNKSt3__14__fs10filesystem4path11is_absoluteB8ue170006Ev, symObjAddr: 0x3B78, symBinAddr: 0x100020DE4, symSize: 0x28 }
  - { offsetInCU: 0xDFBE, offset: 0x7A10E, size: 0x8, addend: 0x0, symName: __ZNKSt3__14__fs10filesystem4path12has_filenameB8ue170006Ev, symObjAddr: 0x3BA0, symBinAddr: 0x100020E0C, symSize: 0x40 }
  - { offsetInCU: 0xDFE4, offset: 0x7A134, size: 0x8, addend: 0x0, symName: __ZNSt3__112basic_stringIcNS_11char_traitsIcEENS_9allocatorIcEEEpLB8ue170006Ec, symObjAddr: 0x3BE0, symBinAddr: 0x100020E4C, symSize: 0x34 }
  - { offsetInCU: 0xE019, offset: 0x7A169, size: 0x8, addend: 0x0, symName: __ZNKSt3__14__fs10filesystem4path6nativeB8ue170006Ev, symObjAddr: 0x3C14, symBinAddr: 0x100020E80, symSize: 0x14 }
  - { offsetInCU: 0xE03F, offset: 0x7A18F, size: 0x8, addend: 0x0, symName: __ZNSt3__112basic_stringIcNS_11char_traitsIcEENS_9allocatorIcEEEpLB8ue170006ERKS5_, symObjAddr: 0x3C28, symBinAddr: 0x100020E94, symSize: 0x2C }
  - { offsetInCU: 0xE074, offset: 0x7A1C4, size: 0x8, addend: 0x0, symName: __ZNKSt3__14__fs10filesystem4path18has_root_directoryB8ue170006Ev, symObjAddr: 0x3C54, symBinAddr: 0x100020EC0, symSize: 0x40 }
  - { offsetInCU: 0xE09A, offset: 0x7A1EA, size: 0x8, addend: 0x0, symName: __ZNKSt3__117basic_string_viewIcNS_11char_traitsIcEEE5emptyB8ue170006Ev, symObjAddr: 0x3C94, symBinAddr: 0x100020F00, symSize: 0x24 }
  - { offsetInCU: 0xE0C0, offset: 0x7A210, size: 0x8, addend: 0x0, symName: __ZNSt3__14__fs10filesystem28recursive_directory_iteratorC1B8ue170006EOS2_, symObjAddr: 0x4018, symBinAddr: 0x100020F24, symSize: 0x34 }
  - { offsetInCU: 0xE0F5, offset: 0x7A245, size: 0x8, addend: 0x0, symName: __ZNSt3__14__fs10filesystem28recursive_directory_iteratorC2B8ue170006EOS2_, symObjAddr: 0x404C, symBinAddr: 0x100020F58, symSize: 0x44 }
  - { offsetInCU: 0xE12A, offset: 0x7A27A, size: 0x8, addend: 0x0, symName: __ZNSt3__110shared_ptrINS_4__fs10filesystem28recursive_directory_iterator12__shared_impEEC1B8ue170006EOS5_, symObjAddr: 0x4090, symBinAddr: 0x100020F9C, symSize: 0x34 }
  - { offsetInCU: 0xE163, offset: 0x7A2B3, size: 0x8, addend: 0x0, symName: __ZNSt3__110shared_ptrINS_4__fs10filesystem28recursive_directory_iterator12__shared_impEEC2B8ue170006EOS5_, symObjAddr: 0x40C4, symBinAddr: 0x100020FD0, symSize: 0x40 }
  - { offsetInCU: 0xE19C, offset: 0x7A2EC, size: 0x8, addend: 0x0, symName: __ZNSt3__14__fs10filesystem28recursive_directory_iteratorC2B8ue170006ERKS2_, symObjAddr: 0x4104, symBinAddr: 0x100021010, symSize: 0x44 }
  - { offsetInCU: 0xE1D1, offset: 0x7A321, size: 0x8, addend: 0x0, symName: __ZNSt3__110shared_ptrINS_4__fs10filesystem28recursive_directory_iterator12__shared_impEEC1B8ue170006ERKS5_, symObjAddr: 0x4148, symBinAddr: 0x100021054, symSize: 0x34 }
  - { offsetInCU: 0xE20A, offset: 0x7A35A, size: 0x8, addend: 0x0, symName: __ZNSt3__110shared_ptrINS_4__fs10filesystem28recursive_directory_iterator12__shared_impEEC2B8ue170006ERKS5_, symObjAddr: 0x417C, symBinAddr: 0x100021088, symSize: 0x70 }
  - { offsetInCU: 0xE243, offset: 0x7A393, size: 0x8, addend: 0x0, symName: __ZNSt3__119__shared_weak_count12__add_sharedB8ue170006Ev, symObjAddr: 0x41EC, symBinAddr: 0x1000210F8, symSize: 0x24 }
  - { offsetInCU: 0xE269, offset: 0x7A3B9, size: 0x8, addend: 0x0, symName: __ZNSt3__114__shared_count12__add_sharedB8ue170006Ev, symObjAddr: 0x4210, symBinAddr: 0x10002111C, symSize: 0x28 }
  - { offsetInCU: 0xE28F, offset: 0x7A3DF, size: 0x8, addend: 0x0, symName: __ZNSt3__14__fs10filesystem28recursive_directory_iteratorD2B8ue170006Ev, symObjAddr: 0x4268, symBinAddr: 0x100021174, symSize: 0x2C }
  - { offsetInCU: 0xE2B9, offset: 0x7A409, size: 0x8, addend: 0x0, symName: __ZNSt3__110shared_ptrINS_4__fs10filesystem28recursive_directory_iterator12__shared_impEED1B8ue170006Ev, symObjAddr: 0x4294, symBinAddr: 0x1000211A0, symSize: 0x2C }
  - { offsetInCU: 0xE2E3, offset: 0x7A433, size: 0x8, addend: 0x0, symName: __ZNSt3__110shared_ptrINS_4__fs10filesystem28recursive_directory_iterator12__shared_impEED2B8ue170006Ev, symObjAddr: 0x42C0, symBinAddr: 0x1000211CC, symSize: 0x54 }
  - { offsetInCU: 0xE30D, offset: 0x7A45D, size: 0x8, addend: 0x0, symName: __ZNSt3__119__shared_weak_count16__release_sharedB8ue170006Ev, symObjAddr: 0x4314, symBinAddr: 0x100021220, symSize: 0x3C }
  - { offsetInCU: 0xE333, offset: 0x7A483, size: 0x8, addend: 0x0, symName: __ZNSt3__114__shared_count16__release_sharedB8ue170006Ev, symObjAddr: 0x4350, symBinAddr: 0x10002125C, symSize: 0x7C }
  - { offsetInCU: 0xE359, offset: 0x7A4A9, size: 0x8, addend: 0x0, symName: __ZNSt3__14__fs10filesystem28recursive_directory_iteratorC1B8ue170006Ev, symObjAddr: 0x43FC, symBinAddr: 0x100021308, symSize: 0x2C }
  - { offsetInCU: 0xE383, offset: 0x7A4D3, size: 0x8, addend: 0x0, symName: __ZNSt3__14__fs10filesystem28recursive_directory_iteratorC2B8ue170006Ev, symObjAddr: 0x4428, symBinAddr: 0x100021334, symSize: 0x30 }
  - { offsetInCU: 0xE3AD, offset: 0x7A4FD, size: 0x8, addend: 0x0, symName: __ZNSt3__110shared_ptrINS_4__fs10filesystem28recursive_directory_iterator12__shared_impEEC1B8ue170006Ev, symObjAddr: 0x4458, symBinAddr: 0x100021364, symSize: 0x2C }
  - { offsetInCU: 0xE3D7, offset: 0x7A527, size: 0x8, addend: 0x0, symName: __ZNSt3__110shared_ptrINS_4__fs10filesystem28recursive_directory_iterator12__shared_impEEC2B8ue170006Ev, symObjAddr: 0x4484, symBinAddr: 0x100021390, symSize: 0x1C }
  - { offsetInCU: 0xE401, offset: 0x7A551, size: 0x8, addend: 0x0, symName: __ZNKSt3__110shared_ptrINS_4__fs10filesystem28recursive_directory_iterator12__shared_impEE3getB8ue170006Ev, symObjAddr: 0x4518, symBinAddr: 0x100021424, symSize: 0x18 }
  - { offsetInCU: 0xE427, offset: 0x7A577, size: 0x8, addend: 0x0, symName: __ZNKSt3__14__fs10filesystem15directory_entry8__get_ftB8ue170006EPNS_10error_codeE, symObjAddr: 0x4530, symBinAddr: 0x10002143C, symSize: 0x1B8 }
  - { offsetInCU: 0xE47B, offset: 0x7A5CB, size: 0x8, addend: 0x0, symName: __ZNSt3__14__fs10filesystem11file_statusC1B8ue170006ENS1_9file_typeENS1_5permsE, symObjAddr: 0x46E8, symBinAddr: 0x1000215F4, symSize: 0x3C }
  - { offsetInCU: 0xE4C1, offset: 0x7A611, size: 0x8, addend: 0x0, symName: __ZNSt3__110error_code5clearB8ue170006Ev, symObjAddr: 0x4764, symBinAddr: 0x100021670, symSize: 0x34 }
  - { offsetInCU: 0xE4E7, offset: 0x7A637, size: 0x8, addend: 0x0, symName: __ZNSt3__14__fs10filesystem11file_statusC2B8ue170006ENS1_9file_typeENS1_5permsE, symObjAddr: 0x479C, symBinAddr: 0x1000216A8, symSize: 0x2C }
  - { offsetInCU: 0xE52D, offset: 0x7A67D, size: 0x8, addend: 0x0, symName: __ZNSt3__110error_codeC1B8ue170006EiRKNS_14error_categoryE, symObjAddr: 0x47C8, symBinAddr: 0x1000216D4, symSize: 0x3C }
  - { offsetInCU: 0xE573, offset: 0x7A6C3, size: 0x8, addend: 0x0, symName: __ZNSt3__110error_codeC2B8ue170006EiRKNS_14error_categoryE, symObjAddr: 0x4804, symBinAddr: 0x100021710, symSize: 0x2C }
  - { offsetInCU: 0xE5C3, offset: 0x7A713, size: 0x8, addend: 0x0, symName: __ZNSt3__121__quoted_output_proxyIcNS_11char_traitsIcEEEC1B8ue170006EPKcS5_cc, symObjAddr: 0x744C, symBinAddr: 0x100021A10, symSize: 0x4C }
  - { offsetInCU: 0xE629, offset: 0x7A779, size: 0x8, addend: 0x0, symName: __ZNSt3__121__quoted_output_proxyIcNS_11char_traitsIcEEEC2B8ue170006EPKcS5_cc, symObjAddr: 0x7498, symBinAddr: 0x100021A5C, symSize: 0x44 }
  - { offsetInCU: 0x48, offset: 0x7A9D7, size: 0x8, addend: 0x0, symName: __ZN5boost4asio5errorL15system_categoryE, symObjAddr: 0x41890, symBinAddr: 0x1000B0278, symSize: 0x0 }
  - { offsetInCU: 0x62, offset: 0x7A9F1, size: 0x8, addend: 0x0, symName: __ZN5boost4asio5errorL14netdb_categoryE, symObjAddr: 0x41898, symBinAddr: 0x1000B0280, symSize: 0x0 }
  - { offsetInCU: 0x7C, offset: 0x7AA0B, size: 0x8, addend: 0x0, symName: __ZN5boost4asio5errorL17addrinfo_categoryE, symObjAddr: 0x418A0, symBinAddr: 0x1000B0288, symSize: 0x0 }
  - { offsetInCU: 0x96, offset: 0x7AA25, size: 0x8, addend: 0x0, symName: __ZN5boost4asio5errorL13misc_categoryE, symObjAddr: 0x418A8, symBinAddr: 0x1000B0290, symSize: 0x0 }
  - { offsetInCU: 0x4F, offset: 0x7DF9B, size: 0x8, addend: 0x0, symName: __ZN5boost4asio5errorL15system_categoryE, symObjAddr: 0xAB9D8, symBinAddr: 0x1000B0298, symSize: 0x0 }
  - { offsetInCU: 0x69, offset: 0x7DFB5, size: 0x8, addend: 0x0, symName: __ZN5boost4asio5errorL14netdb_categoryE, symObjAddr: 0xAB9E0, symBinAddr: 0x1000B02A0, symSize: 0x0 }
  - { offsetInCU: 0x83, offset: 0x7DFCF, size: 0x8, addend: 0x0, symName: __ZN5boost4asio5errorL17addrinfo_categoryE, symObjAddr: 0xAB9E8, symBinAddr: 0x1000B02A8, symSize: 0x0 }
  - { offsetInCU: 0x9D, offset: 0x7DFE9, size: 0x8, addend: 0x0, symName: __ZN5boost4asio5errorL13misc_categoryE, symObjAddr: 0xAB9F0, symBinAddr: 0x1000B02B0, symSize: 0x0 }
  - { offsetInCU: 0x4F91, offset: 0x82EDD, size: 0x8, addend: 0x0, symName: __ZNSt3__16chronomiB8ue170006IxNS_5ratioILl1ELl1000000000EEExS3_EENS_11common_typeIJNS0_8durationIT_T0_EENS5_IT1_T2_EEEE4typeERKS8_RKSB_, symObjAddr: 0x6CF8, symBinAddr: 0x100027904, symSize: 0x70 }
  - { offsetInCU: 0x5006, offset: 0x82F52, size: 0x8, addend: 0x0, symName: __ZNSt3__16chrono13duration_castB8ue170006INS0_8durationIxNS_5ratioILl1ELl1000EEEEExNS3_ILl1ELl1000000000EEEEENS_9enable_ifIXsr13__is_durationIT_EE5valueES8_E4typeERKNS2_IT0_T1_EE, symObjAddr: 0x6B3C, symBinAddr: 0x100027770, symSize: 0x30 }
  - { offsetInCU: 0x504E, offset: 0x82F9A, size: 0x8, addend: 0x0, symName: __ZNSt3__16chronomiB8ue170006INS0_12steady_clockENS0_8durationIxNS_5ratioILl1ELl1000000000EEEEES6_EENS_11common_typeIJT0_T1_EE4typeERKNS0_10time_pointIT_S8_EERKNSC_ISD_S9_EE, symObjAddr: 0x6B6C, symBinAddr: 0x1000277A0, symSize: 0x58 }
  - { offsetInCU: 0xC2C3, offset: 0x8A20F, size: 0x8, addend: 0x0, symName: __ZNSt3__1plB8ue170006IcNS_11char_traitsIcEENS_9allocatorIcEEEENS_12basic_stringIT_T0_T1_EEOS9_SA_, symObjAddr: 0x2EC, symBinAddr: 0x1000221F8, symSize: 0x40 }
  - { offsetInCU: 0xC31C, offset: 0x8A268, size: 0x8, addend: 0x0, symName: __ZNSt3__1plB8ue170006IcNS_11char_traitsIcEENS_9allocatorIcEEEENS_12basic_stringIT_T0_T1_EEPKS6_OS9_, symObjAddr: 0x36C, symBinAddr: 0x100022238, symSize: 0x44 }
  - { offsetInCU: 0xC374, offset: 0x8A2C0, size: 0x8, addend: 0x0, symName: __ZNSt3__1neB8ue170006IPP10BaseButtonEEbRKNS_11__wrap_iterIT_EES8_, symObjAddr: 0x1694, symBinAddr: 0x100023460, symSize: 0x34 }
  - { offsetInCU: 0xC3B8, offset: 0x8A304, size: 0x8, addend: 0x0, symName: __ZNSt3__1neB8ue170006ERKNS_19__hash_map_iteratorINS_15__hash_iteratorIPNS_11__hash_nodeINS_17__hash_value_typeINS_12basic_stringIcNS_11char_traitsIcEENS_9allocatorIcEEEEP11SDL_TextureEEPvEEEEEESJ_, symObjAddr: 0x6E2C, symBinAddr: 0x1000279F8, symSize: 0x30 }
  - { offsetInCU: 0xC3F6, offset: 0x8A342, size: 0x8, addend: 0x0, symName: __ZNSt3__1neB8ue170006ERKNS_15__hash_iteratorIPNS_11__hash_nodeINS_17__hash_value_typeINS_12basic_stringIcNS_11char_traitsIcEENS_9allocatorIcEEEEP11SDL_TextureEEPvEEEESH_, symObjAddr: 0x8714, symBinAddr: 0x100027A54, symSize: 0x34 }
  - { offsetInCU: 0xC466, offset: 0x8A3B2, size: 0x8, addend: 0x0, symName: __ZNSt3__1eqB8ue170006IPP10BaseButtonEEbRKNS_11__wrap_iterIT_EES8_, symObjAddr: 0xAF30, symBinAddr: 0x100027A9C, symSize: 0x48 }
  - { offsetInCU: 0xDB68, offset: 0x8BAB4, size: 0x8, addend: 0x0, symName: __ZNKSt3__16chrono15__duration_castINS0_8durationIxNS_5ratioILl1ELl1000000000EEEEENS2_IxNS3_ILl1ELl1000EEEEENS3_ILl1ELl1000000EEELb1ELb0EEclB8ue170006ERKS5_, symObjAddr: 0x6C30, symBinAddr: 0x10002783C, symSize: 0x4C }
  - { offsetInCU: 0x10196, offset: 0x8E0E2, size: 0x8, addend: 0x0, symName: __Z10draw_timerv, symObjAddr: 0x38, symBinAddr: 0x100021F44, symSize: 0x2B4 }
  - { offsetInCU: 0x101E9, offset: 0x8E135, size: 0x8, addend: 0x0, symName: __Z11draw_scoresRKNSt3__16vectorI5ScoreNS_9allocatorIS1_EEEE, symObjAddr: 0x3B0, symBinAddr: 0x10002227C, symSize: 0x650 }
  - { offsetInCU: 0x1029E, offset: 0x8E1EA, size: 0x8, addend: 0x0, symName: __ZNKSt3__16vectorI5ScoreNS_9allocatorIS1_EEE4sizeB8ue170006Ev, symObjAddr: 0xA34, symBinAddr: 0x1000228CC, symSize: 0x28 }
  - { offsetInCU: 0x102C4, offset: 0x8E210, size: 0x8, addend: 0x0, symName: __ZNKSt3__16vectorI5ScoreNS_9allocatorIS1_EEEixB8ue170006Em, symObjAddr: 0xA5C, symBinAddr: 0x1000228F4, symSize: 0x24 }
  - { offsetInCU: 0x102FB, offset: 0x8E247, size: 0x8, addend: 0x0, symName: __Z8draw_HUDv, symObjAddr: 0xA80, symBinAddr: 0x100022918, symSize: 0x2E4 }
  - { offsetInCU: 0x1036E, offset: 0x8E2BA, size: 0x8, addend: 0x0, symName: __ZNK6Entity9get_scoreEv, symObjAddr: 0xE10, symBinAddr: 0x100022BFC, symSize: 0x18 }
  - { offsetInCU: 0x10394, offset: 0x8E2E0, size: 0x8, addend: 0x0, symName: __ZNK6Entity10get_healthEv, symObjAddr: 0xE28, symBinAddr: 0x100022C14, symSize: 0x18 }
  - { offsetInCU: 0x103BA, offset: 0x8E306, size: 0x8, addend: 0x0, symName: __Z13draw_entitiesv, symObjAddr: 0xE60, symBinAddr: 0x100022C2C, symSize: 0x238 }
  - { offsetInCU: 0x1045A, offset: 0x8E3A6, size: 0x8, addend: 0x0, symName: __ZNK6Entity8get_rectEv, symObjAddr: 0x1098, symBinAddr: 0x100022E64, symSize: 0x24 }
  - { offsetInCU: 0x10480, offset: 0x8E3CC, size: 0x8, addend: 0x0, symName: __ZN6Entity16update_animationEv, symObjAddr: 0x10BC, symBinAddr: 0x100022E88, symSize: 0xE0 }
  - { offsetInCU: 0x104C2, offset: 0x8E40E, size: 0x8, addend: 0x0, symName: __ZN6Entity21set_animation_textureEv, symObjAddr: 0x119C, symBinAddr: 0x100022F68, symSize: 0x168 }
  - { offsetInCU: 0x10505, offset: 0x8E451, size: 0x8, addend: 0x0, symName: __ZN6Entity14render_textureEii, symObjAddr: 0x1304, symBinAddr: 0x1000230D0, symSize: 0x8C }
  - { offsetInCU: 0x10555, offset: 0x8E4A1, size: 0x8, addend: 0x0, symName: __Z12draw_scene_1v, symObjAddr: 0x1390, symBinAddr: 0x10002315C, symSize: 0x2A4 }
  - { offsetInCU: 0x105C6, offset: 0x8E512, size: 0x8, addend: 0x0, symName: __ZNSt3__16vectorIP10BaseButtonNS_9allocatorIS2_EEE5beginB8ue170006Ev, symObjAddr: 0x1634, symBinAddr: 0x100023400, symSize: 0x30 }
  - { offsetInCU: 0x105EE, offset: 0x8E53A, size: 0x8, addend: 0x0, symName: __ZNSt3__16vectorIP10BaseButtonNS_9allocatorIS2_EEE3endB8ue170006Ev, symObjAddr: 0x1664, symBinAddr: 0x100023430, symSize: 0x30 }
  - { offsetInCU: 0x10616, offset: 0x8E562, size: 0x8, addend: 0x0, symName: __ZNKSt3__111__wrap_iterIPP10BaseButtonEdeB8ue170006Ev, symObjAddr: 0x16C8, symBinAddr: 0x100023494, symSize: 0x18 }
  - { offsetInCU: 0x1063C, offset: 0x8E588, size: 0x8, addend: 0x0, symName: __ZNSt3__111__wrap_iterIPP10BaseButtonEppB8ue170006Ev, symObjAddr: 0x16E0, symBinAddr: 0x1000234AC, symSize: 0x20 }
  - { offsetInCU: 0x10662, offset: 0x8E5AE, size: 0x8, addend: 0x0, symName: __Z12draw_scene_2v, symObjAddr: 0x1700, symBinAddr: 0x1000234CC, symSize: 0x424 }
  - { offsetInCU: 0x106D3, offset: 0x8E61F, size: 0x8, addend: 0x0, symName: __ZNK10BaseButton11get_clickedEv, symObjAddr: 0x1B24, symBinAddr: 0x1000238F0, symSize: 0x1C }
  - { offsetInCU: 0x107D3, offset: 0x8E71F, size: 0x8, addend: 0x0, symName: __ZN14DropdownButton33render_buttons_from_dropdown_listERP12SDL_Renderer, symObjAddr: 0x1B40, symBinAddr: 0x10002390C, symSize: 0x168 }
  - { offsetInCU: 0x1088C, offset: 0x8E7D8, size: 0x8, addend: 0x0, symName: __Z12draw_scene_3v, symObjAddr: 0x1CA8, symBinAddr: 0x100023A74, symSize: 0x144 }
  - { offsetInCU: 0x108FA, offset: 0x8E846, size: 0x8, addend: 0x0, symName: __Z12draw_scene_4v, symObjAddr: 0x1DEC, symBinAddr: 0x100023BB8, symSize: 0x1C0 }
  - { offsetInCU: 0x10914, offset: 0x8E860, size: 0x8, addend: 0x0, symName: __ZN10BaseButton18render_button_rectEv, symObjAddr: 0x1FAC, symBinAddr: 0x100023D78, symSize: 0x1F0 }
  - { offsetInCU: 0x11C6B, offset: 0x8FBB7, size: 0x8, addend: 0x0, symName: __ZN11InputButton18render_button_rectEv, symObjAddr: 0x219C, symBinAddr: 0x100023F68, symSize: 0xE0 }
  - { offsetInCU: 0x11CB0, offset: 0x8FBFC, size: 0x8, addend: 0x0, symName: __Z12draw_scene_5v, symObjAddr: 0x227C, symBinAddr: 0x100024048, symSize: 0x210 }
  - { offsetInCU: 0x11D2D, offset: 0x8FC79, size: 0x8, addend: 0x0, symName: __Z12draw_scene_6v, symObjAddr: 0x248C, symBinAddr: 0x100024258, symSize: 0x79C }
  - { offsetInCU: 0x11D9F, offset: 0x8FCEB, size: 0x8, addend: 0x0, symName: __Z12draw_scene_7v, symObjAddr: 0x2C28, symBinAddr: 0x1000249F4, symSize: 0x5A4 }
  - { offsetInCU: 0x11DB9, offset: 0x8FD05, size: 0x8, addend: 0x0, symName: __Z12draw_scene_8v, symObjAddr: 0x31CC, symBinAddr: 0x100024F98, symSize: 0x29C }
  - { offsetInCU: 0x11E2D, offset: 0x8FD79, size: 0x8, addend: 0x0, symName: __Z12draw_scene_9v, symObjAddr: 0x3468, symBinAddr: 0x100025234, symSize: 0x6AC }
  - { offsetInCU: 0x11EA2, offset: 0x8FDEE, size: 0x8, addend: 0x0, symName: __ZNK11InputButton8get_textEv, symObjAddr: 0x3B14, symBinAddr: 0x1000258E0, symSize: 0x3C }
  - { offsetInCU: 0x1221B, offset: 0x90167, size: 0x8, addend: 0x0, symName: __ZNK15WebserverClient16response_successEv, symObjAddr: 0x3B80, symBinAddr: 0x10002591C, symSize: 0x1C }
  - { offsetInCU: 0x12241, offset: 0x9018D, size: 0x8, addend: 0x0, symName: __Z13draw_scene_10v, symObjAddr: 0x3B9C, symBinAddr: 0x100025938, symSize: 0x210 }
  - { offsetInCU: 0x1226D, offset: 0x901B9, size: 0x8, addend: 0x0, symName: __Z13draw_scene_11v, symObjAddr: 0x3DAC, symBinAddr: 0x100025B48, symSize: 0x144 }
  - { offsetInCU: 0x122DE, offset: 0x9022A, size: 0x8, addend: 0x0, symName: __Z13draw_scene_12v, symObjAddr: 0x3EF0, symBinAddr: 0x100025C8C, symSize: 0x144 }
  - { offsetInCU: 0x1234F, offset: 0x9029B, size: 0x8, addend: 0x0, symName: __Z13draw_scene_13v, symObjAddr: 0x4034, symBinAddr: 0x100025DD0, symSize: 0x144 }
  - { offsetInCU: 0x123C0, offset: 0x9030C, size: 0x8, addend: 0x0, symName: __Z13draw_scene_14v, symObjAddr: 0x4178, symBinAddr: 0x100025F14, symSize: 0x210 }
  - { offsetInCU: 0x12442, offset: 0x9038E, size: 0x8, addend: 0x0, symName: __Z13draw_scene_15v, symObjAddr: 0x4388, symBinAddr: 0x100026124, symSize: 0x170 }
  - { offsetInCU: 0x124B3, offset: 0x903FF, size: 0x8, addend: 0x0, symName: __Z13draw_scene_16v, symObjAddr: 0x44F8, symBinAddr: 0x100026294, symSize: 0x144 }
  - { offsetInCU: 0x12524, offset: 0x90470, size: 0x8, addend: 0x0, symName: __Z13draw_scene_17v, symObjAddr: 0x463C, symBinAddr: 0x1000263D8, symSize: 0x144 }
  - { offsetInCU: 0x12595, offset: 0x904E1, size: 0x8, addend: 0x0, symName: __Z13draw_scene_18v, symObjAddr: 0x4780, symBinAddr: 0x10002651C, symSize: 0x144 }
  - { offsetInCU: 0x12606, offset: 0x90552, size: 0x8, addend: 0x0, symName: __Z13draw_scene_19v, symObjAddr: 0x48C4, symBinAddr: 0x100026660, symSize: 0x144 }
  - { offsetInCU: 0x12677, offset: 0x905C3, size: 0x8, addend: 0x0, symName: __Z13draw_scene_20v, symObjAddr: 0x4A08, symBinAddr: 0x1000267A4, symSize: 0x144 }
  - { offsetInCU: 0x126E8, offset: 0x90634, size: 0x8, addend: 0x0, symName: __Z13draw_scene_21v, symObjAddr: 0x4B4C, symBinAddr: 0x1000268E8, symSize: 0x144 }
  - { offsetInCU: 0x12759, offset: 0x906A5, size: 0x8, addend: 0x0, symName: __Z13draw_scene_22v, symObjAddr: 0x4C90, symBinAddr: 0x100026A2C, symSize: 0x144 }
  - { offsetInCU: 0x127CA, offset: 0x90716, size: 0x8, addend: 0x0, symName: __Z13draw_scene_23v, symObjAddr: 0x4DD4, symBinAddr: 0x100026B70, symSize: 0x144 }
  - { offsetInCU: 0x1283B, offset: 0x90787, size: 0x8, addend: 0x0, symName: __Z13draw_scene_24v, symObjAddr: 0x4F18, symBinAddr: 0x100026CB4, symSize: 0x144 }
  - { offsetInCU: 0x128AC, offset: 0x907F8, size: 0x8, addend: 0x0, symName: __Z13draw_scene_25v, symObjAddr: 0x505C, symBinAddr: 0x100026DF8, symSize: 0x144 }
  - { offsetInCU: 0x1291D, offset: 0x90869, size: 0x8, addend: 0x0, symName: __Z13draw_scene_26v, symObjAddr: 0x51A0, symBinAddr: 0x100026F3C, symSize: 0x144 }
  - { offsetInCU: 0x1298E, offset: 0x908DA, size: 0x8, addend: 0x0, symName: __Z13draw_scene_27v, symObjAddr: 0x52E4, symBinAddr: 0x100027080, symSize: 0x3DC }
  - { offsetInCU: 0x12A03, offset: 0x9094F, size: 0x8, addend: 0x0, symName: __Z13draw_scene_28v, symObjAddr: 0x56C0, symBinAddr: 0x10002745C, symSize: 0x8C }
  - { offsetInCU: 0x12A74, offset: 0x909C0, size: 0x8, addend: 0x0, symName: __Z13draw_scene_29v, symObjAddr: 0x574C, symBinAddr: 0x1000274E8, symSize: 0x8C }
  - { offsetInCU: 0x12AE5, offset: 0x90A31, size: 0x8, addend: 0x0, symName: __Z13draw_scene_30v, symObjAddr: 0x57D8, symBinAddr: 0x100027574, symSize: 0x8C }
  - { offsetInCU: 0x12B56, offset: 0x90AA2, size: 0x8, addend: 0x0, symName: __Z13draw_scene_31v, symObjAddr: 0x5864, symBinAddr: 0x100027600, symSize: 0x8C }
  - { offsetInCU: 0x12BC7, offset: 0x90B13, size: 0x8, addend: 0x0, symName: __Z19draw_scene_gameplayv, symObjAddr: 0x58F0, symBinAddr: 0x10002768C, symSize: 0xE4 }
  - { offsetInCU: 0x12C38, offset: 0x90B84, size: 0x8, addend: 0x0, symName: __ZNKSt3__16chrono8durationIxNS_5ratioILl1ELl1000EEEE5countB8ue170006Ev, symObjAddr: 0x6BC4, symBinAddr: 0x1000277F8, symSize: 0x18 }
  - { offsetInCU: 0x12C5E, offset: 0x90BAA, size: 0x8, addend: 0x0, symName: __ZNSt3__16vectorINS_12basic_stringIcNS_11char_traitsIcEENS_9allocatorIcEEEENS4_IS6_EEEixB8ue170006Em, symObjAddr: 0x6C04, symBinAddr: 0x100027810, symSize: 0x2C }
  - { offsetInCU: 0x12C95, offset: 0x90BE1, size: 0x8, addend: 0x0, symName: __ZNKSt3__16chrono8durationIxNS_5ratioILl1ELl1000000000EEEE5countB8ue170006Ev, symObjAddr: 0x6C7C, symBinAddr: 0x100027888, symSize: 0x18 }
  - { offsetInCU: 0x12CCA, offset: 0x90C16, size: 0x8, addend: 0x0, symName: __ZNSt3__16chrono8durationIxNS_5ratioILl1ELl1000EEEEC1B8ue170006IxEERKT_PNS_9enable_ifIXaasr14is_convertibleIS8_xEE5valueooL_ZNS_17integral_constantIbLb0EE5valueEEntsr23treat_as_floating_pointIS6_EE5valueEvE4typeE, symObjAddr: 0x6C94, symBinAddr: 0x1000278A0, symSize: 0x3C }
  - { offsetInCU: 0x12D17, offset: 0x90C63, size: 0x8, addend: 0x0, symName: __ZNSt3__16chrono8durationIxNS_5ratioILl1ELl1000EEEEC2B8ue170006IxEERKT_PNS_9enable_ifIXaasr14is_convertibleIS8_xEE5valueooL_ZNS_17integral_constantIbLb0EE5valueEEntsr23treat_as_floating_pointIS6_EE5valueEvE4typeE, symObjAddr: 0x6CD0, symBinAddr: 0x1000278DC, symSize: 0x28 }
  - { offsetInCU: 0x12D64, offset: 0x90CB0, size: 0x8, addend: 0x0, symName: __ZNKSt3__16chrono10time_pointINS0_12steady_clockENS0_8durationIxNS_5ratioILl1ELl1000000000EEEEEE16time_since_epochB8ue170006Ev, symObjAddr: 0x6D68, symBinAddr: 0x100027974, symSize: 0x20 }
  - { offsetInCU: 0x12D8A, offset: 0x90CD6, size: 0x8, addend: 0x0, symName: __ZNSt3__16chrono8durationIxNS_5ratioILl1ELl1000000000EEEEC1B8ue170006IxEERKT_PNS_9enable_ifIXaasr14is_convertibleIS8_xEE5valueooL_ZNS_17integral_constantIbLb0EE5valueEEntsr23treat_as_floating_pointIS6_EE5valueEvE4typeE, symObjAddr: 0x6D88, symBinAddr: 0x100027994, symSize: 0x3C }
  - { offsetInCU: 0x12DD7, offset: 0x90D23, size: 0x8, addend: 0x0, symName: __ZNSt3__16chrono8durationIxNS_5ratioILl1ELl1000000000EEEEC2B8ue170006IxEERKT_PNS_9enable_ifIXaasr14is_convertibleIS8_xEE5valueooL_ZNS_17integral_constantIbLb0EE5valueEEntsr23treat_as_floating_pointIS6_EE5valueEvE4typeE, symObjAddr: 0x6DC4, symBinAddr: 0x1000279D0, symSize: 0x28 }
  - { offsetInCU: 0x12E24, offset: 0x90D70, size: 0x8, addend: 0x0, symName: __ZNKSt3__119__hash_map_iteratorINS_15__hash_iteratorIPNS_11__hash_nodeINS_17__hash_value_typeINS_12basic_stringIcNS_11char_traitsIcEENS_9allocatorIcEEEEP11SDL_TextureEEPvEEEEEptB8ue170006Ev, symObjAddr: 0x6E94, symBinAddr: 0x100027A28, symSize: 0x2C }
  - { offsetInCU: 0x12E4A, offset: 0x90D96, size: 0x8, addend: 0x0, symName: __ZNSt3__114pointer_traitsIPNS_4pairIKNS_12basic_stringIcNS_11char_traitsIcEENS_9allocatorIcEEEEP11SDL_TextureEEE10pointer_toB8ue170006ERSB_, symObjAddr: 0x8778, symBinAddr: 0x100027A88, symSize: 0x14 }
  - { offsetInCU: 0x12E88, offset: 0x90DD4, size: 0x8, addend: 0x0, symName: __ZNKSt3__111__wrap_iterIPP10BaseButtonE4baseB8ue170006Ev, symObjAddr: 0xAF78, symBinAddr: 0x100027AE4, symSize: 0x18 }
  - { offsetInCU: 0x12EAE, offset: 0x90DFA, size: 0x8, addend: 0x0, symName: __ZNK10BaseButton11is_selectedEv, symObjAddr: 0xAF90, symBinAddr: 0x100027AFC, symSize: 0x1C }
  - { offsetInCU: 0x12ED4, offset: 0x90E20, size: 0x8, addend: 0x0, symName: __ZN10BaseButton16set_button_labelENSt3__112basic_stringIcNS0_11char_traitsIcEENS0_9allocatorIcEEEE, symObjAddr: 0xAFAC, symBinAddr: 0x100027B18, symSize: 0x30 }
  - { offsetInCU: 0x12F0A, offset: 0x90E56, size: 0x8, addend: 0x0, symName: __ZNK10BaseButton16get_button_labelEv, symObjAddr: 0xAFDC, symBinAddr: 0x100027B48, symSize: 0x3C }
  - { offsetInCU: 0x12F30, offset: 0x90E7C, size: 0x8, addend: 0x0, symName: __ZNKSt3__16vectorIP10BaseButtonNS_9allocatorIS2_EEE4sizeB8ue170006Ev, symObjAddr: 0xB018, symBinAddr: 0x100027B84, symSize: 0x28 }
  - { offsetInCU: 0x12F56, offset: 0x90EA2, size: 0x8, addend: 0x0, symName: __ZNK10BaseButton8get_rectEv, symObjAddr: 0xB040, symBinAddr: 0x100027BAC, symSize: 0x24 }
  - { offsetInCU: 0x12F7C, offset: 0x90EC8, size: 0x8, addend: 0x0, symName: __ZN10BaseButton14set_rect_x_posEi, symObjAddr: 0xB064, symBinAddr: 0x100027BD0, symSize: 0x20 }
  - { offsetInCU: 0x12FB1, offset: 0x90EFD, size: 0x8, addend: 0x0, symName: __ZN10BaseButton14set_rect_y_posEi, symObjAddr: 0xB084, symBinAddr: 0x100027BF0, symSize: 0x20 }
  - { offsetInCU: 0x12FE6, offset: 0x90F32, size: 0x8, addend: 0x0, symName: __ZN10BaseButton18render_button_textERKNSt3__112basic_stringIcNS0_11char_traitsIcEENS0_9allocatorIcEEEE8SDL_Rect9SDL_Color, symObjAddr: 0xB0A4, symBinAddr: 0x100027C10, symSize: 0x224 }
  - { offsetInCU: 0x130DC, offset: 0x91028, size: 0x8, addend: 0x0, symName: __ZNK11InputButton13render_cursorEv, symObjAddr: 0xB2C8, symBinAddr: 0x100027E34, symSize: 0x94 }
  - { offsetInCU: 0x13152, offset: 0x9109E, size: 0x8, addend: 0x0, symName: __ZNSt3__16vectorIP10BaseButtonNS_9allocatorIS2_EEE11__make_iterB8ue170006EPS2_, symObjAddr: 0xB3B4, symBinAddr: 0x100027EC8, symSize: 0x30 }
  - { offsetInCU: 0x13187, offset: 0x910D3, size: 0x8, addend: 0x0, symName: __ZNSt3__111__wrap_iterIPP10BaseButtonEC1B8ue170006ES3_, symObjAddr: 0xB3E4, symBinAddr: 0x100027EF8, symSize: 0x34 }
  - { offsetInCU: 0x131BF, offset: 0x9110B, size: 0x8, addend: 0x0, symName: __ZNSt3__111__wrap_iterIPP10BaseButtonEC2B8ue170006ES3_, symObjAddr: 0xB418, symBinAddr: 0x100027F2C, symSize: 0x20 }
  - { offsetInCU: 0x4F, offset: 0x91460, size: 0x8, addend: 0x0, symName: __ZN5boost4asio5errorL15system_categoryE, symObjAddr: 0x10C700, symBinAddr: 0x1000B02B8, symSize: 0x0 }
  - { offsetInCU: 0x69, offset: 0x9147A, size: 0x8, addend: 0x0, symName: __ZN5boost4asio5errorL14netdb_categoryE, symObjAddr: 0x10C708, symBinAddr: 0x1000B02C0, symSize: 0x0 }
  - { offsetInCU: 0x83, offset: 0x91494, size: 0x8, addend: 0x0, symName: __ZN5boost4asio5errorL17addrinfo_categoryE, symObjAddr: 0x10C710, symBinAddr: 0x1000B02C8, symSize: 0x0 }
  - { offsetInCU: 0x9D, offset: 0x914AE, size: 0x8, addend: 0x0, symName: __ZN5boost4asio5errorL13misc_categoryE, symObjAddr: 0x10C718, symBinAddr: 0x1000B02D0, symSize: 0x0 }
  - { offsetInCU: 0x1E6, offset: 0x915F7, size: 0x8, addend: 0x0, symName: __ZN5boost4asio5error15make_error_codeENS1_12netdb_errorsE, symObjAddr: 0x18F68, symBinAddr: 0x10003F220, symSize: 0x3C }
  - { offsetInCU: 0x215, offset: 0x91626, size: 0x8, addend: 0x0, symName: __ZN5boost4asio5error15make_error_codeENS1_12basic_errorsE, symObjAddr: 0x19004, symBinAddr: 0x10003F2BC, symSize: 0x3C }
  - { offsetInCU: 0x244, offset: 0x91655, size: 0x8, addend: 0x0, symName: __ZN5boost4asio5error15make_error_codeENS1_15addrinfo_errorsE, symObjAddr: 0x190A0, symBinAddr: 0x10003F358, symSize: 0x3C }
  - { offsetInCU: 0x273, offset: 0x91684, size: 0x8, addend: 0x0, symName: __ZN5boost4asio5error5clearERNS_6system10error_codeE, symObjAddr: 0x20568, symBinAddr: 0x100045FBC, symSize: 0x38 }
  - { offsetInCU: 0x29C, offset: 0x916AD, size: 0x8, addend: 0x0, symName: __ZN5boost4asio5error15make_error_codeENS1_11misc_errorsE, symObjAddr: 0x21C98, symBinAddr: 0x100047684, symSize: 0x3C }
  - { offsetInCU: 0x7CE, offset: 0x91BDF, size: 0x8, addend: 0x0, symName: __ZN5boost4asio6detail10socket_ops11getaddrinfoEPKcS4_RK8addrinfoPPS5_RNS_6system10error_codeE, symObjAddr: 0x1853C, symBinAddr: 0x10003E7F4, symSize: 0x250 }
  - { offsetInCU: 0x8E0, offset: 0x91CF1, size: 0x8, addend: 0x0, symName: __ZN5boost4asio6detail10socket_ops16clear_last_errorEv, symObjAddr: 0x18BAC, symBinAddr: 0x10003EE64, symSize: 0x18 }
  - { offsetInCU: 0x8FB, offset: 0x91D0C, size: 0x8, addend: 0x0, symName: __ZN5boost4asio6detail10socket_ops21host_to_network_shortEt, symObjAddr: 0x18BEC, symBinAddr: 0x10003EEA4, symSize: 0x38 }
  - { offsetInCU: 0x92D, offset: 0x91D3E, size: 0x8, addend: 0x0, symName: __ZN5boost4asio6detail10socket_ops24translate_addrinfo_errorEi, symObjAddr: 0x18C24, symBinAddr: 0x10003EEDC, symSize: 0x124 }
  - { offsetInCU: 0x95F, offset: 0x91D70, size: 0x8, addend: 0x0, symName: __ZN5boost4asio6detail10socket_ops12freeaddrinfoEP8addrinfo, symObjAddr: 0x1DF60, symBinAddr: 0x100043C50, symSize: 0x24 }
  - { offsetInCU: 0x98D, offset: 0x91D9E, size: 0x8, addend: 0x0, symName: __ZN5boost4asio6detail10socket_ops5closeEiRhbRNS_6system10error_codeE, symObjAddr: 0x1F3E4, symBinAddr: 0x100045004, symSize: 0x254 }
  - { offsetInCU: 0xA77, offset: 0x91E88, size: 0x8, addend: 0x0, symName: __ZN5boost4asio6detail10socket_ops10setsockoptEiRhiiPKvmRNS_6system10error_codeE, symObjAddr: 0x2015C, symBinAddr: 0x100045BB0, symSize: 0x250 }
  - { offsetInCU: 0xB20, offset: 0x91F31, size: 0x8, addend: 0x0, symName: __ZN5boost4asio6detail10socket_ops14get_last_errorERNS_6system10error_codeEb, symObjAddr: 0x203AC, symBinAddr: 0x100045E00, symSize: 0x78 }
  - { offsetInCU: 0xB5C, offset: 0x91F6D, size: 0x8, addend: 0x0, symName: __ZN5boost4asio6detail10socket_ops15call_setsockoptIjEEiM6msghdrT_iiiPKvm, symObjAddr: 0x205A0, symBinAddr: 0x100045FF4, symSize: 0x4C }
  - { offsetInCU: 0xBE8, offset: 0x91FF9, size: 0x8, addend: 0x0, symName: __ZN5boost4asio6detail10socket_ops6socketEiiiRNS_6system10error_codeE, symObjAddr: 0x20CBC, symBinAddr: 0x100046710, symSize: 0xE8 }
  - { offsetInCU: 0xC80, offset: 0x92091, size: 0x8, addend: 0x0, symName: __ZN5boost4asio6detail10socket_ops12sync_connectEiPKvmRNS_6system10error_codeE, symObjAddr: 0x21678, symBinAddr: 0x100047064, symSize: 0x14C }
  - { offsetInCU: 0xD05, offset: 0x92116, size: 0x8, addend: 0x0, symName: __ZN5boost4asio6detail10socket_ops7connectEiPKvmRNS_6system10error_codeE, symObjAddr: 0x2180C, symBinAddr: 0x1000471F8, symSize: 0x94 }
  - { offsetInCU: 0xD7B, offset: 0x9218C, size: 0x8, addend: 0x0, symName: __ZN5boost4asio6detail10socket_ops12poll_connectEiiRNS_6system10error_codeE, symObjAddr: 0x218D4, symBinAddr: 0x1000472C0, symSize: 0xA0 }
  - { offsetInCU: 0xDF1, offset: 0x92202, size: 0x8, addend: 0x0, symName: __ZN5boost4asio6detail10socket_ops10getsockoptEihiiPvPmRNS_6system10error_codeE, symObjAddr: 0x21974, symBinAddr: 0x100047360, symSize: 0x17C }
  - { offsetInCU: 0xE9A, offset: 0x922AB, size: 0x8, addend: 0x0, symName: __ZN5boost4asio6detail10socket_ops12call_connectIjEEiM6msghdrT_iPKvm, symObjAddr: 0x21AF0, symBinAddr: 0x1000474DC, symSize: 0x3C }
  - { offsetInCU: 0xF04, offset: 0x92315, size: 0x8, addend: 0x0, symName: __ZN5boost4asio6detail10socket_ops15call_getsockoptIjEEiM6msghdrT_iiiPvPm, symObjAddr: 0x21B2C, symBinAddr: 0x100047518, symSize: 0x68 }
  - { offsetInCU: 0xFB2, offset: 0x923C3, size: 0x8, addend: 0x0, symName: __ZN5boost4asio6detail10socket_ops10sync_send1EihPKvmiRNS_6system10error_codeE, symObjAddr: 0x22354, symBinAddr: 0x100047D40, symSize: 0x1A8 }
  - { offsetInCU: 0x1059, offset: 0x9246A, size: 0x8, addend: 0x0, symName: __ZN5boost4asio6detail10socket_ops5send1EiPKvmiRNS_6system10error_codeE, symObjAddr: 0x22538, symBinAddr: 0x100047F24, symSize: 0x60 }
  - { offsetInCU: 0x10E0, offset: 0x924F1, size: 0x8, addend: 0x0, symName: __ZN5boost4asio6detail10socket_ops10poll_writeEihiRNS_6system10error_codeE, symObjAddr: 0x22598, symBinAddr: 0x100047F84, symSize: 0x114 }
  - { offsetInCU: 0x1178, offset: 0x92589, size: 0x8, addend: 0x0, symName: __ZN5boost4asio6detail10socket_ops10sync_recv1EihPvmiRNS_6system10error_codeE, symObjAddr: 0x2693C, symBinAddr: 0x10004C018, symSize: 0x1E4 }
  - { offsetInCU: 0x121F, offset: 0x92630, size: 0x8, addend: 0x0, symName: __ZN5boost4asio6detail10socket_ops5recv1EiPvmiRNS_6system10error_codeE, symObjAddr: 0x26B44, symBinAddr: 0x10004C220, symSize: 0x60 }
  - { offsetInCU: 0x12A6, offset: 0x926B7, size: 0x8, addend: 0x0, symName: __ZN5boost4asio6detail10socket_ops9poll_readEihiRNS_6system10error_codeE, symObjAddr: 0x26BA4, symBinAddr: 0x10004C280, symSize: 0x114 }
  - { offsetInCU: 0x19CE, offset: 0x92DDF, size: 0x8, addend: 0x0, symName: __ZN5boost4asio6detail11throw_errorERKNS_6system10error_codeEPKcRKNS_15source_locationE, symObjAddr: 0x17F78, symBinAddr: 0x10003E3C8, symSize: 0x48 }
  - { offsetInCU: 0x1A1A, offset: 0x92E2B, size: 0x8, addend: 0x0, symName: __ZN5boost4asio6detail11throw_errorERKNS_6system10error_codeERKNS_15source_locationE, symObjAddr: 0x1ACC0, symBinAddr: 0x100040D54, symSize: 0x40 }
  - { offsetInCU: 0x1A56, offset: 0x92E67, size: 0x8, addend: 0x0, symName: __ZN5boost4asio6detail14do_throw_errorERKNS_6system10error_codeERKNS_15source_locationE, symObjAddr: 0x1AD00, symBinAddr: 0x100040D94, symSize: 0x58 }
  - { offsetInCU: 0x1AA2, offset: 0x92EB3, size: 0x8, addend: 0x0, symName: __ZN5boost4asio6detail14do_throw_errorERKNS_6system10error_codeEPKcRKNS_15source_locationE, symObjAddr: 0x1DF98, symBinAddr: 0x100043C74, symSize: 0x60 }
  - { offsetInCU: 0x1AFE, offset: 0x92F0F, size: 0x8, addend: 0x0, symName: __ZN5boost4asio6detail20deref_connect_resultINS0_2ip3tcpENS3_23basic_resolver_iteratorIS4_EEEENT_8endpointET0_RNS_6system10error_codeE, symObjAddr: 0x1E3A4, symBinAddr: 0x100044040, symSize: 0x5C }
  - { offsetInCU: 0x1B4B, offset: 0x92F5C, size: 0x8, addend: 0x0, symName: __ZN5boost4asio6detail22call_connect_conditionINS1_25default_connect_conditionENS0_2ip23basic_resolver_iteratorINS4_3tcpEEEEET0_RT_RKNS_6system10error_codeES8_S8_PNSt3__19enable_ifIXntsr27is_legacy_connect_conditionIS9_S8_EE5valueEvE4typeE, symObjAddr: 0x1E8C0, symBinAddr: 0x10004455C, symSize: 0xB4 }
  - { offsetInCU: 0x1E22, offset: 0x93233, size: 0x8, addend: 0x0, symName: __ZN5boost4asio6detail5writeINS0_19basic_stream_socketINS0_2ip3tcpENS0_15any_io_executorEEENS0_17mutable_buffers_1EPKNS0_14mutable_bufferENS1_14transfer_all_tEEEmRT_RKT0_RKT1_T2_RNS_6system10error_codeE, symObjAddr: 0x21E40, symBinAddr: 0x10004782C, symSize: 0xF8 }
  - { offsetInCU: 0x1FC2, offset: 0x933D3, size: 0x8, addend: 0x0, symName: __ZN5boost4asio6detail33adapt_completion_condition_resultEm, symObjAddr: 0x21FC0, symBinAddr: 0x1000479AC, symSize: 0x14 }
  - { offsetInCU: 0x21C1, offset: 0x935D2, size: 0x8, addend: 0x0, symName: __ZN5boost4asio6detail14partial_searchINS0_16buffers_iteratorINS0_15const_buffers_1EcEEPKcEENSt3__14pairIT_bEESA_SA_T0_SC_, symObjAddr: 0x25B10, symBinAddr: 0x10004B1EC, symSize: 0x180 }
  - { offsetInCU: 0x2C56, offset: 0x94067, size: 0x8, addend: 0x0, symName: __ZN5boost4asio2ipneERKNS1_23basic_resolver_iteratorINS1_3tcpEEES6_, symObjAddr: 0x1E88C, symBinAddr: 0x100044528, symSize: 0x34 }
  - { offsetInCU: 0x3594, offset: 0x949A5, size: 0x8, addend: 0x0, symName: __ZN5boost4asio7connectINS0_2ip3tcpENS0_15any_io_executorENS2_22basic_resolver_resultsIS3_EEEENT_8endpointERNS0_12basic_socketIS7_T0_EERKT1_NS0_10constraintIXsr20is_endpoint_sequenceISD_EE5valueEiE4typeE, symObjAddr: 0x16F74, symBinAddr: 0x10003DAD0, symSize: 0x88 }
  - { offsetInCU: 0x3611, offset: 0x94A22, size: 0x8, addend: 0x0, symName: __ZN5boost4asio5writeINS0_19basic_stream_socketINS0_2ip3tcpENS0_15any_io_executorEEENS0_17mutable_buffers_1EEEmRT_RKT0_NS0_10constraintIXsr24is_const_buffer_sequenceISA_EE5valueEiE4typeE, symObjAddr: 0x16FFC, symBinAddr: 0x10003DB58, symSize: 0x98 }
  - { offsetInCU: 0x3684, offset: 0x94A95, size: 0x8, addend: 0x0, symName: __ZN5boost4asio6bufferEPvm, symObjAddr: 0x17094, symBinAddr: 0x10003DBF0, symSize: 0x38 }
  - { offsetInCU: 0x36C2, offset: 0x94AD3, size: 0x8, addend: 0x0, symName: __ZN5boost4asio10read_untilINS0_19basic_stream_socketINS0_2ip3tcpENS0_15any_io_executorEEENSt3__19allocatorIcEEEEmRT_RNS0_15basic_streambufIT0_EENS7_17basic_string_viewIcNS7_11char_traitsIcEEEE, symObjAddr: 0x171C4, symBinAddr: 0x10003DC64, symSize: 0x64 }
  - { offsetInCU: 0x3721, offset: 0x94B32, size: 0x8, addend: 0x0, symName: __ZN5boost4asio7connectINS0_2ip3tcpENS0_15any_io_executorENS2_22basic_resolver_resultsIS3_EEEENT_8endpointERNS0_12basic_socketIS7_T0_EERKT1_RNS_6system10error_codeENS0_10constraintIXsr20is_endpoint_sequenceISD_EE5valueEiE4typeE, symObjAddr: 0x1E2B0, symBinAddr: 0x100043F4C, symSize: 0xF4 }
  - { offsetInCU: 0x3796, offset: 0x94BA7, size: 0x8, addend: 0x0, symName: __ZN5boost4asio7connectINS0_2ip3tcpENS0_15any_io_executorENS2_23basic_resolver_iteratorIS3_EENS0_6detail25default_connect_conditionEEET1_RNS0_12basic_socketIT_T0_EES9_S9_T2_RNS_6system10error_codeE, symObjAddr: 0x1E400, symBinAddr: 0x10004409C, symSize: 0x2B4 }
  - { offsetInCU: 0x3845, offset: 0x94C56, size: 0x8, addend: 0x0, symName: __ZN5boost4asio5writeINS0_19basic_stream_socketINS0_2ip3tcpENS0_15any_io_executorEEENS0_17mutable_buffers_1ENS0_6detail14transfer_all_tEEEmRT_RKT0_T1_RNS_6system10error_codeENS0_10constraintIXsr24is_const_buffer_sequenceISC_EE5valueEiE4typeE, symObjAddr: 0x21DDC, symBinAddr: 0x1000477C8, symSize: 0x60 }
  - { offsetInCU: 0x38C2, offset: 0x94CD3, size: 0x8, addend: 0x0, symName: __ZN5boost4asio12transfer_allEv, symObjAddr: 0x21E3C, symBinAddr: 0x100047828, symSize: 0x4 }
  - { offsetInCU: 0x38DF, offset: 0x94CF0, size: 0x8, addend: 0x0, symName: __ZN5boost4asio21buffer_sequence_beginINS0_17mutable_buffers_1EEEPKNS0_14mutable_bufferERKT_NS0_10constraintIXsr14is_convertibleIPS7_S5_EE5valueEiE4typeE, symObjAddr: 0x21F38, symBinAddr: 0x100047924, symSize: 0x18 }
  - { offsetInCU: 0x3998, offset: 0x94DA9, size: 0x8, addend: 0x0, symName: __ZN5boost4asio6bufferERKNS0_12const_bufferEm, symObjAddr: 0x226AC, symBinAddr: 0x100048098, symSize: 0x7C }
  - { offsetInCU: 0x39D6, offset: 0x94DE7, size: 0x8, addend: 0x0, symName: __ZN5boost4asioplERKNS0_12const_bufferEm, symObjAddr: 0x22728, symBinAddr: 0x100048114, symSize: 0xA8 }
  - { offsetInCU: 0x3A44, offset: 0x94E55, size: 0x8, addend: 0x0, symName: __ZN5boost4asio10read_untilINS0_19basic_stream_socketINS0_2ip3tcpENS0_15any_io_executorEEENS0_19basic_streambuf_refINSt3__19allocatorIcEEEEEEmRT_OT0_NS8_17basic_string_viewIcNS8_11char_traitsIcEEEENS0_10constraintIXsr20is_dynamic_buffer_v1INS8_5decayISE_E4typeEEE5valueEiE4typeENSK_IXntsr20is_dynamic_buffer_v2ISN_EE5valueEiE4typeE, symObjAddr: 0x25514, symBinAddr: 0x10004ABF0, symSize: 0xA4 }
  - { offsetInCU: 0x3AD1, offset: 0x94EE2, size: 0x8, addend: 0x0, symName: __ZN5boost4asio10read_untilINS0_19basic_stream_socketINS0_2ip3tcpENS0_15any_io_executorEEENS0_19basic_streambuf_refINSt3__19allocatorIcEEEEEEmRT_OT0_NS8_17basic_string_viewIcNS8_11char_traitsIcEEEERNS_6system10error_codeENS0_10constraintIXsr20is_dynamic_buffer_v1INS8_5decayISE_E4typeEEE5valueEiE4typeENSN_IXntsr20is_dynamic_buffer_v2ISQ_EE5valueEiE4typeE, symObjAddr: 0x255EC, symBinAddr: 0x10004ACC8, symSize: 0x2E8 }
  - { offsetInCU: 0x3BFE, offset: 0x9500F, size: 0x8, addend: 0x0, symName: __ZN5boost4asioplERKNS0_16buffers_iteratorINS0_15const_buffers_1EcEEl, symObjAddr: 0x25A08, symBinAddr: 0x10004B0E4, symSize: 0x44 }
  - { offsetInCU: 0x3C4D, offset: 0x9505E, size: 0x8, addend: 0x0, symName: __ZN5boost4asioneERKNS0_16buffers_iteratorINS0_15const_buffers_1EcEES5_, symObjAddr: 0x25CD8, symBinAddr: 0x10004B3B4, symSize: 0x34 }
  - { offsetInCU: 0x3C8B, offset: 0x9509C, size: 0x8, addend: 0x0, symName: __ZN5boost4asiomiERKNS0_16buffers_iteratorINS0_15const_buffers_1EcEES5_, symObjAddr: 0x25D0C, symBinAddr: 0x10004B3E8, symSize: 0x2C }
  - { offsetInCU: 0x3CC9, offset: 0x950DA, size: 0x8, addend: 0x0, symName: __ZN5boost4asio6bufferERKNS0_12const_bufferE, symObjAddr: 0x25F38, symBinAddr: 0x10004B614, symSize: 0x30 }
  - { offsetInCU: 0x3CF9, offset: 0x9510A, size: 0x8, addend: 0x0, symName: __ZN5boost4asio21buffer_sequence_beginINS0_15const_buffers_1EEEPKNS0_12const_bufferERKT_NS0_10constraintIXsr14is_convertibleIPS7_S5_EE5valueEiE4typeE, symObjAddr: 0x25F94, symBinAddr: 0x10004B670, symSize: 0x18 }
  - { offsetInCU: 0x3D3C, offset: 0x9514D, size: 0x8, addend: 0x0, symName: __ZN5boost4asio19buffer_sequence_endINS0_15const_buffers_1EEEPKNS0_12const_bufferERKT_NS0_10constraintIXsr14is_convertibleIPS7_S5_EE5valueEiE4typeE, symObjAddr: 0x25FAC, symBinAddr: 0x10004B688, symSize: 0x1C }
  - { offsetInCU: 0x3D7E, offset: 0x9518F, size: 0x8, addend: 0x0, symName: __ZN5boost4asioeqERKNS0_16buffers_iteratorINS0_15const_buffers_1EcEES5_, symObjAddr: 0x26450, symBinAddr: 0x10004BB2C, symSize: 0x30 }
  - { offsetInCU: 0x3DBC, offset: 0x951CD, size: 0x8, addend: 0x0, symName: __ZN5boost4asio6bufferERKNS0_14mutable_bufferE, symObjAddr: 0x26D20, symBinAddr: 0x10004C3FC, symSize: 0x30 }
  - { offsetInCU: 0x3F53, offset: 0x95364, size: 0x8, addend: 0x0, symName: __ZN5boost6system6detail11failed_implEiRKNS0_14error_categoryE, symObjAddr: 0x19154, symBinAddr: 0x10003F40C, symSize: 0xB8 }
  - { offsetInCU: 0x3F8E, offset: 0x9539F, size: 0x8, addend: 0x0, symName: __ZN5boost6system6detail16interop_categoryEv, symObjAddr: 0x1B5D0, symBinAddr: 0x10004160C, symSize: 0xC }
  - { offsetInCU: 0x3FAA, offset: 0x953BB, size: 0x8, addend: 0x0, symName: __ZN5boost6system6detail10append_intERNSt3__112basic_stringIcNS2_11char_traitsIcEENS2_9allocatorIcEEEEi, symObjAddr: 0x1B6D0, symBinAddr: 0x10004170C, symSize: 0x88 }
  - { offsetInCU: 0x442A, offset: 0x9583B, size: 0x8, addend: 0x0, symName: __ZN5boost6systemeqERKNS0_10error_codeES3_, symObjAddr: 0x20424, symBinAddr: 0x100045E78, symSize: 0x144 }
  - { offsetInCU: 0x44B7, offset: 0x958C8, size: 0x8, addend: 0x0, symName: __ZN5boost6systemneERKNS0_10error_codeES3_, symObjAddr: 0x218A0, symBinAddr: 0x10004728C, symSize: 0x34 }
  - { offsetInCU: 0x4A50, offset: 0x95E61, size: 0x8, addend: 0x0, symName: __ZN5boost16exception_detail8set_infoINS_10wrapexceptINS_6system12system_errorEEEEERKT_S8_RKNS_10error_infoINS_11throw_file_EPKcEE, symObjAddr: 0x1BB68, symBinAddr: 0x100041B70, symSize: 0x28 }
  - { offsetInCU: 0x4A96, offset: 0x95EA7, size: 0x8, addend: 0x0, symName: __ZN5boost16exception_detail8set_infoINS_10wrapexceptINS_6system12system_errorEEEEERKT_S8_RKNS_10error_infoINS_11throw_line_EiEE, symObjAddr: 0x1BBC4, symBinAddr: 0x100041BCC, symSize: 0x28 }
  - { offsetInCU: 0x4ADC, offset: 0x95EED, size: 0x8, addend: 0x0, symName: __ZN5boost16exception_detail8set_infoINS_10wrapexceptINS_6system12system_errorEEEEERKT_S8_RKNS_10error_infoINS_15throw_function_EPKcEE, symObjAddr: 0x1BC20, symBinAddr: 0x100041C28, symSize: 0x28 }
  - { offsetInCU: 0x4B22, offset: 0x95F33, size: 0x8, addend: 0x0, symName: __ZN5boost16exception_detail8set_infoINS_10wrapexceptINS_6system12system_errorEEEEERKT_S8_RKNS_10error_infoINS_13throw_column_EiEE, symObjAddr: 0x1BC7C, symBinAddr: 0x100041C84, symSize: 0x28 }
  - { offsetInCU: 0x4B68, offset: 0x95F79, size: 0x8, addend: 0x0, symName: __ZN5boost16exception_detail20copy_boost_exceptionEPNS_9exceptionEPKS1_, symObjAddr: 0x1C118, symBinAddr: 0x100042120, symSize: 0x124 }
  - { offsetInCU: 0x4DAF, offset: 0x961C0, size: 0x8, addend: 0x0, symName: __ZN5boost15throw_exceptionINS_6system12system_errorEEEvRKT_RKNS_15source_locationE, symObjAddr: 0x1AD8C, symBinAddr: 0x100040E20, symSize: 0x74 }
  - { offsetInCU: 0x4DEF, offset: 0x96200, size: 0x8, addend: 0x0, symName: __ZN5boost36throw_exception_assert_compatibilityERKSt9exception, symObjAddr: 0x1B87C, symBinAddr: 0x100041884, symSize: 0x10 }
  - { offsetInCU: 0x4F15, offset: 0x96326, size: 0x8, addend: 0x0, symName: __ZN5boost15throw_exceptionISt12length_errorEEvRKT_, symObjAddr: 0x24F5C, symBinAddr: 0x10004A638, symSize: 0x6C }
  - { offsetInCU: 0x1BED9, offset: 0xAD2EA, size: 0x8, addend: 0x0, symName: __ZNSt3__1neB8ue170006IcNS_11char_traitsIcEENS_9allocatorIcEEEEbRKNS_12basic_stringIT_T0_T1_EEPKS6_, symObjAddr: 0x176C8, symBinAddr: 0x10003DD9C, symSize: 0x34 }
  - { offsetInCU: 0x1C975, offset: 0xADD86, size: 0x8, addend: 0x0, symName: __ZNSt3__112__to_addressB8ue170006IN5boost4asio2ip20basic_resolver_entryINS3_3tcpEEEEEPT_S8_, symObjAddr: 0x1A308, symBinAddr: 0x1000405AC, symSize: 0x14 }
  - { offsetInCU: 0x1CC65, offset: 0xAE076, size: 0x8, addend: 0x0, symName: __ZNSt3__14swapB8ue170006IPNS_6vectorIN5boost4asio2ip20basic_resolver_entryINS4_3tcpEEENS_9allocatorIS7_EEEEEENS_9enable_ifIXaasr21is_move_constructibleIT_EE5valuesr18is_move_assignableISD_EE5valueEvE4typeERSD_SG_, symObjAddr: 0x1A940, symBinAddr: 0x100040ABC, symSize: 0x3C }
  - { offsetInCU: 0x1CCBE, offset: 0xAE0CF, size: 0x8, addend: 0x0, symName: __ZNSt3__14swapB8ue170006IPNS_19__shared_weak_countEEENS_9enable_ifIXaasr21is_move_constructibleIT_EE5valuesr18is_move_assignableIS4_EE5valueEvE4typeERS4_S7_, symObjAddr: 0x1A97C, symBinAddr: 0x100040AF8, symSize: 0x3C }
  - { offsetInCU: 0x1D08E, offset: 0xAE49F, size: 0x8, addend: 0x0, symName: __ZNSt3__119__allocate_at_leastB8ue170006INS_9allocatorIN5boost4asio2ip20basic_resolver_entryINS4_3tcpEEEEEEENS_19__allocation_resultINS_16allocator_traitsIT_E7pointerEEERSB_m, symObjAddr: 0x1D0A4, symBinAddr: 0x100042E78, symSize: 0x40 }
  - { offsetInCU: 0x1D178, offset: 0xAE589, size: 0x8, addend: 0x0, symName: __ZNSt3__142__uninitialized_allocator_move_if_noexceptB8ue170006INS_9allocatorIN5boost4asio2ip20basic_resolver_entryINS4_3tcpEEEEENS_16reverse_iteratorIPS7_EESB_SB_EET2_RT_T0_T1_SC_, symObjAddr: 0x1D340, symBinAddr: 0x100043030, symSize: 0x12C }
  - { offsetInCU: 0x1D21C, offset: 0xAE62D, size: 0x8, addend: 0x0, symName: __ZNSt3__14swapB8ue170006IPN5boost4asio2ip20basic_resolver_entryINS3_3tcpEEEEENS_9enable_ifIXaasr21is_move_constructibleIT_EE5valuesr18is_move_assignableIS9_EE5valueEvE4typeERS9_SC_, symObjAddr: 0x1D4B8, symBinAddr: 0x1000431A8, symSize: 0x3C }
  - { offsetInCU: 0x1D274, offset: 0xAE685, size: 0x8, addend: 0x0, symName: __ZNSt3__122__make_exception_guardB8ue170006INS_29_AllocatorDestroyRangeReverseINS_9allocatorIN5boost4asio2ip20basic_resolver_entryINS5_3tcpEEEEENS_16reverse_iteratorIPS8_EEEEEENS_28__exception_guard_exceptionsIT_EESF_, symObjAddr: 0x1D5BC, symBinAddr: 0x1000432AC, symSize: 0x4C }
  - { offsetInCU: 0x1D2AA, offset: 0xAE6BB, size: 0x8, addend: 0x0, symName: __ZNSt3__1neB8ue170006IPN5boost4asio2ip20basic_resolver_entryINS3_3tcpEEES7_EEbRKNS_16reverse_iteratorIT_EERKNS8_IT0_EE, symObjAddr: 0x1D64C, symBinAddr: 0x10004333C, symSize: 0x48 }
  - { offsetInCU: 0x1D2F6, offset: 0xAE707, size: 0x8, addend: 0x0, symName: __ZNSt3__112__to_addressB8ue170006INS_16reverse_iteratorIPN5boost4asio2ip20basic_resolver_entryINS4_3tcpEEEEEvEEu7__decayIDTclsr19__to_address_helperIT_EE6__callclsr3stdE7declvalIRKSA_EEEEESC_, symObjAddr: 0x1D694, symBinAddr: 0x100043384, symSize: 0x24 }
  - { offsetInCU: 0x1D358, offset: 0xAE769, size: 0x8, addend: 0x0, symName: __ZNSt3__119__allocator_destroyB8ue170006INS_9allocatorIN5boost4asio2ip20basic_resolver_entryINS4_3tcpEEEEENS_16reverse_iteratorINS9_IPS7_EEEESC_EEvRT_T0_T1_, symObjAddr: 0x1D944, symBinAddr: 0x100043634, symSize: 0x70 }
  - { offsetInCU: 0x1D3BD, offset: 0xAE7CE, size: 0x8, addend: 0x0, symName: __ZNSt3__1neB8ue170006INS_16reverse_iteratorIPN5boost4asio2ip20basic_resolver_entryINS4_3tcpEEEEES9_EEbRKNS1_IT_EERKNS1_IT0_EE, symObjAddr: 0x1D9F0, symBinAddr: 0x1000436E0, symSize: 0x60 }
  - { offsetInCU: 0x1D409, offset: 0xAE81A, size: 0x8, addend: 0x0, symName: __ZNSt3__112__to_addressB8ue170006INS_16reverse_iteratorINS1_IPN5boost4asio2ip20basic_resolver_entryINS4_3tcpEEEEEEEvEEu7__decayIDTclsr19__to_address_helperIT_EE6__callclsr3stdE7declvalIRKSB_EEEEESD_, symObjAddr: 0x1DA50, symBinAddr: 0x100043740, symSize: 0x24 }
  - { offsetInCU: 0x1D4FF, offset: 0xAE910, size: 0x8, addend: 0x0, symName: __ZNSt3__1neB8ue170006INS_6vectorIN5boost4asio2ip20basic_resolver_entryINS4_3tcpEEENS_9allocatorIS7_EEEESA_EEbRKNS_10shared_ptrIT_EERKNSB_IT0_EE, symObjAddr: 0x1EE38, symBinAddr: 0x100044A58, symSize: 0x34 }
  - { offsetInCU: 0x1D54F, offset: 0xAE960, size: 0x8, addend: 0x0, symName: __ZNSt3__1eqB8ue170006INS_6vectorIN5boost4asio2ip20basic_resolver_entryINS4_3tcpEEENS_9allocatorIS7_EEEESA_EEbRKNS_10shared_ptrIT_EERKNSB_IT0_EE, symObjAddr: 0x1EE84, symBinAddr: 0x100044AA4, symSize: 0x48 }
  - { offsetInCU: 0x1D59F, offset: 0xAE9B0, size: 0x8, addend: 0x0, symName: __ZNSt3__1eqB8ue170006ERKNS_10error_codeES2_, symObjAddr: 0x205EC, symBinAddr: 0x100046040, symSize: 0x84 }
  - { offsetInCU: 0x1D667, offset: 0xAEA78, size: 0x8, addend: 0x0, symName: __ZNSt3__142__uninitialized_allocator_move_if_noexceptB8ue170006INS_9allocatorIcEENS_16reverse_iteratorIPcEES5_cvEET1_RT_T0_S9_S6_, symObjAddr: 0x23DD4, symBinAddr: 0x100049580, symSize: 0x78 }
  - { offsetInCU: 0x1D6E8, offset: 0xAEAF9, size: 0x8, addend: 0x0, symName: __ZNSt3__14swapB8ue170006IPcEENS_9enable_ifIXaasr21is_move_constructibleIT_EE5valuesr18is_move_assignableIS3_EE5valueEvE4typeERS3_S6_, symObjAddr: 0x23E98, symBinAddr: 0x100049644, symSize: 0x3C }
  - { offsetInCU: 0x1D741, offset: 0xAEB52, size: 0x8, addend: 0x0, symName: __ZNSt3__14moveB8ue170006INS_16reverse_iteratorIPcEES3_EET0_T_S5_S4_, symObjAddr: 0x23FC8, symBinAddr: 0x100049774, symSize: 0x78 }
  - { offsetInCU: 0x1D7A3, offset: 0xAEBB4, size: 0x8, addend: 0x0, symName: __ZNSt3__16__moveB8ue170006INS_17_ClassicAlgPolicyENS_16reverse_iteratorIPcEES4_S4_EENS_4pairIT0_T2_EES6_T1_S7_, symObjAddr: 0x24040, symBinAddr: 0x1000497EC, symSize: 0x64 }
  - { offsetInCU: 0x1D817, offset: 0xAEC28, size: 0x8, addend: 0x0, symName: __ZNSt3__123__dispatch_copy_or_moveB8ue170006INS_17_ClassicAlgPolicyENS_11__move_loopIS1_EENS_14__move_trivialENS_16reverse_iteratorIPcEES7_S7_EENS_4pairIT2_T4_EES9_T3_SA_, symObjAddr: 0x240A4, symBinAddr: 0x100049850, symSize: 0x64 }
  - { offsetInCU: 0x1D89D, offset: 0xAECAE, size: 0x8, addend: 0x0, symName: __ZNSt3__121__unwrap_and_dispatchB8ue170006INS_10__overloadINS_11__move_loopINS_17_ClassicAlgPolicyEEENS_14__move_trivialEEENS_16reverse_iteratorIPcEES9_S9_Li0EEENS_4pairIT0_T2_EESB_T1_SC_, symObjAddr: 0x24108, symBinAddr: 0x1000498B4, symSize: 0x12C }
  - { offsetInCU: 0x1D939, offset: 0xAED4A, size: 0x8, addend: 0x0, symName: __ZNSt3__114__unwrap_rangeB8ue170006INS_16reverse_iteratorIPcEES3_EENS_4pairIT0_S5_EET_S7_, symObjAddr: 0x24234, symBinAddr: 0x1000499E0, symSize: 0x84 }
  - { offsetInCU: 0x1DAC0, offset: 0xAEED1, size: 0x8, addend: 0x0, symName: __ZNSt3__113__unwrap_iterB8ue170006INS_16reverse_iteratorIPcEENS_18__unwrap_iter_implIS3_Lb0EEELi0EEEDTclsrT0_8__unwrapclsr3stdE7declvalIT_EEEES7_, symObjAddr: 0x24358, symBinAddr: 0x100049B04, symSize: 0x44 }
  - { offsetInCU: 0x1DB07, offset: 0xAEF18, size: 0x8, addend: 0x0, symName: __ZNSt3__19make_pairB8ue170006INS_16reverse_iteratorIPcEES3_EENS_4pairINS_18__unwrap_ref_decayIT_E4typeENS5_IT0_E4typeEEEOS6_OS9_, symObjAddr: 0x2439C, symBinAddr: 0x100049B48, symSize: 0x38 }
  - { offsetInCU: 0x1DB58, offset: 0xAEF69, size: 0x8, addend: 0x0, symName: __ZNSt3__114__rewrap_rangeB8ue170006INS_16reverse_iteratorIPcEES3_EET_S4_T0_, symObjAddr: 0x243D4, symBinAddr: 0x100049B80, symSize: 0x5C }
  - { offsetInCU: 0x1DBAA, offset: 0xAEFBB, size: 0x8, addend: 0x0, symName: __ZNSt3__113__rewrap_iterB8ue170006INS_16reverse_iteratorIPcEES3_NS_18__unwrap_iter_implIS3_Lb0EEEEET_S6_T0_, symObjAddr: 0x24430, symBinAddr: 0x100049BDC, symSize: 0x74 }
  - { offsetInCU: 0x1DC04, offset: 0xAF015, size: 0x8, addend: 0x0, symName: __ZNSt3__1neB8ue170006IPcS1_EEbRKNS_16reverse_iteratorIT_EERKNS2_IT0_EE, symObjAddr: 0x244A4, symBinAddr: 0x100049C50, symSize: 0x48 }
  - { offsetInCU: 0x1DD12, offset: 0xAF123, size: 0x8, addend: 0x0, symName: __ZNSt3__19make_pairB8ue170006IRN5boost4asio16buffers_iteratorINS2_15const_buffers_1EcEEbEENS_4pairINS_18__unwrap_ref_decayIT_E4typeENS8_IT0_E4typeEEEOS9_OSC_, symObjAddr: 0x26418, symBinAddr: 0x10004BAF4, symSize: 0x38 }
  - { offsetInCU: 0x1DE36, offset: 0xAF247, size: 0x8, addend: 0x0, symName: __ZNSt3__128__char_traits_length_checkedB8ue170006INS_11char_traitsIcEEEEmPKNT_9char_typeE, symObjAddr: 0x26E48, symBinAddr: 0x10004C524, symSize: 0x24 }
  - { offsetInCU: 0x1E864, offset: 0xAFC75, size: 0x8, addend: 0x0, symName: __ZNSt3__17find_ifB8ue170006INS_11__wrap_iterIPP10BaseButtonEEZNS2_19find_nearest_buttonERNS_6vectorIS3_NS_9allocatorIS3_EEEENS_12basic_stringIcNS_11char_traitsIcEENS7_IcEEEEEUlPKS2_E_EET_SJ_SJ_T0_, symObjAddr: 0x27F64, symBinAddr: 0x10004C7C8, symSize: 0x74 }
  - { offsetInCU: 0x1E9BC, offset: 0xAFDCD, size: 0x8, addend: 0x0, symName: __ZNSt3__118__cxx_atomic_storeB8ue170006IbEEvPNS_22__cxx_atomic_base_implIT_EES2_NS_12memory_orderE, symObjAddr: 0x29658, symBinAddr: 0x10004CA24, symSize: 0x90 }
  - { offsetInCU: 0x1FAB6, offset: 0xB0EC7, size: 0x8, addend: 0x0, symName: __ZN5boost4asio6detail16resolver_serviceINS0_2ip3tcpEE7resolveERNSt3__110shared_ptrIvEERKNS3_20basic_resolver_queryIS4_EERNS_6system10error_codeE, symObjAddr: 0x17CC8, symBinAddr: 0x10003E118, symSize: 0x298 }
  - { offsetInCU: 0x1FAD9, offset: 0xB0EEA, size: 0x8, addend: 0x0, symName: __ZZN5boost4asio6detail16resolver_serviceINS0_2ip3tcpEE7resolveERNSt3__110shared_ptrIvEERKNS3_20basic_resolver_queryIS4_EERNS_6system10error_codeEE3loc, symObjAddr: 0x2B918, symBinAddr: 0x1000AA678, symSize: 0x0 }
  - { offsetInCU: 0x1FB3A, offset: 0xB0F4B, size: 0x8, addend: 0x0, symName: __ZN5boost6system6detail18interop_cat_holderIvE8instanceE, symObjAddr: 0x2CF00, symBinAddr: 0x1000B0178, symSize: 0x0 }
  - { offsetInCU: 0x1FB57, offset: 0xB0F68, size: 0x8, addend: 0x0, symName: __ZNK5boost6system10error_code8locationEv, symObjAddr: 0x1B30C, symBinAddr: 0x100041348, symSize: 0x54 }
  - { offsetInCU: 0x1FB7C, offset: 0xB0F8D, size: 0x8, addend: 0x0, symName: __ZZNK5boost6system10error_code8locationEvE3loc, symObjAddr: 0x2BA48, symBinAddr: 0x1000AA7A8, symSize: 0x0 }
  - { offsetInCU: 0x1FB94, offset: 0xB0FA5, size: 0x8, addend: 0x0, symName: __ZN5boost4asio6detail23reactive_socket_serviceINS0_2ip3tcpEE4openERNS5_19implementation_typeERKS4_RNS_6system10error_codeE, symObjAddr: 0x2089C, symBinAddr: 0x1000462F0, symSize: 0xDC }
  - { offsetInCU: 0x1FBB7, offset: 0xB0FC8, size: 0x8, addend: 0x0, symName: __ZZN5boost4asio6detail23reactive_socket_serviceINS0_2ip3tcpEE4openERNS5_19implementation_typeERKS4_RNS_6system10error_codeEE3loc, symObjAddr: 0x2BB90, symBinAddr: 0x1000AA8F0, symSize: 0x0 }
  - { offsetInCU: 0x1FBF9, offset: 0xB100A, size: 0x8, addend: 0x0, symName: __ZN5boost4asio6detail23reactive_socket_serviceINS0_2ip3tcpEE7connectERNS5_19implementation_typeERKNS3_14basic_endpointIS4_EERNS_6system10error_codeE, symObjAddr: 0x20978, symBinAddr: 0x1000463CC, symSize: 0x94 }
  - { offsetInCU: 0x1FC1E, offset: 0xB102F, size: 0x8, addend: 0x0, symName: __ZZN5boost4asio6detail23reactive_socket_serviceINS0_2ip3tcpEE7connectERNS5_19implementation_typeERKNS3_14basic_endpointIS4_EERNS_6system10error_codeEE3loc, symObjAddr: 0x2BBA8, symBinAddr: 0x1000AA908, symSize: 0x0 }
  - { offsetInCU: 0x212AF, offset: 0xB26C0, size: 0x8, addend: 0x0, symName: __ZNSt3__16vectorIN5boost4asio2ip20basic_resolver_entryINS3_3tcpEEENS_9allocatorIS6_EEE26__swap_out_circular_bufferERNS_14__split_bufferIS6_RS8_EE, symObjAddr: 0x1CB00, symBinAddr: 0x100042B08, symSize: 0x110 }
  - { offsetInCU: 0x21343, offset: 0xB2754, size: 0x8, addend: 0x0, symName: __ZNSt3__16vectorIcNS_9allocatorIcEEE26__swap_out_circular_bufferERNS_14__split_bufferIcRS2_EE, symObjAddr: 0x23520, symBinAddr: 0x100048DC4, symSize: 0x110 }
  - { offsetInCU: 0x21FCC, offset: 0xB33DD, size: 0x8, addend: 0x0, symName: __Z7isdigiti, symObjAddr: 0x18BC4, symBinAddr: 0x10003EE7C, symSize: 0x28 }
  - { offsetInCU: 0x23A8A, offset: 0xB4E9B, size: 0x8, addend: 0x0, symName: __Z23handle_controller_added9SDL_Event, symObjAddr: 0x38, symBinAddr: 0x1000283F0, symSize: 0x3A4 }
  - { offsetInCU: 0x23BC9, offset: 0xB4FDA, size: 0x8, addend: 0x0, symName: __Z25handle_controller_removed9SDL_Event, symObjAddr: 0x5EC, symBinAddr: 0x100028794, symSize: 0x168 }
  - { offsetInCU: 0x23C69, offset: 0xB507A, size: 0x8, addend: 0x0, symName: __Z20handle_mouse_scene_1RKiS0_, symObjAddr: 0x754, symBinAddr: 0x1000288FC, symSize: 0x33C }
  - { offsetInCU: 0x23CF8, offset: 0xB5109, size: 0x8, addend: 0x0, symName: __ZN10BaseButton10is_clickedER9SDL_Point, symObjAddr: 0xA90, symBinAddr: 0x100028C38, symSize: 0x110 }
  - { offsetInCU: 0x23D55, offset: 0xB5166, size: 0x8, addend: 0x0, symName: __Z20handle_mouse_scene_2RKiS0_b, symObjAddr: 0xBA0, symBinAddr: 0x100028D48, symSize: 0xAD4 }
  - { offsetInCU: 0x23F36, offset: 0xB5347, size: 0x8, addend: 0x0, symName: __ZN10BaseButton13set_font_sizeEP9_TTF_Fonti, symObjAddr: 0x1720, symBinAddr: 0x10002981C, symSize: 0xC4 }
  - { offsetInCU: 0x23F7A, offset: 0xB538B, size: 0x8, addend: 0x0, symName: __ZN10BaseButton11set_clickedEb, symObjAddr: 0x1928, symBinAddr: 0x1000298E0, symSize: 0x2C }
  - { offsetInCU: 0x24004, offset: 0xB5415, size: 0x8, addend: 0x0, symName: __ZNSt3__16atomicIbEaSB8ue170006Eb, symObjAddr: 0x1954, symBinAddr: 0x10002990C, symSize: 0x44 }
  - { offsetInCU: 0x24038, offset: 0xB5449, size: 0x8, addend: 0x0, symName: __Z20handle_mouse_scene_3RKiS0_, symObjAddr: 0x1998, symBinAddr: 0x100029950, symSize: 0x16C }
  - { offsetInCU: 0x24082, offset: 0xB5493, size: 0x8, addend: 0x0, symName: __Z20handle_mouse_scene_4RKiS0_, symObjAddr: 0x1B04, symBinAddr: 0x100029ABC, symSize: 0x190 }
  - { offsetInCU: 0x24461, offset: 0xB5872, size: 0x8, addend: 0x0, symName: __Z20handle_mouse_scene_5RKiS0_, symObjAddr: 0x1D00, symBinAddr: 0x100029C4C, symSize: 0x148 }
  - { offsetInCU: 0x244AB, offset: 0xB58BC, size: 0x8, addend: 0x0, symName: __Z20handle_mouse_scene_6RKiS0_, symObjAddr: 0x1E48, symBinAddr: 0x100029D94, symSize: 0x84 }
  - { offsetInCU: 0x244F5, offset: 0xB5906, size: 0x8, addend: 0x0, symName: __Z20handle_mouse_scene_7RKiS0_, symObjAddr: 0x1ECC, symBinAddr: 0x100029E18, symSize: 0x120 }
  - { offsetInCU: 0x2453F, offset: 0xB5950, size: 0x8, addend: 0x0, symName: __Z20handle_mouse_scene_8RKiS0_, symObjAddr: 0x1FEC, symBinAddr: 0x100029F38, symSize: 0x18C }
  - { offsetInCU: 0x24589, offset: 0xB599A, size: 0x8, addend: 0x0, symName: __Z20handle_mouse_scene_9RKiS0_, symObjAddr: 0x2178, symBinAddr: 0x10002A0C4, symSize: 0x3A4 }
  - { offsetInCU: 0x24B11, offset: 0xB5F22, size: 0x8, addend: 0x0, symName: __ZN15WebserverClient14create_accountENSt3__112basic_stringIcNS0_11char_traitsIcEENS0_9allocatorIcEEEES6_S6_, symObjAddr: 0x251C, symBinAddr: 0x10002A468, symSize: 0x810 }
  - { offsetInCU: 0x24C46, offset: 0xB6057, size: 0x8, addend: 0x0, symName: __Z21handle_mouse_scene_10RKiS0_, symObjAddr: 0x2D2C, symBinAddr: 0x10002AC78, symSize: 0x1C4 }
  - { offsetInCU: 0x24C90, offset: 0xB60A1, size: 0x8, addend: 0x0, symName: __Z21handle_mouse_scene_11RKiS0_, symObjAddr: 0x2EF0, symBinAddr: 0x10002AE3C, symSize: 0x1F4 }
  - { offsetInCU: 0x24CDA, offset: 0xB60EB, size: 0x8, addend: 0x0, symName: __Z21handle_mouse_scene_12RKiS0_, symObjAddr: 0x30E4, symBinAddr: 0x10002B030, symSize: 0x104 }
  - { offsetInCU: 0x24D24, offset: 0xB6135, size: 0x8, addend: 0x0, symName: __Z21handle_mouse_scene_13RKiS0_, symObjAddr: 0x31E8, symBinAddr: 0x10002B134, symSize: 0xC4 }
  - { offsetInCU: 0x24D6E, offset: 0xB617F, size: 0x8, addend: 0x0, symName: __Z21handle_mouse_scene_14RKiS0_, symObjAddr: 0x32AC, symBinAddr: 0x10002B1F8, symSize: 0x84 }
  - { offsetInCU: 0x24DB8, offset: 0xB61C9, size: 0x8, addend: 0x0, symName: __Z21handle_mouse_scene_15RKiS0_, symObjAddr: 0x3330, symBinAddr: 0x10002B27C, symSize: 0xD8 }
  - { offsetInCU: 0x24E02, offset: 0xB6213, size: 0x8, addend: 0x0, symName: __Z21handle_mouse_scene_16RKiS0_, symObjAddr: 0x3570, symBinAddr: 0x10002B354, symSize: 0x84 }
  - { offsetInCU: 0x24E4C, offset: 0xB625D, size: 0x8, addend: 0x0, symName: __Z21handle_mouse_scene_17RKiS0_, symObjAddr: 0x35F4, symBinAddr: 0x10002B3D8, symSize: 0x84 }
  - { offsetInCU: 0x24E96, offset: 0xB62A7, size: 0x8, addend: 0x0, symName: __Z21handle_mouse_scene_18RKiS0_, symObjAddr: 0x3678, symBinAddr: 0x10002B45C, symSize: 0x84 }
  - { offsetInCU: 0x24EE0, offset: 0xB62F1, size: 0x8, addend: 0x0, symName: __Z21handle_mouse_scene_19RKiS0_, symObjAddr: 0x36FC, symBinAddr: 0x10002B4E0, symSize: 0x84 }
  - { offsetInCU: 0x24F2A, offset: 0xB633B, size: 0x8, addend: 0x0, symName: __Z21handle_mouse_scene_20RKiS0_, symObjAddr: 0x3780, symBinAddr: 0x10002B564, symSize: 0x84 }
  - { offsetInCU: 0x24F74, offset: 0xB6385, size: 0x8, addend: 0x0, symName: __Z21handle_mouse_scene_21RKiS0_, symObjAddr: 0x3804, symBinAddr: 0x10002B5E8, symSize: 0x84 }
  - { offsetInCU: 0x24FBE, offset: 0xB63CF, size: 0x8, addend: 0x0, symName: __Z21handle_mouse_scene_22RKiS0_, symObjAddr: 0x3888, symBinAddr: 0x10002B66C, symSize: 0x84 }
  - { offsetInCU: 0x25008, offset: 0xB6419, size: 0x8, addend: 0x0, symName: __Z21handle_mouse_scene_23RKiS0_, symObjAddr: 0x390C, symBinAddr: 0x10002B6F0, symSize: 0x84 }
  - { offsetInCU: 0x25052, offset: 0xB6463, size: 0x8, addend: 0x0, symName: __Z21handle_mouse_scene_24RKiS0_, symObjAddr: 0x3990, symBinAddr: 0x10002B774, symSize: 0x84 }
  - { offsetInCU: 0x2509C, offset: 0xB64AD, size: 0x8, addend: 0x0, symName: __Z21handle_mouse_scene_25RKiS0_, symObjAddr: 0x3A14, symBinAddr: 0x10002B7F8, symSize: 0x84 }
  - { offsetInCU: 0x250E6, offset: 0xB64F7, size: 0x8, addend: 0x0, symName: __Z21handle_mouse_scene_26RKiS0_, symObjAddr: 0x3A98, symBinAddr: 0x10002B87C, symSize: 0x84 }
  - { offsetInCU: 0x25130, offset: 0xB6541, size: 0x8, addend: 0x0, symName: __Z21handle_mouse_scene_27RKiS0_, symObjAddr: 0x3B1C, symBinAddr: 0x10002B900, symSize: 0x17C }
  - { offsetInCU: 0x2517A, offset: 0xB658B, size: 0x8, addend: 0x0, symName: __Z21handle_mouse_scene_28RKiS0_, symObjAddr: 0x3C98, symBinAddr: 0x10002BA7C, symSize: 0x84 }
  - { offsetInCU: 0x251C4, offset: 0xB65D5, size: 0x8, addend: 0x0, symName: __Z21handle_mouse_scene_29RKiS0_, symObjAddr: 0x3D1C, symBinAddr: 0x10002BB00, symSize: 0x84 }
  - { offsetInCU: 0x2520E, offset: 0xB661F, size: 0x8, addend: 0x0, symName: __Z21handle_mouse_scene_30RKiS0_, symObjAddr: 0x3DA0, symBinAddr: 0x10002BB84, symSize: 0x84 }
  - { offsetInCU: 0x25258, offset: 0xB6669, size: 0x8, addend: 0x0, symName: __Z21handle_mouse_scene_31RKiS0_, symObjAddr: 0x3E24, symBinAddr: 0x10002BC08, symSize: 0x84 }
  - { offsetInCU: 0x252A2, offset: 0xB66B3, size: 0x8, addend: 0x0, symName: __Z27handle_mouse_scene_gameplayRKiS0_, symObjAddr: 0x3EA8, symBinAddr: 0x10002BC8C, symSize: 0x754 }
  - { offsetInCU: 0x2534A, offset: 0xB675B, size: 0x8, addend: 0x0, symName: __ZN15WebserverClient20POST_player_movementEiiiRKNSt3__112basic_stringIcNS0_11char_traitsIcEENS0_9allocatorIcEEEER13WebserverHost, symObjAddr: 0x45FC, symBinAddr: 0x10002C3E0, symSize: 0x48 }
  - { offsetInCU: 0x253BB, offset: 0xB67CC, size: 0x8, addend: 0x0, symName: __ZNK6Entity13get_xVelocityEv, symObjAddr: 0x4644, symBinAddr: 0x10002C428, symSize: 0x18 }
  - { offsetInCU: 0x253E1, offset: 0xB67F2, size: 0x8, addend: 0x0, symName: __ZNK6Entity13get_yVelocityEv, symObjAddr: 0x465C, symBinAddr: 0x10002C440, symSize: 0x18 }
  - { offsetInCU: 0x25407, offset: 0xB6818, size: 0x8, addend: 0x0, symName: __ZNK6Entity16get_accelerationEv, symObjAddr: 0x4674, symBinAddr: 0x10002C458, symSize: 0x18 }
  - { offsetInCU: 0x2542D, offset: 0xB683E, size: 0x8, addend: 0x0, symName: __ZN6Entity12set_velocityEff, symObjAddr: 0x468C, symBinAddr: 0x10002C470, symSize: 0x2C }
  - { offsetInCU: 0x25471, offset: 0xB6882, size: 0x8, addend: 0x0, symName: __Z23handle_keyboard_scene_1RK9SDL_Event, symObjAddr: 0x46B8, symBinAddr: 0x10002C49C, symSize: 0x5CC }
  - { offsetInCU: 0x2549C, offset: 0xB68AD, size: 0x8, addend: 0x0, symName: __ZN10BaseButton19find_nearest_buttonERNSt3__16vectorIPS_NS0_9allocatorIS2_EEEENS0_12basic_stringIcNS0_11char_traitsIcEENS3_IcEEEE, symObjAddr: 0x4C84, symBinAddr: 0x10002CA68, symSize: 0x6C0 }
  - { offsetInCU: 0x2563A, offset: 0xB6A4B, size: 0x8, addend: 0x0, symName: __Z23handle_keyboard_scene_2RK9SDL_Eventb, symObjAddr: 0x5360, symBinAddr: 0x10002D128, symSize: 0xEAC }
  - { offsetInCU: 0x25809, offset: 0xB6C1A, size: 0x8, addend: 0x0, symName: __Z23handle_keyboard_scene_3RK9SDL_Event, symObjAddr: 0x620C, symBinAddr: 0x10002DFD4, symSize: 0x428 }
  - { offsetInCU: 0x25834, offset: 0xB6C45, size: 0x8, addend: 0x0, symName: __Z23handle_keyboard_scene_4RK9SDL_Event, symObjAddr: 0x6634, symBinAddr: 0x10002E3FC, symSize: 0x490 }
  - { offsetInCU: 0x2585F, offset: 0xB6C70, size: 0x8, addend: 0x0, symName: __ZN11InputButton21remove_last_characterEv, symObjAddr: 0x6AC4, symBinAddr: 0x10002E88C, symSize: 0x44 }
  - { offsetInCU: 0x25885, offset: 0xB6C96, size: 0x8, addend: 0x0, symName: __Z23handle_keyboard_scene_5RK9SDL_Event, symObjAddr: 0x6B08, symBinAddr: 0x10002E8D0, symSize: 0x40C }
  - { offsetInCU: 0x258B0, offset: 0xB6CC1, size: 0x8, addend: 0x0, symName: __Z23handle_keyboard_scene_6RK9SDL_Event, symObjAddr: 0x6F14, symBinAddr: 0x10002ECDC, symSize: 0x358 }
  - { offsetInCU: 0x258DB, offset: 0xB6CEC, size: 0x8, addend: 0x0, symName: __Z23handle_keyboard_scene_7RK9SDL_Event, symObjAddr: 0x726C, symBinAddr: 0x10002F034, symSize: 0x3C8 }
  - { offsetInCU: 0x25906, offset: 0xB6D17, size: 0x8, addend: 0x0, symName: __Z23handle_keyboard_scene_8RK9SDL_Event, symObjAddr: 0x7634, symBinAddr: 0x10002F3FC, symSize: 0x448 }
  - { offsetInCU: 0x25931, offset: 0xB6D42, size: 0x8, addend: 0x0, symName: __Z23handle_keyboard_scene_9RK9SDL_Event, symObjAddr: 0x7A7C, symBinAddr: 0x10002F844, symSize: 0x658 }
  - { offsetInCU: 0x2595C, offset: 0xB6D6D, size: 0x8, addend: 0x0, symName: __Z24handle_keyboard_scene_10RK9SDL_Event, symObjAddr: 0x80D4, symBinAddr: 0x10002FE9C, symSize: 0x47C }
  - { offsetInCU: 0x25987, offset: 0xB6D98, size: 0x8, addend: 0x0, symName: __Z24handle_keyboard_scene_11RK9SDL_Event, symObjAddr: 0x8550, symBinAddr: 0x100030318, symSize: 0x4A8 }
  - { offsetInCU: 0x259B2, offset: 0xB6DC3, size: 0x8, addend: 0x0, symName: __Z24handle_keyboard_scene_12RK9SDL_Event, symObjAddr: 0x89F8, symBinAddr: 0x1000307C0, symSize: 0x3C8 }
  - { offsetInCU: 0x259DD, offset: 0xB6DEE, size: 0x8, addend: 0x0, symName: __Z24handle_keyboard_scene_13RK9SDL_Event, symObjAddr: 0x8DC0, symBinAddr: 0x100030B88, symSize: 0x390 }
  - { offsetInCU: 0x25A08, offset: 0xB6E19, size: 0x8, addend: 0x0, symName: __Z24handle_keyboard_scene_14RK9SDL_Event, symObjAddr: 0x9150, symBinAddr: 0x100030F18, symSize: 0x358 }
  - { offsetInCU: 0x25A33, offset: 0xB6E44, size: 0x8, addend: 0x0, symName: __Z24handle_keyboard_scene_15RK9SDL_Event, symObjAddr: 0x94A8, symBinAddr: 0x100031270, symSize: 0x3A4 }
  - { offsetInCU: 0x25A5E, offset: 0xB6E6F, size: 0x8, addend: 0x0, symName: __Z24handle_keyboard_scene_16RK9SDL_Event, symObjAddr: 0x984C, symBinAddr: 0x100031614, symSize: 0x358 }
  - { offsetInCU: 0x25A89, offset: 0xB6E9A, size: 0x8, addend: 0x0, symName: __Z24handle_keyboard_scene_17RK9SDL_Event, symObjAddr: 0x9BA4, symBinAddr: 0x10003196C, symSize: 0x358 }
  - { offsetInCU: 0x25AB4, offset: 0xB6EC5, size: 0x8, addend: 0x0, symName: __Z24handle_keyboard_scene_18RK9SDL_Event, symObjAddr: 0x9EFC, symBinAddr: 0x100031CC4, symSize: 0x358 }
  - { offsetInCU: 0x25ADF, offset: 0xB6EF0, size: 0x8, addend: 0x0, symName: __Z24handle_keyboard_scene_19RK9SDL_Event, symObjAddr: 0xA254, symBinAddr: 0x10003201C, symSize: 0x358 }
  - { offsetInCU: 0x25B0A, offset: 0xB6F1B, size: 0x8, addend: 0x0, symName: __Z24handle_keyboard_scene_20RK9SDL_Event, symObjAddr: 0xA5AC, symBinAddr: 0x100032374, symSize: 0x358 }
  - { offsetInCU: 0x25B35, offset: 0xB6F46, size: 0x8, addend: 0x0, symName: __Z24handle_keyboard_scene_21RK9SDL_Event, symObjAddr: 0xA904, symBinAddr: 0x1000326CC, symSize: 0x358 }
  - { offsetInCU: 0x25B60, offset: 0xB6F71, size: 0x8, addend: 0x0, symName: __Z24handle_keyboard_scene_22RK9SDL_Event, symObjAddr: 0xAC5C, symBinAddr: 0x100032A24, symSize: 0x358 }
  - { offsetInCU: 0x25B8B, offset: 0xB6F9C, size: 0x8, addend: 0x0, symName: __Z24handle_keyboard_scene_23RK9SDL_Event, symObjAddr: 0xAFB4, symBinAddr: 0x100032D7C, symSize: 0x358 }
  - { offsetInCU: 0x25BB6, offset: 0xB6FC7, size: 0x8, addend: 0x0, symName: __Z24handle_keyboard_scene_24RK9SDL_Event, symObjAddr: 0xB30C, symBinAddr: 0x1000330D4, symSize: 0x358 }
  - { offsetInCU: 0x25BE1, offset: 0xB6FF2, size: 0x8, addend: 0x0, symName: __Z24handle_keyboard_scene_25RK9SDL_Event, symObjAddr: 0xB664, symBinAddr: 0x10003342C, symSize: 0x358 }
  - { offsetInCU: 0x25C0C, offset: 0xB701D, size: 0x8, addend: 0x0, symName: __Z24handle_keyboard_scene_26RK9SDL_Event, symObjAddr: 0xB9BC, symBinAddr: 0x100033784, symSize: 0x358 }
  - { offsetInCU: 0x25C37, offset: 0xB7048, size: 0x8, addend: 0x0, symName: __Z24handle_keyboard_scene_27RK9SDL_Event, symObjAddr: 0xBD14, symBinAddr: 0x100033ADC, symSize: 0x438 }
  - { offsetInCU: 0x25C62, offset: 0xB7073, size: 0x8, addend: 0x0, symName: __Z24handle_keyboard_scene_28RK9SDL_Event, symObjAddr: 0xC14C, symBinAddr: 0x100033F14, symSize: 0x358 }
  - { offsetInCU: 0x25C8D, offset: 0xB709E, size: 0x8, addend: 0x0, symName: __Z24handle_keyboard_scene_29RK9SDL_Event, symObjAddr: 0xC4A4, symBinAddr: 0x10003426C, symSize: 0x358 }
  - { offsetInCU: 0x25CB8, offset: 0xB70C9, size: 0x8, addend: 0x0, symName: __Z24handle_keyboard_scene_30RK9SDL_Event, symObjAddr: 0xC7FC, symBinAddr: 0x1000345C4, symSize: 0x358 }
  - { offsetInCU: 0x25CE3, offset: 0xB70F4, size: 0x8, addend: 0x0, symName: __Z24handle_keyboard_scene_31RK9SDL_Event, symObjAddr: 0xCB54, symBinAddr: 0x10003491C, symSize: 0x358 }
  - { offsetInCU: 0x25D0E, offset: 0xB711F, size: 0x8, addend: 0x0, symName: __Z30handle_keyboard_scene_gameplayRK9SDL_Eventb, symObjAddr: 0xCEAC, symBinAddr: 0x100034C74, symSize: 0x888 }
  - { offsetInCU: 0x25DA5, offset: 0xB71B6, size: 0x8, addend: 0x0, symName: __Z22handle_gamepad_scene_1RKi, symObjAddr: 0xD744, symBinAddr: 0x10003550C, symSize: 0x594 }
  - { offsetInCU: 0x25DD0, offset: 0xB71E1, size: 0x8, addend: 0x0, symName: __Z22handle_gamepad_scene_2RKib, symObjAddr: 0xDD14, symBinAddr: 0x100035ADC, symSize: 0xEC4 }
  - { offsetInCU: 0x25F9F, offset: 0xB73B0, size: 0x8, addend: 0x0, symName: __Z22handle_gamepad_scene_3RKi, symObjAddr: 0xEC14, symBinAddr: 0x1000369DC, symSize: 0x3C0 }
  - { offsetInCU: 0x25FCA, offset: 0xB73DB, size: 0x8, addend: 0x0, symName: __Z22handle_gamepad_scene_4RKi, symObjAddr: 0xF010, symBinAddr: 0x100036DD8, symSize: 0x430 }
  - { offsetInCU: 0x25FF5, offset: 0xB7406, size: 0x8, addend: 0x0, symName: __Z22handle_gamepad_scene_5RKi, symObjAddr: 0xF47C, symBinAddr: 0x100037244, symSize: 0x3A4 }
  - { offsetInCU: 0x26020, offset: 0xB7431, size: 0x8, addend: 0x0, symName: __Z22handle_gamepad_scene_6RKi, symObjAddr: 0xF85C, symBinAddr: 0x100037624, symSize: 0x2F0 }
  - { offsetInCU: 0x2604B, offset: 0xB745C, size: 0x8, addend: 0x0, symName: __Z22handle_gamepad_scene_7RKi, symObjAddr: 0xFB88, symBinAddr: 0x100037950, symSize: 0x360 }
  - { offsetInCU: 0x26076, offset: 0xB7487, size: 0x8, addend: 0x0, symName: __Z22handle_gamepad_scene_8RKi, symObjAddr: 0xFF24, symBinAddr: 0x100037CEC, symSize: 0x3E0 }
  - { offsetInCU: 0x260A1, offset: 0xB74B2, size: 0x8, addend: 0x0, symName: __Z22handle_gamepad_scene_9RKi, symObjAddr: 0x10340, symBinAddr: 0x100038108, symSize: 0x5F0 }
  - { offsetInCU: 0x260CC, offset: 0xB74DD, size: 0x8, addend: 0x0, symName: __Z23handle_gamepad_scene_10RKi, symObjAddr: 0x1096C, symBinAddr: 0x100038734, symSize: 0x414 }
  - { offsetInCU: 0x260F7, offset: 0xB7508, size: 0x8, addend: 0x0, symName: __Z23handle_gamepad_scene_11RKi, symObjAddr: 0x10DBC, symBinAddr: 0x100038B84, symSize: 0x440 }
  - { offsetInCU: 0x26122, offset: 0xB7533, size: 0x8, addend: 0x0, symName: __Z23handle_gamepad_scene_12RKi, symObjAddr: 0x11238, symBinAddr: 0x100039000, symSize: 0x360 }
  - { offsetInCU: 0x2614D, offset: 0xB755E, size: 0x8, addend: 0x0, symName: __Z23handle_gamepad_scene_13RKi, symObjAddr: 0x115D4, symBinAddr: 0x10003939C, symSize: 0x328 }
  - { offsetInCU: 0x26178, offset: 0xB7589, size: 0x8, addend: 0x0, symName: __Z23handle_gamepad_scene_14RKi, symObjAddr: 0x11938, symBinAddr: 0x100039700, symSize: 0x2F0 }
  - { offsetInCU: 0x261A3, offset: 0xB75B4, size: 0x8, addend: 0x0, symName: __Z23handle_gamepad_scene_15RKi, symObjAddr: 0x11C64, symBinAddr: 0x100039A2C, symSize: 0x33C }
  - { offsetInCU: 0x261CE, offset: 0xB75DF, size: 0x8, addend: 0x0, symName: __Z23handle_gamepad_scene_16RKi, symObjAddr: 0x11FDC, symBinAddr: 0x100039DA4, symSize: 0x2F0 }
  - { offsetInCU: 0x261F9, offset: 0xB760A, size: 0x8, addend: 0x0, symName: __Z23handle_gamepad_scene_17RKi, symObjAddr: 0x12308, symBinAddr: 0x10003A0D0, symSize: 0x2F0 }
  - { offsetInCU: 0x26224, offset: 0xB7635, size: 0x8, addend: 0x0, symName: __Z23handle_gamepad_scene_18RKi, symObjAddr: 0x12634, symBinAddr: 0x10003A3FC, symSize: 0x2F0 }
  - { offsetInCU: 0x2624F, offset: 0xB7660, size: 0x8, addend: 0x0, symName: __Z23handle_gamepad_scene_19RKi, symObjAddr: 0x12960, symBinAddr: 0x10003A728, symSize: 0x2F0 }
  - { offsetInCU: 0x2627A, offset: 0xB768B, size: 0x8, addend: 0x0, symName: __Z23handle_gamepad_scene_20RKi, symObjAddr: 0x12C8C, symBinAddr: 0x10003AA54, symSize: 0x2F0 }
  - { offsetInCU: 0x262A5, offset: 0xB76B6, size: 0x8, addend: 0x0, symName: __Z23handle_gamepad_scene_21RKi, symObjAddr: 0x12FB8, symBinAddr: 0x10003AD80, symSize: 0x2F0 }
  - { offsetInCU: 0x262D0, offset: 0xB76E1, size: 0x8, addend: 0x0, symName: __Z23handle_gamepad_scene_22RKi, symObjAddr: 0x132E4, symBinAddr: 0x10003B0AC, symSize: 0x2F0 }
  - { offsetInCU: 0x262FB, offset: 0xB770C, size: 0x8, addend: 0x0, symName: __Z23handle_gamepad_scene_23RKi, symObjAddr: 0x13610, symBinAddr: 0x10003B3D8, symSize: 0x2F0 }
  - { offsetInCU: 0x26326, offset: 0xB7737, size: 0x8, addend: 0x0, symName: __Z23handle_gamepad_scene_24RKi, symObjAddr: 0x1393C, symBinAddr: 0x10003B704, symSize: 0x2F0 }
  - { offsetInCU: 0x26351, offset: 0xB7762, size: 0x8, addend: 0x0, symName: __Z23handle_gamepad_scene_25RKi, symObjAddr: 0x13C68, symBinAddr: 0x10003BA30, symSize: 0x2F0 }
  - { offsetInCU: 0x2637C, offset: 0xB778D, size: 0x8, addend: 0x0, symName: __Z23handle_gamepad_scene_26RKi, symObjAddr: 0x13F94, symBinAddr: 0x10003BD5C, symSize: 0x2F0 }
  - { offsetInCU: 0x263A7, offset: 0xB77B8, size: 0x8, addend: 0x0, symName: __Z23handle_gamepad_scene_27RKi, symObjAddr: 0x142C0, symBinAddr: 0x10003C088, symSize: 0x3D0 }
  - { offsetInCU: 0x263D2, offset: 0xB77E3, size: 0x8, addend: 0x0, symName: __Z23handle_gamepad_scene_28RKi, symObjAddr: 0x146CC, symBinAddr: 0x10003C494, symSize: 0x2F0 }
  - { offsetInCU: 0x263FD, offset: 0xB780E, size: 0x8, addend: 0x0, symName: __Z23handle_gamepad_scene_29RKi, symObjAddr: 0x149F8, symBinAddr: 0x10003C7C0, symSize: 0x2F0 }
  - { offsetInCU: 0x26428, offset: 0xB7839, size: 0x8, addend: 0x0, symName: __Z23handle_gamepad_scene_30RKi, symObjAddr: 0x14D24, symBinAddr: 0x10003CAEC, symSize: 0x2F0 }
  - { offsetInCU: 0x26453, offset: 0xB7864, size: 0x8, addend: 0x0, symName: __Z23handle_gamepad_scene_31RKi, symObjAddr: 0x15050, symBinAddr: 0x10003CE18, symSize: 0x2F0 }
  - { offsetInCU: 0x2647E, offset: 0xB788F, size: 0x8, addend: 0x0, symName: __Z29handle_gamepad_scene_gameplayRKib, symObjAddr: 0x1537C, symBinAddr: 0x10003D144, symSize: 0x834 }
  - { offsetInCU: 0x26515, offset: 0xB7926, size: 0x8, addend: 0x0, symName: __ZN10BaseButton12set_selectedEv, symObjAddr: 0x16D64, symBinAddr: 0x10003D9C4, symSize: 0x5C }
  - { offsetInCU: 0x2653B, offset: 0xB794C, size: 0x8, addend: 0x0, symName: __ZN5boost4asio2ip14basic_resolverINS1_3tcpENS0_15any_io_executorEE7resolveENSt3__117basic_string_viewIcNS6_11char_traitsIcEEEESA_, symObjAddr: 0x16EC4, symBinAddr: 0x10003DA20, symSize: 0x60 }
  - { offsetInCU: 0x2657F, offset: 0xB7990, size: 0x8, addend: 0x0, symName: __ZNKSt3__112basic_stringIcNS_11char_traitsIcEENS_9allocatorIcEEEcvNS_17basic_string_viewIcS2_EEB8ue170006Ev, symObjAddr: 0x16F24, symBinAddr: 0x10003DA80, symSize: 0x50 }
  - { offsetInCU: 0x265A5, offset: 0xB79B6, size: 0x8, addend: 0x0, symName: __ZN5boost4asio15basic_streambufINSt3__19allocatorIcEEEC1EmRKS4_, symObjAddr: 0x17188, symBinAddr: 0x10003DC28, symSize: 0x3C }
  - { offsetInCU: 0x265EB, offset: 0xB79FC, size: 0x8, addend: 0x0, symName: __ZNSt3__117basic_string_viewIcNS_11char_traitsIcEEEC1B8ue170006EPKc, symObjAddr: 0x17228, symBinAddr: 0x10003DCC8, symSize: 0x34 }
  - { offsetInCU: 0x2669C, offset: 0xB7AAD, size: 0x8, addend: 0x0, symName: __ZNSt3__113basic_istreamIcNS_11char_traitsIcEEEC1B8ue170006EPNS_15basic_streambufIcS2_EE, symObjAddr: 0x1725C, symBinAddr: 0x10003DCFC, symSize: 0xA0 }
  - { offsetInCU: 0x266D6, offset: 0xB7AE7, size: 0x8, addend: 0x0, symName: __ZN5boost4asio12basic_socketINS0_2ip3tcpENS0_15any_io_executorEE5closeEv, symObjAddr: 0x17804, symBinAddr: 0x10003DDD0, symSize: 0x98 }
  - { offsetInCU: 0x2670C, offset: 0xB7B1D, size: 0x8, addend: 0x0, symName: __ZN5boost4asio15basic_streambufINSt3__19allocatorIcEEED1Ev, symObjAddr: 0x1789C, symBinAddr: 0x10003DE68, symSize: 0x2C }
  - { offsetInCU: 0x26738, offset: 0xB7B49, size: 0x8, addend: 0x0, symName: __ZN5boost4asio2ip22basic_resolver_resultsINS1_3tcpEED1Ev, symObjAddr: 0x178C8, symBinAddr: 0x10003DE94, symSize: 0x2C }
  - { offsetInCU: 0x26764, offset: 0xB7B75, size: 0x8, addend: 0x0, symName: __ZN5boost4asio2ip14basic_resolverINS1_3tcpENS0_15any_io_executorEE7resolveENSt3__117basic_string_viewIcNS6_11char_traitsIcEEEESA_NS1_13resolver_base5flagsE, symObjAddr: 0x17A3C, symBinAddr: 0x10003DEC0, symSize: 0x1D0 }
  - { offsetInCU: 0x267EB, offset: 0xB7BFC, size: 0x8, addend: 0x0, symName: __ZN5boost6system10error_codeC1Ev, symObjAddr: 0x17C0C, symBinAddr: 0x10003E090, symSize: 0x2C }
  - { offsetInCU: 0x26815, offset: 0xB7C26, size: 0x8, addend: 0x0, symName: __ZN5boost4asio2ip20basic_resolver_queryINS1_3tcpEEC1ERKNSt3__112basic_stringIcNS5_11char_traitsIcEENS5_9allocatorIcEEEESD_NS1_13resolver_base5flagsE, symObjAddr: 0x17C6C, symBinAddr: 0x10003E0BC, symSize: 0x44 }
  - { offsetInCU: 0x26869, offset: 0xB7C7A, size: 0x8, addend: 0x0, symName: __ZN5boost4asio6detail14io_object_implINS1_16resolver_serviceINS0_2ip3tcpEEENS0_15any_io_executorEE11get_serviceEv, symObjAddr: 0x17CB0, symBinAddr: 0x10003E100, symSize: 0x18 }
  - { offsetInCU: 0x2688F, offset: 0xB7CA0, size: 0x8, addend: 0x0, symName: __ZN5boost4asio6detail14io_object_implINS1_16resolver_serviceINS0_2ip3tcpEEENS0_15any_io_executorEE18get_implementationEv, symObjAddr: 0x17F60, symBinAddr: 0x10003E3B0, symSize: 0x18 }
  - { offsetInCU: 0x268B5, offset: 0xB7CC6, size: 0x8, addend: 0x0, symName: __ZN5boost15source_locationC1EPKcjS2_j, symObjAddr: 0x17FC0, symBinAddr: 0x10003E410, symSize: 0x4C }
  - { offsetInCU: 0x26917, offset: 0xB7D28, size: 0x8, addend: 0x0, symName: __ZN5boost4asio2ip20basic_resolver_queryINS1_3tcpEED1Ev, symObjAddr: 0x1800C, symBinAddr: 0x10003E45C, symSize: 0x2C }
  - { offsetInCU: 0x26943, offset: 0xB7D54, size: 0x8, addend: 0x0, symName: __ZN5boost6system10error_codeC2Ev, symObjAddr: 0x18038, symBinAddr: 0x10003E488, symSize: 0x20 }
  - { offsetInCU: 0x26973, offset: 0xB7D84, size: 0x8, addend: 0x0, symName: __ZN5boost4asio2ip20basic_resolver_queryINS1_3tcpEEC2ERKNSt3__112basic_stringIcNS5_11char_traitsIcEENS5_9allocatorIcEEEESD_NS1_13resolver_base5flagsE, symObjAddr: 0x181F0, symBinAddr: 0x10003E4A8, symSize: 0x11C }
  - { offsetInCU: 0x269DC, offset: 0xB7DED, size: 0x8, addend: 0x0, symName: __ZN5boost4asio2ip14basic_endpointINS1_3tcpEEC1Ev, symObjAddr: 0x1830C, symBinAddr: 0x10003E5C4, symSize: 0x2C }
  - { offsetInCU: 0x26A06, offset: 0xB7E17, size: 0x8, addend: 0x0, symName: __ZNK5boost4asio2ip14basic_endpointINS1_3tcpEE8protocolEv, symObjAddr: 0x18338, symBinAddr: 0x10003E5F0, symSize: 0x48 }
  - { offsetInCU: 0x26A2C, offset: 0xB7E3D, size: 0x8, addend: 0x0, symName: __ZNK5boost4asio2ip3tcp4typeEv, symObjAddr: 0x18380, symBinAddr: 0x10003E638, symSize: 0x14 }
  - { offsetInCU: 0x26A52, offset: 0xB7E63, size: 0x8, addend: 0x0, symName: __ZNK5boost4asio2ip3tcp8protocolEv, symObjAddr: 0x18394, symBinAddr: 0x10003E64C, symSize: 0x14 }
  - { offsetInCU: 0x26A78, offset: 0xB7E89, size: 0x8, addend: 0x0, symName: __ZN5boost4asio2ip19resolver_query_baseD2Ev, symObjAddr: 0x183A8, symBinAddr: 0x10003E660, symSize: 0x2C }
  - { offsetInCU: 0x26AA2, offset: 0xB7EB3, size: 0x8, addend: 0x0, symName: __ZN5boost4asio2ip14basic_endpointINS1_3tcpEEC2Ev, symObjAddr: 0x183D4, symBinAddr: 0x10003E68C, symSize: 0x2C }
  - { offsetInCU: 0x26ACC, offset: 0xB7EDD, size: 0x8, addend: 0x0, symName: __ZN5boost4asio2ip6detail8endpointC1Ev, symObjAddr: 0x18400, symBinAddr: 0x10003E6B8, symSize: 0x2C }
  - { offsetInCU: 0x26AF9, offset: 0xB7F0A, size: 0x8, addend: 0x0, symName: __ZN5boost4asio2ip6detail8endpointC2Ev, symObjAddr: 0x1842C, symBinAddr: 0x10003E6E4, symSize: 0x34 }
  - { offsetInCU: 0x26B26, offset: 0xB7F37, size: 0x8, addend: 0x0, symName: __ZNK5boost4asio2ip6detail8endpoint5is_v4Ev, symObjAddr: 0x18460, symBinAddr: 0x10003E718, symSize: 0x24 }
  - { offsetInCU: 0x26B4C, offset: 0xB7F5D, size: 0x8, addend: 0x0, symName: __ZN5boost4asio2ip3tcp2v4Ev, symObjAddr: 0x18484, symBinAddr: 0x10003E73C, symSize: 0x28 }
  - { offsetInCU: 0x26B60, offset: 0xB7F71, size: 0x8, addend: 0x0, symName: __ZN5boost4asio2ip3tcp2v6Ev, symObjAddr: 0x184AC, symBinAddr: 0x10003E764, symSize: 0x28 }
  - { offsetInCU: 0x26B74, offset: 0xB7F85, size: 0x8, addend: 0x0, symName: __ZN5boost4asio2ip3tcpC1Ei, symObjAddr: 0x184D4, symBinAddr: 0x10003E78C, symSize: 0x34 }
  - { offsetInCU: 0x26BAC, offset: 0xB7FBD, size: 0x8, addend: 0x0, symName: __ZN5boost4asio2ip3tcpC2Ei, symObjAddr: 0x18508, symBinAddr: 0x10003E7C0, symSize: 0x20 }
  - { offsetInCU: 0x26BE4, offset: 0xB7FF5, size: 0x8, addend: 0x0, symName: __ZN5boost4asio2ip13resolver_baseD2Ev, symObjAddr: 0x18528, symBinAddr: 0x10003E7E0, symSize: 0x14 }
  - { offsetInCU: 0x26C0E, offset: 0xB801F, size: 0x8, addend: 0x0, symName: __ZNK5boost4asio2ip20basic_resolver_queryINS1_3tcpEE9host_nameEv, symObjAddr: 0x1878C, symBinAddr: 0x10003EA44, symSize: 0x3C }
  - { offsetInCU: 0x26C34, offset: 0xB8045, size: 0x8, addend: 0x0, symName: __ZNK5boost4asio2ip20basic_resolver_queryINS1_3tcpEE12service_nameEv, symObjAddr: 0x187C8, symBinAddr: 0x10003EA80, symSize: 0x3C }
  - { offsetInCU: 0x26C5A, offset: 0xB806B, size: 0x8, addend: 0x0, symName: __ZNK5boost4asio2ip20basic_resolver_queryINS1_3tcpEE5hintsEv, symObjAddr: 0x18804, symBinAddr: 0x10003EABC, symSize: 0x14 }
  - { offsetInCU: 0x26C85, offset: 0xB8096, size: 0x8, addend: 0x0, symName: __ZN5boost4asio6detail21resolver_service_base13auto_addrinfoC1EP8addrinfo, symObjAddr: 0x18818, symBinAddr: 0x10003EAD0, symSize: 0x34 }
  - { offsetInCU: 0x26CBD, offset: 0xB80CE, size: 0x8, addend: 0x0, symName: __ZN5boost6system10error_code6assignERKS1_PKNS_15source_locationE, symObjAddr: 0x1884C, symBinAddr: 0x10003EB04, symSize: 0x50 }
  - { offsetInCU: 0x26CFF, offset: 0xB8110, size: 0x8, addend: 0x0, symName: __ZNK5boost6system10error_codecvbEv, symObjAddr: 0x1889C, symBinAddr: 0x10003EB54, symSize: 0x28 }
  - { offsetInCU: 0x26D25, offset: 0xB8136, size: 0x8, addend: 0x0, symName: __ZN5boost4asio2ip22basic_resolver_resultsINS1_3tcpEEC1Ev, symObjAddr: 0x188C4, symBinAddr: 0x10003EB7C, symSize: 0x2C }
  - { offsetInCU: 0x26D4F, offset: 0xB8160, size: 0x8, addend: 0x0, symName: __ZN5boost4asio2ip22basic_resolver_resultsINS1_3tcpEE6createEP8addrinfoRKNSt3__112basic_stringIcNS7_11char_traitsIcEENS7_9allocatorIcEEEESF_, symObjAddr: 0x188F0, symBinAddr: 0x10003EBA8, symSize: 0x290 }
  - { offsetInCU: 0x26DD1, offset: 0xB81E2, size: 0x8, addend: 0x0, symName: __ZN5boost4asio6detail21resolver_service_base13auto_addrinfoD1Ev, symObjAddr: 0x18B80, symBinAddr: 0x10003EE38, symSize: 0x2C }
  - { offsetInCU: 0x26DFA, offset: 0xB820B, size: 0x8, addend: 0x0, symName: __Z9__isctypeim, symObjAddr: 0x18D74, symBinAddr: 0x10003F02C, symSize: 0x80 }
  - { offsetInCU: 0x26E35, offset: 0xB8246, size: 0x8, addend: 0x0, symName: __ZL12_OSSwapInt16t, symObjAddr: 0x18DF4, symBinAddr: 0x10003F0AC, symSize: 0x24 }
  - { offsetInCU: 0x26E6A, offset: 0xB827B, size: 0x8, addend: 0x0, symName: __ZN5boost6system10error_codeC1INS_4asio5error12netdb_errorsEEET_PNSt3__19enable_ifIXoosr18is_error_code_enumIS6_EE5valuesr3std18is_error_code_enumIS6_EE5valueEvE4typeE, symObjAddr: 0x18E18, symBinAddr: 0x10003F0D0, symSize: 0x3C }
  - { offsetInCU: 0x26EB6, offset: 0xB82C7, size: 0x8, addend: 0x0, symName: __ZN5boost6system10error_codeC1INS_4asio5error12basic_errorsEEET_PNSt3__19enable_ifIXoosr18is_error_code_enumIS6_EE5valuesr3std18is_error_code_enumIS6_EE5valueEvE4typeE, symObjAddr: 0x18E54, symBinAddr: 0x10003F10C, symSize: 0x3C }
  - { offsetInCU: 0x26F02, offset: 0xB8313, size: 0x8, addend: 0x0, symName: __ZN5boost6system10error_codeC1INS_4asio5error15addrinfo_errorsEEET_PNSt3__19enable_ifIXoosr18is_error_code_enumIS6_EE5valuesr3std18is_error_code_enumIS6_EE5valueEvE4typeE, symObjAddr: 0x18E90, symBinAddr: 0x10003F148, symSize: 0x3C }
  - { offsetInCU: 0x26F4E, offset: 0xB835F, size: 0x8, addend: 0x0, symName: __ZN5boost6system10error_codeC1EiRKNS0_14error_categoryE, symObjAddr: 0x18ECC, symBinAddr: 0x10003F184, symSize: 0x3C }
  - { offsetInCU: 0x26F94, offset: 0xB83A5, size: 0x8, addend: 0x0, symName: __ZN5boost6system10error_codeC2INS_4asio5error12netdb_errorsEEET_PNSt3__19enable_ifIXoosr18is_error_code_enumIS6_EE5valuesr3std18is_error_code_enumIS6_EE5valueEvE4typeE, symObjAddr: 0x18F08, symBinAddr: 0x10003F1C0, symSize: 0x60 }
  - { offsetInCU: 0x26FE0, offset: 0xB83F1, size: 0x8, addend: 0x0, symName: __ZN5boost6system10error_codeC2INS_4asio5error12basic_errorsEEET_PNSt3__19enable_ifIXoosr18is_error_code_enumIS6_EE5valuesr3std18is_error_code_enumIS6_EE5valueEvE4typeE, symObjAddr: 0x18FA4, symBinAddr: 0x10003F25C, symSize: 0x60 }
  - { offsetInCU: 0x2702C, offset: 0xB843D, size: 0x8, addend: 0x0, symName: __ZN5boost6system10error_codeC2INS_4asio5error15addrinfo_errorsEEET_PNSt3__19enable_ifIXoosr18is_error_code_enumIS6_EE5valuesr3std18is_error_code_enumIS6_EE5valueEvE4typeE, symObjAddr: 0x19040, symBinAddr: 0x10003F2F8, symSize: 0x60 }
  - { offsetInCU: 0x27078, offset: 0xB8489, size: 0x8, addend: 0x0, symName: __ZN5boost6system10error_codeC2EiRKNS0_14error_categoryE, symObjAddr: 0x190DC, symBinAddr: 0x10003F394, symSize: 0x78 }
  - { offsetInCU: 0x270BE, offset: 0xB84CF, size: 0x8, addend: 0x0, symName: __ZN5boost4asio6detail21resolver_service_base13auto_addrinfoC2EP8addrinfo, symObjAddr: 0x1920C, symBinAddr: 0x10003F4C4, symSize: 0x38 }
  - { offsetInCU: 0x270F6, offset: 0xB8507, size: 0x8, addend: 0x0, symName: __ZN5boost6system10error_codeC1ERKS1_PKNS_15source_locationE, symObjAddr: 0x19258, symBinAddr: 0x10003F4FC, symSize: 0x3C }
  - { offsetInCU: 0x2713C, offset: 0xB854D, size: 0x8, addend: 0x0, symName: __ZN5boost6system10error_codeC2ERKS1_PKNS_15source_locationE, symObjAddr: 0x19294, symBinAddr: 0x10003F538, symSize: 0xC8 }
  - { offsetInCU: 0x27182, offset: 0xB8593, size: 0x8, addend: 0x0, symName: __ZNK5boost6system10error_code6failedEv, symObjAddr: 0x1935C, symBinAddr: 0x10003F600, symSize: 0xA8 }
  - { offsetInCU: 0x271C7, offset: 0xB85D8, size: 0x8, addend: 0x0, symName: __ZN5boost4asio2ip22basic_resolver_resultsINS1_3tcpEEC2Ev, symObjAddr: 0x19404, symBinAddr: 0x10003F6A8, symSize: 0x2C }
  - { offsetInCU: 0x271F1, offset: 0xB8602, size: 0x8, addend: 0x0, symName: __ZN5boost4asio2ip23basic_resolver_iteratorINS1_3tcpEEC2Ev, symObjAddr: 0x19430, symBinAddr: 0x10003F6D4, symSize: 0x30 }
  - { offsetInCU: 0x2721B, offset: 0xB862C, size: 0x8, addend: 0x0, symName: __ZNSt3__110shared_ptrINS_6vectorIN5boost4asio2ip20basic_resolver_entryINS4_3tcpEEENS_9allocatorIS7_EEEEEC1B8ue170006Ev, symObjAddr: 0x19460, symBinAddr: 0x10003F704, symSize: 0x2C }
  - { offsetInCU: 0x27245, offset: 0xB8656, size: 0x8, addend: 0x0, symName: __ZNSt3__110shared_ptrINS_6vectorIN5boost4asio2ip20basic_resolver_entryINS4_3tcpEEENS_9allocatorIS7_EEEEEC2B8ue170006Ev, symObjAddr: 0x1948C, symBinAddr: 0x10003F730, symSize: 0x1C }
  - { offsetInCU: 0x27274, offset: 0xB8685, size: 0x8, addend: 0x0, symName: __ZNSt3__110shared_ptrINS_6vectorIN5boost4asio2ip20basic_resolver_entryINS4_3tcpEEENS_9allocatorIS7_EEEEE5resetB8ue170006ISA_vEEvPT_, symObjAddr: 0x194A8, symBinAddr: 0x10003F74C, symSize: 0x4C }
  - { offsetInCU: 0x272B4, offset: 0xB86C5, size: 0x8, addend: 0x0, symName: __ZNSt3__16vectorIN5boost4asio2ip20basic_resolver_entryINS3_3tcpEEENS_9allocatorIS6_EEEC1B8ue170006Ev, symObjAddr: 0x194F4, symBinAddr: 0x10003F798, symSize: 0x2C }
  - { offsetInCU: 0x272DE, offset: 0xB86EF, size: 0x8, addend: 0x0, symName: __ZN5boost4asio2ip14basic_endpointINS1_3tcpEE6resizeEm, symObjAddr: 0x19520, symBinAddr: 0x10003F7C4, symSize: 0x2C }
  - { offsetInCU: 0x27312, offset: 0xB8723, size: 0x8, addend: 0x0, symName: __ZN5boost4asio2ip14basic_endpointINS1_3tcpEE4dataEv, symObjAddr: 0x1954C, symBinAddr: 0x10003F7F0, symSize: 0x24 }
  - { offsetInCU: 0x27338, offset: 0xB8749, size: 0x8, addend: 0x0, symName: __ZNKSt3__110shared_ptrINS_6vectorIN5boost4asio2ip20basic_resolver_entryINS4_3tcpEEENS_9allocatorIS7_EEEEEptB8ue170006Ev, symObjAddr: 0x19570, symBinAddr: 0x10003F814, symSize: 0x18 }
  - { offsetInCU: 0x2735E, offset: 0xB876F, size: 0x8, addend: 0x0, symName: __ZNSt3__16vectorIN5boost4asio2ip20basic_resolver_entryINS3_3tcpEEENS_9allocatorIS6_EEE9push_backB8ue170006EOS6_, symObjAddr: 0x19588, symBinAddr: 0x10003F82C, symSize: 0x6C }
  - { offsetInCU: 0x27395, offset: 0xB87A6, size: 0x8, addend: 0x0, symName: __ZN5boost4asio2ip20basic_resolver_entryINS1_3tcpEEC1ERKNS1_14basic_endpointIS3_EENSt3__117basic_string_viewIcNS9_11char_traitsIcEEEESD_, symObjAddr: 0x195F4, symBinAddr: 0x10003F898, symSize: 0x54 }
  - { offsetInCU: 0x273E9, offset: 0xB87FA, size: 0x8, addend: 0x0, symName: __ZN5boost4asio2ip20basic_resolver_entryINS1_3tcpEED1Ev, symObjAddr: 0x19648, symBinAddr: 0x10003F8EC, symSize: 0x2C }
  - { offsetInCU: 0x27415, offset: 0xB8826, size: 0x8, addend: 0x0, symName: __ZNSt3__110shared_ptrINS_6vectorIN5boost4asio2ip20basic_resolver_entryINS4_3tcpEEENS_9allocatorIS7_EEEEEC1B8ue170006ISA_vEEPT_, symObjAddr: 0x19674, symBinAddr: 0x10003F918, symSize: 0x34 }
  - { offsetInCU: 0x27459, offset: 0xB886A, size: 0x8, addend: 0x0, symName: __ZNSt3__110shared_ptrINS_6vectorIN5boost4asio2ip20basic_resolver_entryINS4_3tcpEEENS_9allocatorIS7_EEEEE4swapB8ue170006ERSB_, symObjAddr: 0x196A8, symBinAddr: 0x10003F94C, symSize: 0x44 }
  - { offsetInCU: 0x2748E, offset: 0xB889F, size: 0x8, addend: 0x0, symName: __ZNSt3__110shared_ptrINS_6vectorIN5boost4asio2ip20basic_resolver_entryINS4_3tcpEEENS_9allocatorIS7_EEEEED1B8ue170006Ev, symObjAddr: 0x196EC, symBinAddr: 0x10003F990, symSize: 0x2C }
  - { offsetInCU: 0x274B8, offset: 0xB88C9, size: 0x8, addend: 0x0, symName: __ZNSt3__110shared_ptrINS_6vectorIN5boost4asio2ip20basic_resolver_entryINS4_3tcpEEENS_9allocatorIS7_EEEEEC2B8ue170006ISA_vEEPT_, symObjAddr: 0x19718, symBinAddr: 0x10003F9BC, symSize: 0xEC }
  - { offsetInCU: 0x275A5, offset: 0xB89B6, size: 0x8, addend: 0x0, symName: __ZNSt3__110unique_ptrINS_6vectorIN5boost4asio2ip20basic_resolver_entryINS4_3tcpEEENS_9allocatorIS7_EEEENS_14default_deleteISA_EEEC1B8ue170006ILb1EvEEPSA_, symObjAddr: 0x19804, symBinAddr: 0x10003FAA8, symSize: 0x34 }
  - { offsetInCU: 0x27602, offset: 0xB8A13, size: 0x8, addend: 0x0, symName: __ZNSt3__19allocatorINS_6vectorIN5boost4asio2ip20basic_resolver_entryINS4_3tcpEEENS0_IS7_EEEEEC1B8ue170006Ev, symObjAddr: 0x19838, symBinAddr: 0x10003FADC, symSize: 0x2C }
  - { offsetInCU: 0x276C7, offset: 0xB8AD8, size: 0x8, addend: 0x0, symName: __ZNSt3__120__shared_ptr_pointerIPNS_6vectorIN5boost4asio2ip20basic_resolver_entryINS4_3tcpEEENS_9allocatorIS7_EEEENS_10shared_ptrISA_E27__shared_ptr_default_deleteISA_SA_EENS8_ISA_EEEC1B8ue170006ESB_SF_SG_, symObjAddr: 0x19864, symBinAddr: 0x10003FB08, symSize: 0x34 }
  - { offsetInCU: 0x2771B, offset: 0xB8B2C, size: 0x8, addend: 0x0, symName: __ZNSt3__110unique_ptrINS_6vectorIN5boost4asio2ip20basic_resolver_entryINS4_3tcpEEENS_9allocatorIS7_EEEENS_14default_deleteISA_EEE7releaseB8ue170006Ev, symObjAddr: 0x19898, symBinAddr: 0x10003FB3C, symSize: 0x44 }
  - { offsetInCU: 0x27751, offset: 0xB8B62, size: 0x8, addend: 0x0, symName: __ZNSt3__110shared_ptrINS_6vectorIN5boost4asio2ip20basic_resolver_entryINS4_3tcpEEENS_9allocatorIS7_EEEEE18__enable_weak_thisB8ue170006Ez, symObjAddr: 0x198DC, symBinAddr: 0x10003FB80, symSize: 0x10 }
  - { offsetInCU: 0x27778, offset: 0xB8B89, size: 0x8, addend: 0x0, symName: __ZNSt3__110unique_ptrINS_6vectorIN5boost4asio2ip20basic_resolver_entryINS4_3tcpEEENS_9allocatorIS7_EEEENS_14default_deleteISA_EEED1B8ue170006Ev, symObjAddr: 0x198EC, symBinAddr: 0x10003FB90, symSize: 0x2C }
  - { offsetInCU: 0x277A2, offset: 0xB8BB3, size: 0x8, addend: 0x0, symName: __ZNSt3__110unique_ptrINS_6vectorIN5boost4asio2ip20basic_resolver_entryINS4_3tcpEEENS_9allocatorIS7_EEEENS_14default_deleteISA_EEEC2B8ue170006ILb1EvEEPSA_, symObjAddr: 0x19918, symBinAddr: 0x10003FBBC, symSize: 0x44 }
  - { offsetInCU: 0x277EC, offset: 0xB8BFD, size: 0x8, addend: 0x0, symName: __ZNSt3__117__compressed_pairIPNS_6vectorIN5boost4asio2ip20basic_resolver_entryINS4_3tcpEEENS_9allocatorIS7_EEEENS_14default_deleteISA_EEEC1B8ue170006IRSB_NS_16__value_init_tagEEEOT_OT0_, symObjAddr: 0x1995C, symBinAddr: 0x10003FC00, symSize: 0x3C }
  - { offsetInCU: 0x27844, offset: 0xB8C55, size: 0x8, addend: 0x0, symName: __ZNSt3__117__compressed_pairIPNS_6vectorIN5boost4asio2ip20basic_resolver_entryINS4_3tcpEEENS_9allocatorIS7_EEEENS_14default_deleteISA_EEEC2B8ue170006IRSB_NS_16__value_init_tagEEEOT_OT0_, symObjAddr: 0x19998, symBinAddr: 0x10003FC3C, symSize: 0x40 }
  - { offsetInCU: 0x2789C, offset: 0xB8CAD, size: 0x8, addend: 0x0, symName: __ZNSt3__122__compressed_pair_elemIPNS_6vectorIN5boost4asio2ip20basic_resolver_entryINS4_3tcpEEENS_9allocatorIS7_EEEELi0ELb0EEC2B8ue170006IRSB_vEEOT_, symObjAddr: 0x199D8, symBinAddr: 0x10003FC7C, symSize: 0x24 }
  - { offsetInCU: 0x278DF, offset: 0xB8CF0, size: 0x8, addend: 0x0, symName: __ZNSt3__122__compressed_pair_elemINS_14default_deleteINS_6vectorIN5boost4asio2ip20basic_resolver_entryINS5_3tcpEEENS_9allocatorIS8_EEEEEELi1ELb1EEC2B8ue170006ENS_16__value_init_tagE, symObjAddr: 0x199FC, symBinAddr: 0x10003FCA0, symSize: 0x14 }
  - { offsetInCU: 0x27914, offset: 0xB8D25, size: 0x8, addend: 0x0, symName: __ZNSt3__19allocatorINS_6vectorIN5boost4asio2ip20basic_resolver_entryINS4_3tcpEEENS0_IS7_EEEEEC2B8ue170006Ev, symObjAddr: 0x19A10, symBinAddr: 0x10003FCB4, symSize: 0x2C }
  - { offsetInCU: 0x2793E, offset: 0xB8D4F, size: 0x8, addend: 0x0, symName: __ZNSt3__116__non_trivial_ifILb1ENS_9allocatorINS_6vectorIN5boost4asio2ip20basic_resolver_entryINS5_3tcpEEENS1_IS8_EEEEEEEC2B8ue170006Ev, symObjAddr: 0x19A3C, symBinAddr: 0x10003FCE0, symSize: 0x14 }
  - { offsetInCU: 0x27968, offset: 0xB8D79, size: 0x8, addend: 0x0, symName: __ZNSt3__120__shared_ptr_pointerIPNS_6vectorIN5boost4asio2ip20basic_resolver_entryINS4_3tcpEEENS_9allocatorIS7_EEEENS_10shared_ptrISA_E27__shared_ptr_default_deleteISA_SA_EENS8_ISA_EEEC2B8ue170006ESB_SF_SG_, symObjAddr: 0x19A50, symBinAddr: 0x10003FCF4, symSize: 0xA8 }
  - { offsetInCU: 0x279BC, offset: 0xB8DCD, size: 0x8, addend: 0x0, symName: __ZNSt3__119__shared_weak_countC2B8ue170006El, symObjAddr: 0x19AF8, symBinAddr: 0x10003FD9C, symSize: 0x54 }
  - { offsetInCU: 0x279FA, offset: 0xB8E0B, size: 0x8, addend: 0x0, symName: __ZNSt3__117__compressed_pairIPNS_6vectorIN5boost4asio2ip20basic_resolver_entryINS4_3tcpEEENS_9allocatorIS7_EEEENS_10shared_ptrISA_E27__shared_ptr_default_deleteISA_SA_EEEC1B8ue170006IRSB_SF_EEOT_OT0_, symObjAddr: 0x19B4C, symBinAddr: 0x10003FDF0, symSize: 0x3C }
  - { offsetInCU: 0x27A5E, offset: 0xB8E6F, size: 0x8, addend: 0x0, symName: __ZNSt3__117__compressed_pairINS0_IPNS_6vectorIN5boost4asio2ip20basic_resolver_entryINS4_3tcpEEENS_9allocatorIS7_EEEENS_10shared_ptrISA_E27__shared_ptr_default_deleteISA_SA_EEEENS8_ISA_EEEC1B8ue170006ISG_SH_EEOT_OT0_, symObjAddr: 0x19B88, symBinAddr: 0x10003FE2C, symSize: 0x3C }
  - { offsetInCU: 0x27AB6, offset: 0xB8EC7, size: 0x8, addend: 0x0, symName: __ZNSt3__120__shared_ptr_pointerIPNS_6vectorIN5boost4asio2ip20basic_resolver_entryINS4_3tcpEEENS_9allocatorIS7_EEEENS_10shared_ptrISA_E27__shared_ptr_default_deleteISA_SA_EENS8_ISA_EEED1Ev, symObjAddr: 0x19BC4, symBinAddr: 0x10003FE68, symSize: 0x2C }
  - { offsetInCU: 0x27AE2, offset: 0xB8EF3, size: 0x8, addend: 0x0, symName: __ZNSt3__120__shared_ptr_pointerIPNS_6vectorIN5boost4asio2ip20basic_resolver_entryINS4_3tcpEEENS_9allocatorIS7_EEEENS_10shared_ptrISA_E27__shared_ptr_default_deleteISA_SA_EENS8_ISA_EEED0Ev, symObjAddr: 0x19BF0, symBinAddr: 0x10003FE94, symSize: 0x30 }
  - { offsetInCU: 0x27B0E, offset: 0xB8F1F, size: 0x8, addend: 0x0, symName: __ZNSt3__120__shared_ptr_pointerIPNS_6vectorIN5boost4asio2ip20basic_resolver_entryINS4_3tcpEEENS_9allocatorIS7_EEEENS_10shared_ptrISA_E27__shared_ptr_default_deleteISA_SA_EENS8_ISA_EEE16__on_zero_sharedEv, symObjAddr: 0x19C20, symBinAddr: 0x10003FEC4, symSize: 0x64 }
  - { offsetInCU: 0x27B36, offset: 0xB8F47, size: 0x8, addend: 0x0, symName: __ZNKSt3__120__shared_ptr_pointerIPNS_6vectorIN5boost4asio2ip20basic_resolver_entryINS4_3tcpEEENS_9allocatorIS7_EEEENS_10shared_ptrISA_E27__shared_ptr_default_deleteISA_SA_EENS8_ISA_EEE13__get_deleterERKSt9type_info, symObjAddr: 0x19C84, symBinAddr: 0x10003FF28, symSize: 0x68 }
  - { offsetInCU: 0x27B6B, offset: 0xB8F7C, size: 0x8, addend: 0x0, symName: __ZNSt3__120__shared_ptr_pointerIPNS_6vectorIN5boost4asio2ip20basic_resolver_entryINS4_3tcpEEENS_9allocatorIS7_EEEENS_10shared_ptrISA_E27__shared_ptr_default_deleteISA_SA_EENS8_ISA_EEE21__on_zero_shared_weakEv, symObjAddr: 0x19CEC, symBinAddr: 0x10003FF90, symSize: 0x60 }
  - { offsetInCU: 0x27BAF, offset: 0xB8FC0, size: 0x8, addend: 0x0, symName: __ZNSt3__114__shared_countC2B8ue170006El, symObjAddr: 0x19D4C, symBinAddr: 0x10003FFF0, symSize: 0x30 }
  - { offsetInCU: 0x27BE7, offset: 0xB8FF8, size: 0x8, addend: 0x0, symName: __ZNSt3__117__compressed_pairIPNS_6vectorIN5boost4asio2ip20basic_resolver_entryINS4_3tcpEEENS_9allocatorIS7_EEEENS_10shared_ptrISA_E27__shared_ptr_default_deleteISA_SA_EEEC2B8ue170006IRSB_SF_EEOT_OT0_, symObjAddr: 0x19D7C, symBinAddr: 0x100040020, symSize: 0x44 }
  - { offsetInCU: 0x27C3F, offset: 0xB9050, size: 0x8, addend: 0x0, symName: __ZNSt3__122__compressed_pair_elemINS_10shared_ptrINS_6vectorIN5boost4asio2ip20basic_resolver_entryINS5_3tcpEEENS_9allocatorIS8_EEEEE27__shared_ptr_default_deleteISB_SB_EELi1ELb1EEC2B8ue170006ISE_vEEOT_, symObjAddr: 0x19DC0, symBinAddr: 0x100040064, symSize: 0x18 }
  - { offsetInCU: 0x27C82, offset: 0xB9093, size: 0x8, addend: 0x0, symName: __ZNSt3__117__compressed_pairINS0_IPNS_6vectorIN5boost4asio2ip20basic_resolver_entryINS4_3tcpEEENS_9allocatorIS7_EEEENS_10shared_ptrISA_E27__shared_ptr_default_deleteISA_SA_EEEENS8_ISA_EEEC2B8ue170006ISG_SH_EEOT_OT0_, symObjAddr: 0x19DD8, symBinAddr: 0x10004007C, symSize: 0x44 }
  - { offsetInCU: 0x27CDA, offset: 0xB90EB, size: 0x8, addend: 0x0, symName: __ZNSt3__122__compressed_pair_elemINS_17__compressed_pairIPNS_6vectorIN5boost4asio2ip20basic_resolver_entryINS5_3tcpEEENS_9allocatorIS8_EEEENS_10shared_ptrISB_E27__shared_ptr_default_deleteISB_SB_EEEELi0ELb0EEC2B8ue170006ISH_vEEOT_, symObjAddr: 0x19E1C, symBinAddr: 0x1000400C0, symSize: 0x24 }
  - { offsetInCU: 0x27D1D, offset: 0xB912E, size: 0x8, addend: 0x0, symName: __ZNSt3__122__compressed_pair_elemINS_9allocatorINS_6vectorIN5boost4asio2ip20basic_resolver_entryINS5_3tcpEEENS1_IS8_EEEEEELi1ELb1EEC2B8ue170006ISB_vEEOT_, symObjAddr: 0x19E40, symBinAddr: 0x1000400E4, symSize: 0x18 }
  - { offsetInCU: 0x27D60, offset: 0xB9171, size: 0x8, addend: 0x0, symName: __ZNSt3__120__shared_ptr_pointerIPNS_6vectorIN5boost4asio2ip20basic_resolver_entryINS4_3tcpEEENS_9allocatorIS7_EEEENS_10shared_ptrISA_E27__shared_ptr_default_deleteISA_SA_EENS8_ISA_EEED2Ev, symObjAddr: 0x19E58, symBinAddr: 0x1000400FC, symSize: 0x2C }
  - { offsetInCU: 0x27D8C, offset: 0xB919D, size: 0x8, addend: 0x0, symName: __ZNSt3__117__compressed_pairINS0_IPNS_6vectorIN5boost4asio2ip20basic_resolver_entryINS4_3tcpEEENS_9allocatorIS7_EEEENS_10shared_ptrISA_E27__shared_ptr_default_deleteISA_SA_EEEENS8_ISA_EEE5firstB8ue170006Ev, symObjAddr: 0x19E84, symBinAddr: 0x100040128, symSize: 0x24 }
  - { offsetInCU: 0x27DB2, offset: 0xB91C3, size: 0x8, addend: 0x0, symName: __ZNSt3__117__compressed_pairIPNS_6vectorIN5boost4asio2ip20basic_resolver_entryINS4_3tcpEEENS_9allocatorIS7_EEEENS_10shared_ptrISA_E27__shared_ptr_default_deleteISA_SA_EEE6secondB8ue170006Ev, symObjAddr: 0x19EA8, symBinAddr: 0x10004014C, symSize: 0x24 }
  - { offsetInCU: 0x27DD8, offset: 0xB91E9, size: 0x8, addend: 0x0, symName: __ZNKSt3__114default_deleteINS_6vectorIN5boost4asio2ip20basic_resolver_entryINS4_3tcpEEENS_9allocatorIS7_EEEEEclB8ue170006EPSA_, symObjAddr: 0x19ECC, symBinAddr: 0x100040170, symSize: 0x4C }
  - { offsetInCU: 0x27E0C, offset: 0xB921D, size: 0x8, addend: 0x0, symName: __ZNSt3__117__compressed_pairIPNS_6vectorIN5boost4asio2ip20basic_resolver_entryINS4_3tcpEEENS_9allocatorIS7_EEEENS_10shared_ptrISA_E27__shared_ptr_default_deleteISA_SA_EEE5firstB8ue170006Ev, symObjAddr: 0x19F18, symBinAddr: 0x1000401BC, symSize: 0x24 }
  - { offsetInCU: 0x27E32, offset: 0xB9243, size: 0x8, addend: 0x0, symName: __ZNSt3__122__compressed_pair_elemINS_17__compressed_pairIPNS_6vectorIN5boost4asio2ip20basic_resolver_entryINS5_3tcpEEENS_9allocatorIS8_EEEENS_10shared_ptrISB_E27__shared_ptr_default_deleteISB_SB_EEEELi0ELb0EE5__getB8ue170006Ev, symObjAddr: 0x19F3C, symBinAddr: 0x1000401E0, symSize: 0x14 }
  - { offsetInCU: 0x27E58, offset: 0xB9269, size: 0x8, addend: 0x0, symName: __ZNSt3__122__compressed_pair_elemINS_10shared_ptrINS_6vectorIN5boost4asio2ip20basic_resolver_entryINS5_3tcpEEENS_9allocatorIS8_EEEEE27__shared_ptr_default_deleteISB_SB_EELi1ELb1EE5__getB8ue170006Ev, symObjAddr: 0x19F50, symBinAddr: 0x1000401F4, symSize: 0x14 }
  - { offsetInCU: 0x27E7E, offset: 0xB928F, size: 0x8, addend: 0x0, symName: __ZNSt3__16vectorIN5boost4asio2ip20basic_resolver_entryINS3_3tcpEEENS_9allocatorIS6_EEED1B8ue170006Ev, symObjAddr: 0x19F64, symBinAddr: 0x100040208, symSize: 0x2C }
  - { offsetInCU: 0x27EA8, offset: 0xB92B9, size: 0x8, addend: 0x0, symName: __ZNSt3__16vectorIN5boost4asio2ip20basic_resolver_entryINS3_3tcpEEENS_9allocatorIS6_EEED2B8ue170006Ev, symObjAddr: 0x19F90, symBinAddr: 0x100040234, symSize: 0x44 }
  - { offsetInCU: 0x27ED2, offset: 0xB92E3, size: 0x8, addend: 0x0, symName: __ZNSt3__16vectorIN5boost4asio2ip20basic_resolver_entryINS3_3tcpEEENS_9allocatorIS6_EEE16__destroy_vectorC1B8ue170006ERS9_, symObjAddr: 0x19FD4, symBinAddr: 0x100040278, symSize: 0x34 }
  - { offsetInCU: 0x27F0B, offset: 0xB931C, size: 0x8, addend: 0x0, symName: __ZNSt3__16vectorIN5boost4asio2ip20basic_resolver_entryINS3_3tcpEEENS_9allocatorIS6_EEE16__destroy_vectorclB8ue170006Ev, symObjAddr: 0x1A008, symBinAddr: 0x1000402AC, symSize: 0x90 }
  - { offsetInCU: 0x27F31, offset: 0xB9342, size: 0x8, addend: 0x0, symName: __ZNSt3__16vectorIN5boost4asio2ip20basic_resolver_entryINS3_3tcpEEENS_9allocatorIS6_EEE16__destroy_vectorC2B8ue170006ERS9_, symObjAddr: 0x1A098, symBinAddr: 0x10004033C, symSize: 0x20 }
  - { offsetInCU: 0x27F6A, offset: 0xB937B, size: 0x8, addend: 0x0, symName: __ZNSt3__16vectorIN5boost4asio2ip20basic_resolver_entryINS3_3tcpEEENS_9allocatorIS6_EEE7__clearB8ue170006Ev, symObjAddr: 0x1A0B8, symBinAddr: 0x10004035C, symSize: 0x28 }
  - { offsetInCU: 0x27F90, offset: 0xB93A1, size: 0x8, addend: 0x0, symName: __ZNKSt3__16vectorIN5boost4asio2ip20basic_resolver_entryINS3_3tcpEEENS_9allocatorIS6_EEE17__annotate_deleteB8ue170006Ev, symObjAddr: 0x1A0E0, symBinAddr: 0x100040384, symSize: 0xD4 }
  - { offsetInCU: 0x27FB6, offset: 0xB93C7, size: 0x8, addend: 0x0, symName: __ZNSt3__116allocator_traitsINS_9allocatorIN5boost4asio2ip20basic_resolver_entryINS4_3tcpEEEEEE10deallocateB8ue170006ERS8_PS7_m, symObjAddr: 0x1A1B4, symBinAddr: 0x100040458, symSize: 0x34 }
  - { offsetInCU: 0x27FF8, offset: 0xB9409, size: 0x8, addend: 0x0, symName: __ZNSt3__16vectorIN5boost4asio2ip20basic_resolver_entryINS3_3tcpEEENS_9allocatorIS6_EEE7__allocB8ue170006Ev, symObjAddr: 0x1A1E8, symBinAddr: 0x10004048C, symSize: 0x28 }
  - { offsetInCU: 0x2801E, offset: 0xB942F, size: 0x8, addend: 0x0, symName: __ZNKSt3__16vectorIN5boost4asio2ip20basic_resolver_entryINS3_3tcpEEENS_9allocatorIS6_EEE8capacityB8ue170006Ev, symObjAddr: 0x1A210, symBinAddr: 0x1000404B4, symSize: 0x40 }
  - { offsetInCU: 0x28044, offset: 0xB9455, size: 0x8, addend: 0x0, symName: __ZNSt3__16vectorIN5boost4asio2ip20basic_resolver_entryINS3_3tcpEEENS_9allocatorIS6_EEE22__base_destruct_at_endB8ue170006EPS6_, symObjAddr: 0x1A250, symBinAddr: 0x1000404F4, symSize: 0x8C }
  - { offsetInCU: 0x28089, offset: 0xB949A, size: 0x8, addend: 0x0, symName: __ZNSt3__116allocator_traitsINS_9allocatorIN5boost4asio2ip20basic_resolver_entryINS4_3tcpEEEEEE7destroyB8ue170006IS7_vEEvRS8_PT_, symObjAddr: 0x1A2DC, symBinAddr: 0x100040580, symSize: 0x2C }
  - { offsetInCU: 0x280C7, offset: 0xB94D8, size: 0x8, addend: 0x0, symName: __ZNSt3__19allocatorIN5boost4asio2ip20basic_resolver_entryINS3_3tcpEEEE7destroyB8ue170006EPS6_, symObjAddr: 0x1A31C, symBinAddr: 0x1000405C0, symSize: 0x28 }
  - { offsetInCU: 0x280FB, offset: 0xB950C, size: 0x8, addend: 0x0, symName: __ZNKSt3__16vectorIN5boost4asio2ip20basic_resolver_entryINS3_3tcpEEENS_9allocatorIS6_EEE31__annotate_contiguous_containerB8ue170006EPKvSB_SB_SB_, symObjAddr: 0x1A344, symBinAddr: 0x1000405E8, symSize: 0x20 }
  - { offsetInCU: 0x28151, offset: 0xB9562, size: 0x8, addend: 0x0, symName: __ZNKSt3__16vectorIN5boost4asio2ip20basic_resolver_entryINS3_3tcpEEENS_9allocatorIS6_EEE4dataB8ue170006Ev, symObjAddr: 0x1A364, symBinAddr: 0x100040608, symSize: 0x28 }
  - { offsetInCU: 0x28177, offset: 0xB9588, size: 0x8, addend: 0x0, symName: __ZNKSt3__16vectorIN5boost4asio2ip20basic_resolver_entryINS3_3tcpEEENS_9allocatorIS6_EEE4sizeB8ue170006Ev, symObjAddr: 0x1A38C, symBinAddr: 0x100040630, symSize: 0x28 }
  - { offsetInCU: 0x2819D, offset: 0xB95AE, size: 0x8, addend: 0x0, symName: __ZNSt3__19allocatorIN5boost4asio2ip20basic_resolver_entryINS3_3tcpEEEE10deallocateB8ue170006EPS6_m, symObjAddr: 0x1A3B4, symBinAddr: 0x100040658, symSize: 0x44 }
  - { offsetInCU: 0x281DF, offset: 0xB95F0, size: 0x8, addend: 0x0, symName: __ZNSt3__117__compressed_pairIPN5boost4asio2ip20basic_resolver_entryINS3_3tcpEEENS_9allocatorIS6_EEE6secondB8ue170006Ev, symObjAddr: 0x1A520, symBinAddr: 0x10004069C, symSize: 0x24 }
  - { offsetInCU: 0x28205, offset: 0xB9616, size: 0x8, addend: 0x0, symName: __ZNSt3__122__compressed_pair_elemINS_9allocatorIN5boost4asio2ip20basic_resolver_entryINS4_3tcpEEEEELi1ELb1EE5__getB8ue170006Ev, symObjAddr: 0x1A544, symBinAddr: 0x1000406C0, symSize: 0x14 }
  - { offsetInCU: 0x2822B, offset: 0xB963C, size: 0x8, addend: 0x0, symName: __ZNKSt3__16vectorIN5boost4asio2ip20basic_resolver_entryINS3_3tcpEEENS_9allocatorIS6_EEE9__end_capB8ue170006Ev, symObjAddr: 0x1A558, symBinAddr: 0x1000406D4, symSize: 0x28 }
  - { offsetInCU: 0x28251, offset: 0xB9662, size: 0x8, addend: 0x0, symName: __ZNKSt3__117__compressed_pairIPN5boost4asio2ip20basic_resolver_entryINS3_3tcpEEENS_9allocatorIS6_EEE5firstB8ue170006Ev, symObjAddr: 0x1A580, symBinAddr: 0x1000406FC, symSize: 0x24 }
  - { offsetInCU: 0x28277, offset: 0xB9688, size: 0x8, addend: 0x0, symName: __ZNKSt3__122__compressed_pair_elemIPN5boost4asio2ip20basic_resolver_entryINS3_3tcpEEELi0ELb0EE5__getB8ue170006Ev, symObjAddr: 0x1A5A4, symBinAddr: 0x100040720, symSize: 0x14 }
  - { offsetInCU: 0x2829D, offset: 0xB96AE, size: 0x8, addend: 0x0, symName: __ZNSt3__122__compressed_pair_elemIPNS_6vectorIN5boost4asio2ip20basic_resolver_entryINS4_3tcpEEENS_9allocatorIS7_EEEELi0ELb0EE5__getB8ue170006Ev, symObjAddr: 0x1A5B8, symBinAddr: 0x100040734, symSize: 0x14 }
  - { offsetInCU: 0x282F9, offset: 0xB970A, size: 0x8, addend: 0x0, symName: __ZNKSt9type_infoeqB8ue170006ERKS_, symObjAddr: 0x1A5CC, symBinAddr: 0x100040748, symSize: 0xDC }
  - { offsetInCU: 0x28397, offset: 0xB97A8, size: 0x8, addend: 0x0, symName: __ZNKSt3__117__compressed_pairINS0_IPNS_6vectorIN5boost4asio2ip20basic_resolver_entryINS4_3tcpEEENS_9allocatorIS7_EEEENS_10shared_ptrISA_E27__shared_ptr_default_deleteISA_SA_EEEENS8_ISA_EEE5firstB8ue170006Ev, symObjAddr: 0x1A6A8, symBinAddr: 0x100040824, symSize: 0x24 }
  - { offsetInCU: 0x283BD, offset: 0xB97CE, size: 0x8, addend: 0x0, symName: __ZNKSt3__117__compressed_pairIPNS_6vectorIN5boost4asio2ip20basic_resolver_entryINS4_3tcpEEENS_9allocatorIS7_EEEENS_10shared_ptrISA_E27__shared_ptr_default_deleteISA_SA_EEE6secondB8ue170006Ev, symObjAddr: 0x1A6CC, symBinAddr: 0x100040848, symSize: 0x24 }
  - { offsetInCU: 0x283E3, offset: 0xB97F4, size: 0x8, addend: 0x0, symName: __ZNSt27__type_info_implementations30__non_unique_arm_rtti_bit_impl21__is_type_name_uniqueB8ue170006Em, symObjAddr: 0x1A6F0, symBinAddr: 0x10004086C, symSize: 0x20 }
  - { offsetInCU: 0x28407, offset: 0xB9818, size: 0x8, addend: 0x0, symName: __ZNKSt3__122__compressed_pair_elemINS_17__compressed_pairIPNS_6vectorIN5boost4asio2ip20basic_resolver_entryINS5_3tcpEEENS_9allocatorIS8_EEEENS_10shared_ptrISB_E27__shared_ptr_default_deleteISB_SB_EEEELi0ELb0EE5__getB8ue170006Ev, symObjAddr: 0x1A710, symBinAddr: 0x10004088C, symSize: 0x14 }
  - { offsetInCU: 0x2842D, offset: 0xB983E, size: 0x8, addend: 0x0, symName: __ZNKSt3__122__compressed_pair_elemINS_10shared_ptrINS_6vectorIN5boost4asio2ip20basic_resolver_entryINS5_3tcpEEENS_9allocatorIS8_EEEEE27__shared_ptr_default_deleteISB_SB_EELi1ELb1EE5__getB8ue170006Ev, symObjAddr: 0x1A724, symBinAddr: 0x1000408A0, symSize: 0x14 }
  - { offsetInCU: 0x28453, offset: 0xB9864, size: 0x8, addend: 0x0, symName: __ZNSt3__117__compressed_pairINS0_IPNS_6vectorIN5boost4asio2ip20basic_resolver_entryINS4_3tcpEEENS_9allocatorIS7_EEEENS_10shared_ptrISA_E27__shared_ptr_default_deleteISA_SA_EEEENS8_ISA_EEE6secondB8ue170006Ev, symObjAddr: 0x1A738, symBinAddr: 0x1000408B4, symSize: 0x24 }
  - { offsetInCU: 0x284A1, offset: 0xB98B2, size: 0x8, addend: 0x0, symName: __ZNSt3__19allocatorINS_20__shared_ptr_pointerIPNS_6vectorIN5boost4asio2ip20basic_resolver_entryINS5_3tcpEEENS0_IS8_EEEENS_10shared_ptrISA_E27__shared_ptr_default_deleteISA_SA_EENS0_ISA_EEEEEC1B8ue170006ISA_EERKNS0_IT_EE, symObjAddr: 0x1A75C, symBinAddr: 0x1000408D8, symSize: 0x34 }
  - { offsetInCU: 0x284DF, offset: 0xB98F0, size: 0x8, addend: 0x0, symName: __ZNSt3__19allocatorINS_20__shared_ptr_pointerIPNS_6vectorIN5boost4asio2ip20basic_resolver_entryINS5_3tcpEEENS0_IS8_EEEENS_10shared_ptrISA_E27__shared_ptr_default_deleteISA_SA_EENS0_ISA_EEEEE10deallocateB8ue170006EPSH_m, symObjAddr: 0x1A790, symBinAddr: 0x10004090C, symSize: 0x40 }
  - { offsetInCU: 0x28521, offset: 0xB9932, size: 0x8, addend: 0x0, symName: __ZNSt3__114pointer_traitsIPNS_20__shared_ptr_pointerIPNS_6vectorIN5boost4asio2ip20basic_resolver_entryINS5_3tcpEEENS_9allocatorIS8_EEEENS_10shared_ptrISB_E27__shared_ptr_default_deleteISB_SB_EENS9_ISB_EEEEE10pointer_toB8ue170006ERSI_, symObjAddr: 0x1A7D0, symBinAddr: 0x10004094C, symSize: 0x14 }
  - { offsetInCU: 0x28544, offset: 0xB9955, size: 0x8, addend: 0x0, symName: __ZNSt3__122__compressed_pair_elemINS_9allocatorINS_6vectorIN5boost4asio2ip20basic_resolver_entryINS5_3tcpEEENS1_IS8_EEEEEELi1ELb1EE5__getB8ue170006Ev, symObjAddr: 0x1A7E4, symBinAddr: 0x100040960, symSize: 0x14 }
  - { offsetInCU: 0x2856A, offset: 0xB997B, size: 0x8, addend: 0x0, symName: __ZNSt3__19allocatorINS_20__shared_ptr_pointerIPNS_6vectorIN5boost4asio2ip20basic_resolver_entryINS5_3tcpEEENS0_IS8_EEEENS_10shared_ptrISA_E27__shared_ptr_default_deleteISA_SA_EENS0_ISA_EEEEEC2B8ue170006ISA_EERKNS0_IT_EE, symObjAddr: 0x1A7F8, symBinAddr: 0x100040974, symSize: 0x30 }
  - { offsetInCU: 0x285A8, offset: 0xB99B9, size: 0x8, addend: 0x0, symName: __ZNSt3__116__non_trivial_ifILb1ENS_9allocatorINS_20__shared_ptr_pointerIPNS_6vectorIN5boost4asio2ip20basic_resolver_entryINS6_3tcpEEENS1_IS9_EEEENS_10shared_ptrISB_E27__shared_ptr_default_deleteISB_SB_EENS1_ISB_EEEEEEEC2B8ue170006Ev, symObjAddr: 0x1A828, symBinAddr: 0x1000409A4, symSize: 0x14 }
  - { offsetInCU: 0x285D2, offset: 0xB99E3, size: 0x8, addend: 0x0, symName: __ZNSt3__117__compressed_pairIPNS_6vectorIN5boost4asio2ip20basic_resolver_entryINS4_3tcpEEENS_9allocatorIS7_EEEENS_14default_deleteISA_EEE5firstB8ue170006Ev, symObjAddr: 0x1A83C, symBinAddr: 0x1000409B8, symSize: 0x24 }
  - { offsetInCU: 0x285F8, offset: 0xB9A09, size: 0x8, addend: 0x0, symName: __ZNSt3__110unique_ptrINS_6vectorIN5boost4asio2ip20basic_resolver_entryINS4_3tcpEEENS_9allocatorIS7_EEEENS_14default_deleteISA_EEED2B8ue170006Ev, symObjAddr: 0x1A860, symBinAddr: 0x1000409DC, symSize: 0x30 }
  - { offsetInCU: 0x28622, offset: 0xB9A33, size: 0x8, addend: 0x0, symName: __ZNSt3__110unique_ptrINS_6vectorIN5boost4asio2ip20basic_resolver_entryINS4_3tcpEEENS_9allocatorIS7_EEEENS_14default_deleteISA_EEE5resetB8ue170006EPSA_, symObjAddr: 0x1A890, symBinAddr: 0x100040A0C, symSize: 0x78 }
  - { offsetInCU: 0x28667, offset: 0xB9A78, size: 0x8, addend: 0x0, symName: __ZNSt3__117__compressed_pairIPNS_6vectorIN5boost4asio2ip20basic_resolver_entryINS4_3tcpEEENS_9allocatorIS7_EEEENS_14default_deleteISA_EEE6secondB8ue170006Ev, symObjAddr: 0x1A908, symBinAddr: 0x100040A84, symSize: 0x24 }
  - { offsetInCU: 0x2868D, offset: 0xB9A9E, size: 0x8, addend: 0x0, symName: __ZNSt3__122__compressed_pair_elemINS_14default_deleteINS_6vectorIN5boost4asio2ip20basic_resolver_entryINS5_3tcpEEENS_9allocatorIS8_EEEEEELi1ELb1EE5__getB8ue170006Ev, symObjAddr: 0x1A92C, symBinAddr: 0x100040AA8, symSize: 0x14 }
  - { offsetInCU: 0x286B3, offset: 0xB9AC4, size: 0x8, addend: 0x0, symName: __ZNSt3__110shared_ptrINS_6vectorIN5boost4asio2ip20basic_resolver_entryINS4_3tcpEEENS_9allocatorIS7_EEEEED2B8ue170006Ev, symObjAddr: 0x1A9B8, symBinAddr: 0x100040B34, symSize: 0x54 }
  - { offsetInCU: 0x286DD, offset: 0xB9AEE, size: 0x8, addend: 0x0, symName: __ZNSt3__16vectorIN5boost4asio2ip20basic_resolver_entryINS3_3tcpEEENS_9allocatorIS6_EEEC2B8ue170006Ev, symObjAddr: 0x1AAF4, symBinAddr: 0x100040B88, symSize: 0x4C }
  - { offsetInCU: 0x2870D, offset: 0xB9B1E, size: 0x8, addend: 0x0, symName: __ZNSt3__117__compressed_pairIPN5boost4asio2ip20basic_resolver_entryINS3_3tcpEEENS_9allocatorIS6_EEEC1B8ue170006IDnNS_18__default_init_tagEEEOT_OT0_, symObjAddr: 0x1AB40, symBinAddr: 0x100040BD4, symSize: 0x3C }
  - { offsetInCU: 0x28765, offset: 0xB9B76, size: 0x8, addend: 0x0, symName: __ZNSt3__117__compressed_pairIPN5boost4asio2ip20basic_resolver_entryINS3_3tcpEEENS_9allocatorIS6_EEEC2B8ue170006IDnNS_18__default_init_tagEEEOT_OT0_, symObjAddr: 0x1AB7C, symBinAddr: 0x100040C10, symSize: 0x40 }
  - { offsetInCU: 0x287BD, offset: 0xB9BCE, size: 0x8, addend: 0x0, symName: __ZNSt3__122__compressed_pair_elemIPN5boost4asio2ip20basic_resolver_entryINS3_3tcpEEELi0ELb0EEC2B8ue170006IDnvEEOT_, symObjAddr: 0x1ABBC, symBinAddr: 0x100040C50, symSize: 0x1C }
  - { offsetInCU: 0x28800, offset: 0xB9C11, size: 0x8, addend: 0x0, symName: __ZNSt3__122__compressed_pair_elemINS_9allocatorIN5boost4asio2ip20basic_resolver_entryINS4_3tcpEEEEELi1ELb1EEC2B8ue170006ENS_18__default_init_tagE, symObjAddr: 0x1ABD8, symBinAddr: 0x100040C6C, symSize: 0x2C }
  - { offsetInCU: 0x28835, offset: 0xB9C46, size: 0x8, addend: 0x0, symName: __ZNSt3__19allocatorIN5boost4asio2ip20basic_resolver_entryINS3_3tcpEEEEC2B8ue170006Ev, symObjAddr: 0x1AC04, symBinAddr: 0x100040C98, symSize: 0x2C }
  - { offsetInCU: 0x2885F, offset: 0xB9C70, size: 0x8, addend: 0x0, symName: __ZNSt3__116__non_trivial_ifILb1ENS_9allocatorIN5boost4asio2ip20basic_resolver_entryINS4_3tcpEEEEEEC2B8ue170006Ev, symObjAddr: 0x1AC30, symBinAddr: 0x100040CC4, symSize: 0x14 }
  - { offsetInCU: 0x28889, offset: 0xB9C9A, size: 0x8, addend: 0x0, symName: __ZN5boost4asio2ip6detail8endpoint6resizeEm, symObjAddr: 0x1AC44, symBinAddr: 0x100040CD8, symSize: 0x7C }
  - { offsetInCU: 0x28909, offset: 0xB9D1A, size: 0x8, addend: 0x0, symName: __ZN5boost6system12system_errorC1ERKNS0_10error_codeE, symObjAddr: 0x1AD58, symBinAddr: 0x100040DEC, symSize: 0x34 }
  - { offsetInCU: 0x28941, offset: 0xB9D52, size: 0x8, addend: 0x0, symName: __ZN5boost6system12system_errorD1Ev, symObjAddr: 0x1AE00, symBinAddr: 0x100040E94, symSize: 0x2C }
  - { offsetInCU: 0x2896D, offset: 0xB9D7E, size: 0x8, addend: 0x0, symName: __ZN5boost6system12system_errorC2ERKNS0_10error_codeE, symObjAddr: 0x1AE2C, symBinAddr: 0x100040EC0, symSize: 0xA0 }
  - { offsetInCU: 0x289A5, offset: 0xB9DB6, size: 0x8, addend: 0x0, symName: __ZNK5boost6system10error_code4whatEv, symObjAddr: 0x1AECC, symBinAddr: 0x100040F60, symSize: 0x164 }
  - { offsetInCU: 0x289DC, offset: 0xB9DED, size: 0x8, addend: 0x0, symName: __ZN5boost6system12system_errorD0Ev, symObjAddr: 0x1B030, symBinAddr: 0x1000410C4, symSize: 0x30 }
  - { offsetInCU: 0x28A08, offset: 0xB9E19, size: 0x8, addend: 0x0, symName: __ZNK5boost6system10error_code7messageEv, symObjAddr: 0x1B060, symBinAddr: 0x1000410F4, symSize: 0xB8 }
  - { offsetInCU: 0x28A4B, offset: 0xB9E5C, size: 0x8, addend: 0x0, symName: __ZNK5boost6system10error_code9to_stringEv, symObjAddr: 0x1B144, symBinAddr: 0x1000411AC, symSize: 0x178 }
  - { offsetInCU: 0x28AB1, offset: 0xB9EC2, size: 0x8, addend: 0x0, symName: __ZNK5boost6system10error_code12has_locationEv, symObjAddr: 0x1B2E8, symBinAddr: 0x100041324, symSize: 0x24 }
  - { offsetInCU: 0x28AD7, offset: 0xB9EE8, size: 0x8, addend: 0x0, symName: __ZNK5boost15source_location9to_stringEv, symObjAddr: 0x1B360, symBinAddr: 0x10004139C, symSize: 0x1F4 }
  - { offsetInCU: 0x28B44, offset: 0xB9F55, size: 0x8, addend: 0x0, symName: __ZNK5boost6system10error_code8categoryEv, symObjAddr: 0x1B554, symBinAddr: 0x100041590, symSize: 0x7C }
  - { offsetInCU: 0x28B6A, offset: 0xB9F7B, size: 0x8, addend: 0x0, symName: __ZNK5boost6system6detail22interop_error_category4nameEv, symObjAddr: 0x1B5DC, symBinAddr: 0x100041618, symSize: 0x18 }
  - { offsetInCU: 0x28B90, offset: 0xB9FA1, size: 0x8, addend: 0x0, symName: __ZNK5boost6system6detail22interop_error_category7messageEi, symObjAddr: 0x1B5F4, symBinAddr: 0x100041630, symSize: 0x84 }
  - { offsetInCU: 0x28BD3, offset: 0xB9FE4, size: 0x8, addend: 0x0, symName: __ZNK5boost6system6detail22interop_error_category7messageEiPcm, symObjAddr: 0x1B678, symBinAddr: 0x1000416B4, symSize: 0x58 }
  - { offsetInCU: 0x28C24, offset: 0xBA035, size: 0x8, addend: 0x0, symName: __ZNK5boost6system10error_code13category_nameEv, symObjAddr: 0x1B758, symBinAddr: 0x100041794, symSize: 0x90 }
  - { offsetInCU: 0x28C4A, offset: 0xBA05B, size: 0x8, addend: 0x0, symName: __ZNK5boost15source_location4lineEv, symObjAddr: 0x1B7E8, symBinAddr: 0x100041824, symSize: 0x18 }
  - { offsetInCU: 0x28C70, offset: 0xBA081, size: 0x8, addend: 0x0, symName: __ZNK5boost15source_location9file_nameEv, symObjAddr: 0x1B800, symBinAddr: 0x10004183C, symSize: 0x18 }
  - { offsetInCU: 0x28C96, offset: 0xBA0A7, size: 0x8, addend: 0x0, symName: __ZNK5boost15source_location6columnEv, symObjAddr: 0x1B818, symBinAddr: 0x100041854, symSize: 0x18 }
  - { offsetInCU: 0x28CBC, offset: 0xBA0CD, size: 0x8, addend: 0x0, symName: __ZNK5boost15source_location13function_nameEv, symObjAddr: 0x1B830, symBinAddr: 0x10004186C, symSize: 0x18 }
  - { offsetInCU: 0x28CF6, offset: 0xBA107, size: 0x8, addend: 0x0, symName: __ZN5boost10wrapexceptINS_6system12system_errorEEC1ERKS2_RKNS_15source_locationE, symObjAddr: 0x1B88C, symBinAddr: 0x100041894, symSize: 0x3C }
  - { offsetInCU: 0x28D3C, offset: 0xBA14D, size: 0x8, addend: 0x0, symName: __ZN5boost10wrapexceptINS_6system12system_errorEED1Ev, symObjAddr: 0x1B8C8, symBinAddr: 0x1000418D0, symSize: 0x2C }
  - { offsetInCU: 0x28D68, offset: 0xBA179, size: 0x8, addend: 0x0, symName: __ZN5boost10wrapexceptINS_6system12system_errorEEC2ERKS2_RKNS_15source_locationE, symObjAddr: 0x1B8F4, symBinAddr: 0x1000418FC, symSize: 0x188 }
  - { offsetInCU: 0x28DAE, offset: 0xBA1BF, size: 0x8, addend: 0x0, symName: __ZN5boost16exception_detail10clone_baseC2Ev, symObjAddr: 0x1BA7C, symBinAddr: 0x100041A84, symSize: 0x24 }
  - { offsetInCU: 0x28DDB, offset: 0xBA1EC, size: 0x8, addend: 0x0, symName: __ZN5boost6system12system_errorC2ERKS1_, symObjAddr: 0x1BAA0, symBinAddr: 0x100041AA8, symSize: 0x60 }
  - { offsetInCU: 0x28E10, offset: 0xBA221, size: 0x8, addend: 0x0, symName: __ZN5boost9exceptionC2Ev, symObjAddr: 0x1BB00, symBinAddr: 0x100041B08, symSize: 0x54 }
  - { offsetInCU: 0x28E3A, offset: 0xBA24B, size: 0x8, addend: 0x0, symName: __ZN5boost10wrapexceptINS_6system12system_errorEE9copy_fromEPKv, symObjAddr: 0x1BB54, symBinAddr: 0x100041B5C, symSize: 0x14 }
  - { offsetInCU: 0x28E6B, offset: 0xBA27C, size: 0x8, addend: 0x0, symName: __ZN5boost10error_infoINS_11throw_file_EPKcEC1ES3_, symObjAddr: 0x1BB90, symBinAddr: 0x100041B98, symSize: 0x34 }
  - { offsetInCU: 0x28EA3, offset: 0xBA2B4, size: 0x8, addend: 0x0, symName: __ZN5boost10error_infoINS_11throw_line_EiEC1Ei, symObjAddr: 0x1BBEC, symBinAddr: 0x100041BF4, symSize: 0x34 }
  - { offsetInCU: 0x28EDB, offset: 0xBA2EC, size: 0x8, addend: 0x0, symName: __ZN5boost10error_infoINS_15throw_function_EPKcEC1ES3_, symObjAddr: 0x1BC48, symBinAddr: 0x100041C50, symSize: 0x34 }
  - { offsetInCU: 0x28F13, offset: 0xBA324, size: 0x8, addend: 0x0, symName: __ZN5boost10error_infoINS_13throw_column_EiEC1Ei, symObjAddr: 0x1BCA4, symBinAddr: 0x100041CAC, symSize: 0x34 }
  - { offsetInCU: 0x28F4B, offset: 0xBA35C, size: 0x8, addend: 0x0, symName: __ZN5boost9exceptionD2Ev, symObjAddr: 0x1BCD8, symBinAddr: 0x100041CE0, symSize: 0x40 }
  - { offsetInCU: 0x28F77, offset: 0xBA388, size: 0x8, addend: 0x0, symName: __ZN5boost6system12system_errorD2Ev, symObjAddr: 0x1BD18, symBinAddr: 0x100041D20, symSize: 0x2C }
  - { offsetInCU: 0x28FA3, offset: 0xBA3B4, size: 0x8, addend: 0x0, symName: __ZN5boost16exception_detail10clone_baseD2Ev, symObjAddr: 0x1BD44, symBinAddr: 0x100041D4C, symSize: 0x14 }
  - { offsetInCU: 0x28FCD, offset: 0xBA3DE, size: 0x8, addend: 0x0, symName: __ZNK5boost10wrapexceptINS_6system12system_errorEE5cloneEv, symObjAddr: 0x1BD58, symBinAddr: 0x100041D60, symSize: 0xE4 }
  - { offsetInCU: 0x2900F, offset: 0xBA420, size: 0x8, addend: 0x0, symName: __ZNK5boost10wrapexceptINS_6system12system_errorEE7rethrowEv, symObjAddr: 0x1BE3C, symBinAddr: 0x100041E44, symSize: 0x6C }
  - { offsetInCU: 0x29035, offset: 0xBA446, size: 0x8, addend: 0x0, symName: __ZN5boost10wrapexceptINS_6system12system_errorEED0Ev, symObjAddr: 0x1BEA8, symBinAddr: 0x100041EB0, symSize: 0x30 }
  - { offsetInCU: 0x29061, offset: 0xBA472, size: 0x8, addend: 0x0, symName: __ZThn8_N5boost10wrapexceptINS_6system12system_errorEED1Ev, symObjAddr: 0x1BED8, symBinAddr: 0x100041EE0, symSize: 0x1C }
  - { offsetInCU: 0x29077, offset: 0xBA488, size: 0x8, addend: 0x0, symName: __ZThn8_N5boost10wrapexceptINS_6system12system_errorEED0Ev, symObjAddr: 0x1BEF4, symBinAddr: 0x100041EFC, symSize: 0x18 }
  - { offsetInCU: 0x2908D, offset: 0xBA49E, size: 0x8, addend: 0x0, symName: __ZThn48_N5boost10wrapexceptINS_6system12system_errorEED1Ev, symObjAddr: 0x1BF0C, symBinAddr: 0x100041F14, symSize: 0x1C }
  - { offsetInCU: 0x290A3, offset: 0xBA4B4, size: 0x8, addend: 0x0, symName: __ZThn48_N5boost10wrapexceptINS_6system12system_errorEED0Ev, symObjAddr: 0x1BF28, symBinAddr: 0x100041F30, symSize: 0x18 }
  - { offsetInCU: 0x290B9, offset: 0xBA4CA, size: 0x8, addend: 0x0, symName: __ZN5boost16exception_detail10clone_baseD1Ev, symObjAddr: 0x1BF40, symBinAddr: 0x100041F48, symSize: 0x14 }
  - { offsetInCU: 0x290E3, offset: 0xBA4F4, size: 0x8, addend: 0x0, symName: __ZN5boost16exception_detail10clone_baseD0Ev, symObjAddr: 0x1BF54, symBinAddr: 0x100041F5C, symSize: 0xC }
  - { offsetInCU: 0x2910D, offset: 0xBA51E, size: 0x8, addend: 0x0, symName: __ZN5boost16exception_detail12refcount_ptrINS0_20error_info_containerEEC1Ev, symObjAddr: 0x1BF60, symBinAddr: 0x100041F68, symSize: 0x2C }
  - { offsetInCU: 0x29137, offset: 0xBA548, size: 0x8, addend: 0x0, symName: __ZN5boost16exception_detail12refcount_ptrINS0_20error_info_containerEEC2Ev, symObjAddr: 0x1BF8C, symBinAddr: 0x100041F94, symSize: 0x18 }
  - { offsetInCU: 0x29161, offset: 0xBA572, size: 0x8, addend: 0x0, symName: __ZN5boost10error_infoINS_11throw_file_EPKcEC2ES3_, symObjAddr: 0x1BFA4, symBinAddr: 0x100041FAC, symSize: 0x20 }
  - { offsetInCU: 0x29199, offset: 0xBA5AA, size: 0x8, addend: 0x0, symName: __ZN5boost10error_infoINS_11throw_line_EiEC2Ei, symObjAddr: 0x1BFC4, symBinAddr: 0x100041FCC, symSize: 0x20 }
  - { offsetInCU: 0x291D1, offset: 0xBA5E2, size: 0x8, addend: 0x0, symName: __ZN5boost10error_infoINS_15throw_function_EPKcEC2ES3_, symObjAddr: 0x1BFE4, symBinAddr: 0x100041FEC, symSize: 0x20 }
  - { offsetInCU: 0x29209, offset: 0xBA61A, size: 0x8, addend: 0x0, symName: __ZN5boost10error_infoINS_13throw_column_EiEC2Ei, symObjAddr: 0x1C004, symBinAddr: 0x10004200C, symSize: 0x20 }
  - { offsetInCU: 0x29241, offset: 0xBA652, size: 0x8, addend: 0x0, symName: __ZN5boost16exception_detail12refcount_ptrINS0_20error_info_containerEED1Ev, symObjAddr: 0x1C024, symBinAddr: 0x10004202C, symSize: 0x2C }
  - { offsetInCU: 0x2926B, offset: 0xBA67C, size: 0x8, addend: 0x0, symName: __ZN5boost16exception_detail12refcount_ptrINS0_20error_info_containerEED2Ev, symObjAddr: 0x1C050, symBinAddr: 0x100042058, symSize: 0x34 }
  - { offsetInCU: 0x29295, offset: 0xBA6A6, size: 0x8, addend: 0x0, symName: __ZN5boost16exception_detail12refcount_ptrINS0_20error_info_containerEE7releaseEv, symObjAddr: 0x1C084, symBinAddr: 0x10004208C, symSize: 0x60 }
  - { offsetInCU: 0x292C0, offset: 0xBA6D1, size: 0x8, addend: 0x0, symName: __ZN5boost10wrapexceptINS_6system12system_errorEEC1ERKS3_, symObjAddr: 0x1C0E4, symBinAddr: 0x1000420EC, symSize: 0x34 }
  - { offsetInCU: 0x292FF, offset: 0xBA710, size: 0x8, addend: 0x0, symName: __ZN5boost10wrapexceptINS_6system12system_errorEE7deleterD1Ev, symObjAddr: 0x1C23C, symBinAddr: 0x100042244, symSize: 0x2C }
  - { offsetInCU: 0x29329, offset: 0xBA73A, size: 0x8, addend: 0x0, symName: __ZN5boost10wrapexceptINS_6system12system_errorEEC2ERKS3_, symObjAddr: 0x1C268, symBinAddr: 0x100042270, symSize: 0xC4 }
  - { offsetInCU: 0x29363, offset: 0xBA774, size: 0x8, addend: 0x0, symName: __ZN5boost16exception_detail10clone_baseC2ERKS1_, symObjAddr: 0x1C32C, symBinAddr: 0x100042334, symSize: 0x28 }
  - { offsetInCU: 0x2939E, offset: 0xBA7AF, size: 0x8, addend: 0x0, symName: __ZN5boost9exceptionC2ERKS0_, symObjAddr: 0x1C354, symBinAddr: 0x10004235C, symSize: 0x60 }
  - { offsetInCU: 0x293D3, offset: 0xBA7E4, size: 0x8, addend: 0x0, symName: __ZN5boost16exception_detail12refcount_ptrINS0_20error_info_containerEEC1ERKS3_, symObjAddr: 0x1C3B4, symBinAddr: 0x1000423BC, symSize: 0x34 }
  - { offsetInCU: 0x2940B, offset: 0xBA81C, size: 0x8, addend: 0x0, symName: __ZN5boost16exception_detail12refcount_ptrINS0_20error_info_containerEEC2ERKS3_, symObjAddr: 0x1C3E8, symBinAddr: 0x1000423F0, symSize: 0x3C }
  - { offsetInCU: 0x29443, offset: 0xBA854, size: 0x8, addend: 0x0, symName: __ZN5boost16exception_detail12refcount_ptrINS0_20error_info_containerEE7add_refEv, symObjAddr: 0x1C424, symBinAddr: 0x10004242C, symSize: 0x50 }
  - { offsetInCU: 0x29469, offset: 0xBA87A, size: 0x8, addend: 0x0, symName: __ZNK5boost16exception_detail12refcount_ptrINS0_20error_info_containerEE3getEv, symObjAddr: 0x1C474, symBinAddr: 0x10004247C, symSize: 0x18 }
  - { offsetInCU: 0x2948F, offset: 0xBA8A0, size: 0x8, addend: 0x0, symName: __ZN5boost16exception_detail12refcount_ptrINS0_20error_info_containerEEaSERKS3_, symObjAddr: 0x1C48C, symBinAddr: 0x100042494, symSize: 0x38 }
  - { offsetInCU: 0x294C3, offset: 0xBA8D4, size: 0x8, addend: 0x0, symName: __ZN5boost16exception_detail12refcount_ptrINS0_20error_info_containerEE5adoptEPS2_, symObjAddr: 0x1C4C4, symBinAddr: 0x1000424CC, symSize: 0x3C }
  - { offsetInCU: 0x294F7, offset: 0xBA908, size: 0x8, addend: 0x0, symName: __ZN5boost10wrapexceptINS_6system12system_errorEE7deleterD2Ev, symObjAddr: 0x1C500, symBinAddr: 0x100042508, symSize: 0x58 }
  - { offsetInCU: 0x29521, offset: 0xBA932, size: 0x8, addend: 0x0, symName: __ZN5boost10wrapexceptINS_6system12system_errorEED2Ev, symObjAddr: 0x1C558, symBinAddr: 0x100042560, symSize: 0x44 }
  - { offsetInCU: 0x2954D, offset: 0xBA95E, size: 0x8, addend: 0x0, symName: __ZN5boost4asio2ip6detail8endpoint4dataEv, symObjAddr: 0x1C59C, symBinAddr: 0x1000425A4, symSize: 0x14 }
  - { offsetInCU: 0x29573, offset: 0xBA984, size: 0x8, addend: 0x0, symName: __ZNSt3__16vectorIN5boost4asio2ip20basic_resolver_entryINS3_3tcpEEENS_9allocatorIS6_EEE9__end_capB8ue170006Ev, symObjAddr: 0x1C5B0, symBinAddr: 0x1000425B8, symSize: 0x28 }
  - { offsetInCU: 0x2959F, offset: 0xBA9B0, size: 0x8, addend: 0x0, symName: __ZNSt3__16vectorIN5boost4asio2ip20basic_resolver_entryINS3_3tcpEEENS_9allocatorIS6_EEE22__construct_one_at_endB8ue170006IJS6_EEEvDpOT_, symObjAddr: 0x1C5D8, symBinAddr: 0x1000425E0, symSize: 0x90 }
  - { offsetInCU: 0x295EF, offset: 0xBAA00, size: 0x8, addend: 0x0, symName: __ZNSt3__16vectorIN5boost4asio2ip20basic_resolver_entryINS3_3tcpEEENS_9allocatorIS6_EEE21__push_back_slow_pathIS6_EEvOT_, symObjAddr: 0x1C668, symBinAddr: 0x100042670, symSize: 0xD8 }
  - { offsetInCU: 0x2964F, offset: 0xBAA60, size: 0x8, addend: 0x0, symName: __ZNSt3__117__compressed_pairIPN5boost4asio2ip20basic_resolver_entryINS3_3tcpEEENS_9allocatorIS6_EEE5firstB8ue170006Ev, symObjAddr: 0x1C740, symBinAddr: 0x100042748, symSize: 0x24 }
  - { offsetInCU: 0x29675, offset: 0xBAA86, size: 0x8, addend: 0x0, symName: __ZNSt3__122__compressed_pair_elemIPN5boost4asio2ip20basic_resolver_entryINS3_3tcpEEELi0ELb0EE5__getB8ue170006Ev, symObjAddr: 0x1C764, symBinAddr: 0x10004276C, symSize: 0x14 }
  - { offsetInCU: 0x296B4, offset: 0xBAAC5, size: 0x8, addend: 0x0, symName: __ZNSt3__16vectorIN5boost4asio2ip20basic_resolver_entryINS3_3tcpEEENS_9allocatorIS6_EEE21_ConstructTransactionC1B8ue170006ERS9_m, symObjAddr: 0x1C778, symBinAddr: 0x100042780, symSize: 0x3C }
  - { offsetInCU: 0x296FC, offset: 0xBAB0D, size: 0x8, addend: 0x0, symName: __ZNSt3__116allocator_traitsINS_9allocatorIN5boost4asio2ip20basic_resolver_entryINS4_3tcpEEEEEE9constructB8ue170006IS7_JS7_EvEEvRS8_PT_DpOT0_, symObjAddr: 0x1C7B4, symBinAddr: 0x1000427BC, symSize: 0x34 }
  - { offsetInCU: 0x29754, offset: 0xBAB65, size: 0x8, addend: 0x0, symName: __ZNSt3__16vectorIN5boost4asio2ip20basic_resolver_entryINS3_3tcpEEENS_9allocatorIS6_EEE21_ConstructTransactionD1B8ue170006Ev, symObjAddr: 0x1C7E8, symBinAddr: 0x1000427F0, symSize: 0x2C }
  - { offsetInCU: 0x2977E, offset: 0xBAB8F, size: 0x8, addend: 0x0, symName: __ZNSt3__16vectorIN5boost4asio2ip20basic_resolver_entryINS3_3tcpEEENS_9allocatorIS6_EEE21_ConstructTransactionC2B8ue170006ERS9_m, symObjAddr: 0x1C814, symBinAddr: 0x10004281C, symSize: 0x4C }
  - { offsetInCU: 0x297C6, offset: 0xBABD7, size: 0x8, addend: 0x0, symName: __ZNSt3__19allocatorIN5boost4asio2ip20basic_resolver_entryINS3_3tcpEEEE9constructB8ue170006IS6_JS6_EEEvPT_DpOT0_, symObjAddr: 0x1C860, symBinAddr: 0x100042868, symSize: 0x30 }
  - { offsetInCU: 0x2981C, offset: 0xBAC2D, size: 0x8, addend: 0x0, symName: __ZN5boost4asio2ip20basic_resolver_entryINS1_3tcpEEC1EOS4_, symObjAddr: 0x1C890, symBinAddr: 0x100042898, symSize: 0x34 }
  - { offsetInCU: 0x29851, offset: 0xBAC62, size: 0x8, addend: 0x0, symName: __ZN5boost4asio2ip20basic_resolver_entryINS1_3tcpEEC2EOS4_, symObjAddr: 0x1C8C4, symBinAddr: 0x1000428CC, symSize: 0x5C }
  - { offsetInCU: 0x29886, offset: 0xBAC97, size: 0x8, addend: 0x0, symName: __ZN5boost4asio2ip14basic_endpointINS1_3tcpEEC1EOS4_, symObjAddr: 0x1C920, symBinAddr: 0x100042928, symSize: 0x34 }
  - { offsetInCU: 0x298BE, offset: 0xBACCF, size: 0x8, addend: 0x0, symName: __ZN5boost4asio2ip14basic_endpointINS1_3tcpEEC2EOS4_, symObjAddr: 0x1C954, symBinAddr: 0x10004295C, symSize: 0x34 }
  - { offsetInCU: 0x298F6, offset: 0xBAD07, size: 0x8, addend: 0x0, symName: __ZN5boost4asio2ip6detail8endpointC1ERKS3_, symObjAddr: 0x1C988, symBinAddr: 0x100042990, symSize: 0x34 }
  - { offsetInCU: 0x2992E, offset: 0xBAD3F, size: 0x8, addend: 0x0, symName: __ZN5boost4asio2ip6detail8endpointC2ERKS3_, symObjAddr: 0x1C9BC, symBinAddr: 0x1000429C4, symSize: 0x2C }
  - { offsetInCU: 0x29966, offset: 0xBAD77, size: 0x8, addend: 0x0, symName: __ZNSt3__16vectorIN5boost4asio2ip20basic_resolver_entryINS3_3tcpEEENS_9allocatorIS6_EEE21_ConstructTransactionD2B8ue170006Ev, symObjAddr: 0x1C9E8, symBinAddr: 0x1000429F0, symSize: 0x20 }
  - { offsetInCU: 0x29990, offset: 0xBADA1, size: 0x8, addend: 0x0, symName: __ZNKSt3__16vectorIN5boost4asio2ip20basic_resolver_entryINS3_3tcpEEENS_9allocatorIS6_EEE11__recommendB8ue170006Em, symObjAddr: 0x1CA08, symBinAddr: 0x100042A10, symSize: 0xB4 }
  - { offsetInCU: 0x299E7, offset: 0xBADF8, size: 0x8, addend: 0x0, symName: __ZNSt3__114__split_bufferIN5boost4asio2ip20basic_resolver_entryINS3_3tcpEEERNS_9allocatorIS6_EEEC1EmmS9_, symObjAddr: 0x1CABC, symBinAddr: 0x100042AC4, symSize: 0x44 }
  - { offsetInCU: 0x29A3D, offset: 0xBAE4E, size: 0x8, addend: 0x0, symName: __ZNSt3__114__split_bufferIN5boost4asio2ip20basic_resolver_entryINS3_3tcpEEERNS_9allocatorIS6_EEED1Ev, symObjAddr: 0x1CC10, symBinAddr: 0x100042C18, symSize: 0x2C }
  - { offsetInCU: 0x29A69, offset: 0xBAE7A, size: 0x8, addend: 0x0, symName: __ZNKSt3__16vectorIN5boost4asio2ip20basic_resolver_entryINS3_3tcpEEENS_9allocatorIS6_EEE8max_sizeEv, symObjAddr: 0x1CC3C, symBinAddr: 0x100042C44, symSize: 0x60 }
  - { offsetInCU: 0x29A91, offset: 0xBAEA2, size: 0x8, addend: 0x0, symName: __ZNKSt3__16vectorIN5boost4asio2ip20basic_resolver_entryINS3_3tcpEEENS_9allocatorIS6_EEE20__throw_length_errorB8ue170006Ev, symObjAddr: 0x1CC9C, symBinAddr: 0x100042CA4, symSize: 0x1C }
  - { offsetInCU: 0x29AC1, offset: 0xBAED2, size: 0x8, addend: 0x0, symName: __ZNSt3__116allocator_traitsINS_9allocatorIN5boost4asio2ip20basic_resolver_entryINS4_3tcpEEEEEE8max_sizeB8ue170006IS8_vEEmRKS8_, symObjAddr: 0x1CD10, symBinAddr: 0x100042CC0, symSize: 0x24 }
  - { offsetInCU: 0x29AF0, offset: 0xBAF01, size: 0x8, addend: 0x0, symName: __ZNKSt3__16vectorIN5boost4asio2ip20basic_resolver_entryINS3_3tcpEEENS_9allocatorIS6_EEE7__allocB8ue170006Ev, symObjAddr: 0x1CD34, symBinAddr: 0x100042CE4, symSize: 0x28 }
  - { offsetInCU: 0x29B20, offset: 0xBAF31, size: 0x8, addend: 0x0, symName: __ZNKSt3__19allocatorIN5boost4asio2ip20basic_resolver_entryINS3_3tcpEEEE8max_sizeB8ue170006Ev, symObjAddr: 0x1CDF8, symBinAddr: 0x100042D0C, symSize: 0x18 }
  - { offsetInCU: 0x29B46, offset: 0xBAF57, size: 0x8, addend: 0x0, symName: __ZNKSt3__117__compressed_pairIPN5boost4asio2ip20basic_resolver_entryINS3_3tcpEEENS_9allocatorIS6_EEE6secondB8ue170006Ev, symObjAddr: 0x1CE10, symBinAddr: 0x100042D24, symSize: 0x24 }
  - { offsetInCU: 0x29B6C, offset: 0xBAF7D, size: 0x8, addend: 0x0, symName: __ZNKSt3__122__compressed_pair_elemINS_9allocatorIN5boost4asio2ip20basic_resolver_entryINS4_3tcpEEEEELi1ELb1EE5__getB8ue170006Ev, symObjAddr: 0x1CE34, symBinAddr: 0x100042D48, symSize: 0x14 }
  - { offsetInCU: 0x29B92, offset: 0xBAFA3, size: 0x8, addend: 0x0, symName: __ZNSt3__114__split_bufferIN5boost4asio2ip20basic_resolver_entryINS3_3tcpEEERNS_9allocatorIS6_EEEC2EmmS9_, symObjAddr: 0x1CF88, symBinAddr: 0x100042D5C, symSize: 0xE0 }
  - { offsetInCU: 0x29C07, offset: 0xBB018, size: 0x8, addend: 0x0, symName: __ZNSt3__117__compressed_pairIPN5boost4asio2ip20basic_resolver_entryINS3_3tcpEEERNS_9allocatorIS6_EEEC1B8ue170006IDnSA_EEOT_OT0_, symObjAddr: 0x1D068, symBinAddr: 0x100042E3C, symSize: 0x3C }
  - { offsetInCU: 0x29C5F, offset: 0xBB070, size: 0x8, addend: 0x0, symName: __ZNSt3__114__split_bufferIN5boost4asio2ip20basic_resolver_entryINS3_3tcpEEERNS_9allocatorIS6_EEE7__allocB8ue170006Ev, symObjAddr: 0x1D0E4, symBinAddr: 0x100042EB8, symSize: 0x28 }
  - { offsetInCU: 0x29C85, offset: 0xBB096, size: 0x8, addend: 0x0, symName: __ZNSt3__114__split_bufferIN5boost4asio2ip20basic_resolver_entryINS3_3tcpEEERNS_9allocatorIS6_EEE9__end_capB8ue170006Ev, symObjAddr: 0x1D10C, symBinAddr: 0x100042EE0, symSize: 0x28 }
  - { offsetInCU: 0x29CAB, offset: 0xBB0BC, size: 0x8, addend: 0x0, symName: __ZNSt3__117__compressed_pairIPN5boost4asio2ip20basic_resolver_entryINS3_3tcpEEERNS_9allocatorIS6_EEEC2B8ue170006IDnSA_EEOT_OT0_, symObjAddr: 0x1D134, symBinAddr: 0x100042F08, symSize: 0x48 }
  - { offsetInCU: 0x29D03, offset: 0xBB114, size: 0x8, addend: 0x0, symName: __ZNSt3__122__compressed_pair_elemIRNS_9allocatorIN5boost4asio2ip20basic_resolver_entryINS4_3tcpEEEEELi1ELb0EEC2B8ue170006IS9_vEEOT_, symObjAddr: 0x1D17C, symBinAddr: 0x100042F50, symSize: 0x20 }
  - { offsetInCU: 0x29D46, offset: 0xBB157, size: 0x8, addend: 0x0, symName: __ZNSt3__19allocatorIN5boost4asio2ip20basic_resolver_entryINS3_3tcpEEEE8allocateB8ue170006Em, symObjAddr: 0x1D19C, symBinAddr: 0x100042F70, symSize: 0x5C }
  - { offsetInCU: 0x29D7A, offset: 0xBB18B, size: 0x8, addend: 0x0, symName: __ZNSt3__117__compressed_pairIPN5boost4asio2ip20basic_resolver_entryINS3_3tcpEEERNS_9allocatorIS6_EEE6secondB8ue170006Ev, symObjAddr: 0x1D2DC, symBinAddr: 0x100042FCC, symSize: 0x28 }
  - { offsetInCU: 0x29DA0, offset: 0xBB1B1, size: 0x8, addend: 0x0, symName: __ZNSt3__122__compressed_pair_elemIRNS_9allocatorIN5boost4asio2ip20basic_resolver_entryINS4_3tcpEEEEELi1ELb0EE5__getB8ue170006Ev, symObjAddr: 0x1D304, symBinAddr: 0x100042FF4, symSize: 0x18 }
  - { offsetInCU: 0x29DC6, offset: 0xBB1D7, size: 0x8, addend: 0x0, symName: __ZNSt3__117__compressed_pairIPN5boost4asio2ip20basic_resolver_entryINS3_3tcpEEERNS_9allocatorIS6_EEE5firstB8ue170006Ev, symObjAddr: 0x1D31C, symBinAddr: 0x10004300C, symSize: 0x24 }
  - { offsetInCU: 0x29DEC, offset: 0xBB1FD, size: 0x8, addend: 0x0, symName: __ZNSt3__116reverse_iteratorIPN5boost4asio2ip20basic_resolver_entryINS3_3tcpEEEEC1B8ue170006ES7_, symObjAddr: 0x1D46C, symBinAddr: 0x10004315C, symSize: 0x34 }
  - { offsetInCU: 0x29E24, offset: 0xBB235, size: 0x8, addend: 0x0, symName: __ZNKSt3__116reverse_iteratorIPN5boost4asio2ip20basic_resolver_entryINS3_3tcpEEEE4baseB8ue170006Ev, symObjAddr: 0x1D4A0, symBinAddr: 0x100043190, symSize: 0x18 }
  - { offsetInCU: 0x29E4A, offset: 0xBB25B, size: 0x8, addend: 0x0, symName: __ZNKSt3__16vectorIN5boost4asio2ip20basic_resolver_entryINS3_3tcpEEENS_9allocatorIS6_EEE14__annotate_newB8ue170006Em, symObjAddr: 0x1D4F4, symBinAddr: 0x1000431E4, symSize: 0xC8 }
  - { offsetInCU: 0x29E7F, offset: 0xBB290, size: 0x8, addend: 0x0, symName: __ZNSt3__129_AllocatorDestroyRangeReverseINS_9allocatorIN5boost4asio2ip20basic_resolver_entryINS4_3tcpEEEEENS_16reverse_iteratorIPS7_EEEC1B8ue170006ERS8_RSB_SE_, symObjAddr: 0x1D608, symBinAddr: 0x1000432F8, symSize: 0x44 }
  - { offsetInCU: 0x29ED6, offset: 0xBB2E7, size: 0x8, addend: 0x0, symName: __ZNKSt3__116reverse_iteratorIPN5boost4asio2ip20basic_resolver_entryINS3_3tcpEEEEdeB8ue170006Ev, symObjAddr: 0x1D6B8, symBinAddr: 0x1000433A8, symSize: 0x28 }
  - { offsetInCU: 0x29F0A, offset: 0xBB31B, size: 0x8, addend: 0x0, symName: __ZNSt3__116reverse_iteratorIPN5boost4asio2ip20basic_resolver_entryINS3_3tcpEEEEppB8ue170006Ev, symObjAddr: 0x1D6E0, symBinAddr: 0x1000433D0, symSize: 0x20 }
  - { offsetInCU: 0x29F30, offset: 0xBB341, size: 0x8, addend: 0x0, symName: __ZNSt3__128__exception_guard_exceptionsINS_29_AllocatorDestroyRangeReverseINS_9allocatorIN5boost4asio2ip20basic_resolver_entryINS5_3tcpEEEEENS_16reverse_iteratorIPS8_EEEEE10__completeB8ue170006Ev, symObjAddr: 0x1D700, symBinAddr: 0x1000433F0, symSize: 0x1C }
  - { offsetInCU: 0x29F56, offset: 0xBB367, size: 0x8, addend: 0x0, symName: __ZNSt3__128__exception_guard_exceptionsINS_29_AllocatorDestroyRangeReverseINS_9allocatorIN5boost4asio2ip20basic_resolver_entryINS5_3tcpEEEEENS_16reverse_iteratorIPS8_EEEEED1B8ue170006Ev, symObjAddr: 0x1D71C, symBinAddr: 0x10004340C, symSize: 0x2C }
  - { offsetInCU: 0x29F80, offset: 0xBB391, size: 0x8, addend: 0x0, symName: __ZNSt3__128__exception_guard_exceptionsINS_29_AllocatorDestroyRangeReverseINS_9allocatorIN5boost4asio2ip20basic_resolver_entryINS5_3tcpEEEEENS_16reverse_iteratorIPS8_EEEEEC1B8ue170006ESD_, symObjAddr: 0x1D748, symBinAddr: 0x100043438, symSize: 0x34 }
  - { offsetInCU: 0x29FB9, offset: 0xBB3CA, size: 0x8, addend: 0x0, symName: __ZNSt3__128__exception_guard_exceptionsINS_29_AllocatorDestroyRangeReverseINS_9allocatorIN5boost4asio2ip20basic_resolver_entryINS5_3tcpEEEEENS_16reverse_iteratorIPS8_EEEEEC2B8ue170006ESD_, symObjAddr: 0x1D77C, symBinAddr: 0x10004346C, symSize: 0x30 }
  - { offsetInCU: 0x29FF2, offset: 0xBB403, size: 0x8, addend: 0x0, symName: __ZNSt3__129_AllocatorDestroyRangeReverseINS_9allocatorIN5boost4asio2ip20basic_resolver_entryINS4_3tcpEEEEENS_16reverse_iteratorIPS7_EEEC2B8ue170006ERS8_RSB_SE_, symObjAddr: 0x1D7AC, symBinAddr: 0x10004349C, symSize: 0x38 }
  - { offsetInCU: 0x2A04E, offset: 0xBB45F, size: 0x8, addend: 0x0, symName: __ZNSt3__119__to_address_helperINS_16reverse_iteratorIPN5boost4asio2ip20basic_resolver_entryINS4_3tcpEEEEEvE6__callB8ue170006ERKS9_, symObjAddr: 0x1D7E4, symBinAddr: 0x1000434D4, symSize: 0x38 }
  - { offsetInCU: 0x2A071, offset: 0xBB482, size: 0x8, addend: 0x0, symName: __ZNKSt3__116reverse_iteratorIPN5boost4asio2ip20basic_resolver_entryINS3_3tcpEEEEptB8ue170006Ev, symObjAddr: 0x1D81C, symBinAddr: 0x10004350C, symSize: 0x24 }
  - { offsetInCU: 0x2A097, offset: 0xBB4A8, size: 0x8, addend: 0x0, symName: __ZNSt3__128__exception_guard_exceptionsINS_29_AllocatorDestroyRangeReverseINS_9allocatorIN5boost4asio2ip20basic_resolver_entryINS5_3tcpEEEEENS_16reverse_iteratorIPS8_EEEEED2B8ue170006Ev, symObjAddr: 0x1D840, symBinAddr: 0x100043530, symSize: 0x50 }
  - { offsetInCU: 0x2A0C1, offset: 0xBB4D2, size: 0x8, addend: 0x0, symName: __ZNKSt3__129_AllocatorDestroyRangeReverseINS_9allocatorIN5boost4asio2ip20basic_resolver_entryINS4_3tcpEEEEENS_16reverse_iteratorIPS7_EEEclB8ue170006Ev, symObjAddr: 0x1D890, symBinAddr: 0x100043580, symSize: 0xB4 }
  - { offsetInCU: 0x2A0E8, offset: 0xBB4F9, size: 0x8, addend: 0x0, symName: __ZNSt3__116reverse_iteratorINS0_IPN5boost4asio2ip20basic_resolver_entryINS3_3tcpEEEEEEC1B8ue170006ES8_, symObjAddr: 0x1D9B4, symBinAddr: 0x1000436A4, symSize: 0x3C }
  - { offsetInCU: 0x2A120, offset: 0xBB531, size: 0x8, addend: 0x0, symName: __ZNSt3__116reverse_iteratorINS0_IPN5boost4asio2ip20basic_resolver_entryINS3_3tcpEEEEEEppB8ue170006Ev, symObjAddr: 0x1DA74, symBinAddr: 0x100043764, symSize: 0x30 }
  - { offsetInCU: 0x2A146, offset: 0xBB557, size: 0x8, addend: 0x0, symName: __ZNKSt3__116reverse_iteratorINS0_IPN5boost4asio2ip20basic_resolver_entryINS3_3tcpEEEEEE4baseB8ue170006Ev, symObjAddr: 0x1DAA4, symBinAddr: 0x100043794, symSize: 0x24 }
  - { offsetInCU: 0x2A171, offset: 0xBB582, size: 0x8, addend: 0x0, symName: __ZNSt3__119__to_address_helperINS_16reverse_iteratorINS1_IPN5boost4asio2ip20basic_resolver_entryINS4_3tcpEEEEEEEvE6__callB8ue170006ERKSA_, symObjAddr: 0x1DAC8, symBinAddr: 0x1000437B8, symSize: 0x38 }
  - { offsetInCU: 0x2A194, offset: 0xBB5A5, size: 0x8, addend: 0x0, symName: __ZNKSt3__116reverse_iteratorINS0_IPN5boost4asio2ip20basic_resolver_entryINS3_3tcpEEEEEEptB8ue170006Ev, symObjAddr: 0x1DB00, symBinAddr: 0x1000437F0, symSize: 0x24 }
  - { offsetInCU: 0x2A1BA, offset: 0xBB5CB, size: 0x8, addend: 0x0, symName: __ZNKSt3__116reverse_iteratorINS0_IPN5boost4asio2ip20basic_resolver_entryINS3_3tcpEEEEEEdeB8ue170006Ev, symObjAddr: 0x1DB24, symBinAddr: 0x100043814, symSize: 0x34 }
  - { offsetInCU: 0x2A1EE, offset: 0xBB5FF, size: 0x8, addend: 0x0, symName: __ZNSt3__116reverse_iteratorIPN5boost4asio2ip20basic_resolver_entryINS3_3tcpEEEEmmB8ue170006Ev, symObjAddr: 0x1DB58, symBinAddr: 0x100043848, symSize: 0x20 }
  - { offsetInCU: 0x2A214, offset: 0xBB625, size: 0x8, addend: 0x0, symName: __ZNSt3__116reverse_iteratorINS0_IPN5boost4asio2ip20basic_resolver_entryINS3_3tcpEEEEEEC2B8ue170006ES8_, symObjAddr: 0x1DB78, symBinAddr: 0x100043868, symSize: 0x2C }
  - { offsetInCU: 0x2A24C, offset: 0xBB65D, size: 0x8, addend: 0x0, symName: __ZNSt3__116reverse_iteratorIPN5boost4asio2ip20basic_resolver_entryINS3_3tcpEEEEC2B8ue170006ES7_, symObjAddr: 0x1DBA4, symBinAddr: 0x100043894, symSize: 0x28 }
  - { offsetInCU: 0x2A284, offset: 0xBB695, size: 0x8, addend: 0x0, symName: __ZNSt3__114__split_bufferIN5boost4asio2ip20basic_resolver_entryINS3_3tcpEEERNS_9allocatorIS6_EEED2Ev, symObjAddr: 0x1DBCC, symBinAddr: 0x1000438BC, symSize: 0x8C }
  - { offsetInCU: 0x2A2B0, offset: 0xBB6C1, size: 0x8, addend: 0x0, symName: __ZNSt3__114__split_bufferIN5boost4asio2ip20basic_resolver_entryINS3_3tcpEEERNS_9allocatorIS6_EEE5clearB8ue170006Ev, symObjAddr: 0x1DC58, symBinAddr: 0x100043948, symSize: 0x28 }
  - { offsetInCU: 0x2A2D6, offset: 0xBB6E7, size: 0x8, addend: 0x0, symName: __ZNKSt3__114__split_bufferIN5boost4asio2ip20basic_resolver_entryINS3_3tcpEEERNS_9allocatorIS6_EEE8capacityB8ue170006Ev, symObjAddr: 0x1DC80, symBinAddr: 0x100043970, symSize: 0x40 }
  - { offsetInCU: 0x2A2FC, offset: 0xBB70D, size: 0x8, addend: 0x0, symName: __ZNSt3__114__split_bufferIN5boost4asio2ip20basic_resolver_entryINS3_3tcpEEERNS_9allocatorIS6_EEE17__destruct_at_endB8ue170006EPS6_, symObjAddr: 0x1DCC0, symBinAddr: 0x1000439B0, symSize: 0x2C }
  - { offsetInCU: 0x2A330, offset: 0xBB741, size: 0x8, addend: 0x0, symName: __ZNSt3__114__split_bufferIN5boost4asio2ip20basic_resolver_entryINS3_3tcpEEERNS_9allocatorIS6_EEE17__destruct_at_endB8ue170006EPS6_NS_17integral_constantIbLb0EEE, symObjAddr: 0x1DCEC, symBinAddr: 0x1000439DC, symSize: 0x80 }
  - { offsetInCU: 0x2A371, offset: 0xBB782, size: 0x8, addend: 0x0, symName: __ZNKSt3__114__split_bufferIN5boost4asio2ip20basic_resolver_entryINS3_3tcpEEERNS_9allocatorIS6_EEE9__end_capB8ue170006Ev, symObjAddr: 0x1DD6C, symBinAddr: 0x100043A5C, symSize: 0x28 }
  - { offsetInCU: 0x2A397, offset: 0xBB7A8, size: 0x8, addend: 0x0, symName: __ZNKSt3__117__compressed_pairIPN5boost4asio2ip20basic_resolver_entryINS3_3tcpEEERNS_9allocatorIS6_EEE5firstB8ue170006Ev, symObjAddr: 0x1DD94, symBinAddr: 0x100043A84, symSize: 0x24 }
  - { offsetInCU: 0x2A3BD, offset: 0xBB7CE, size: 0x8, addend: 0x0, symName: __ZN5boost4asio2ip20basic_resolver_entryINS1_3tcpEEC2ERKNS1_14basic_endpointIS3_EENSt3__117basic_string_viewIcNS9_11char_traitsIcEEEESD_, symObjAddr: 0x1DDB8, symBinAddr: 0x100043AA8, symSize: 0xA0 }
  - { offsetInCU: 0x2A411, offset: 0xBB822, size: 0x8, addend: 0x0, symName: __ZN5boost4asio2ip14basic_endpointINS1_3tcpEEC1ERKS4_, symObjAddr: 0x1DE58, symBinAddr: 0x100043B48, symSize: 0x34 }
  - { offsetInCU: 0x2A449, offset: 0xBB85A, size: 0x8, addend: 0x0, symName: __ZN5boost4asio2ip14basic_endpointINS1_3tcpEEC2ERKS4_, symObjAddr: 0x1DE8C, symBinAddr: 0x100043B7C, symSize: 0x34 }
  - { offsetInCU: 0x2A481, offset: 0xBB892, size: 0x8, addend: 0x0, symName: __ZN5boost4asio2ip20basic_resolver_entryINS1_3tcpEED2Ev, symObjAddr: 0x1DEC0, symBinAddr: 0x100043BB0, symSize: 0x3C }
  - { offsetInCU: 0x2A4AD, offset: 0xBB8BE, size: 0x8, addend: 0x0, symName: __ZN5boost4asio6detail21resolver_service_base13auto_addrinfoD2Ev, symObjAddr: 0x1DEFC, symBinAddr: 0x100043BEC, symSize: 0x64 }
  - { offsetInCU: 0x2A4D7, offset: 0xBB8E8, size: 0x8, addend: 0x0, symName: __ZN5boost6system12system_errorC1ERKNS0_10error_codeEPKc, symObjAddr: 0x1DFF8, symBinAddr: 0x100043CD4, symSize: 0x3C }
  - { offsetInCU: 0x2A51D, offset: 0xBB92E, size: 0x8, addend: 0x0, symName: __ZN5boost6system12system_errorC2ERKNS0_10error_codeEPKc, symObjAddr: 0x1E034, symBinAddr: 0x100043D10, symSize: 0x14C }
  - { offsetInCU: 0x2A563, offset: 0xBB974, size: 0x8, addend: 0x0, symName: __ZN5boost15source_locationC2EPKcjS2_j, symObjAddr: 0x1E1C0, symBinAddr: 0x100043E5C, symSize: 0x44 }
  - { offsetInCU: 0x2A5C5, offset: 0xBB9D6, size: 0x8, addend: 0x0, symName: __ZN5boost4asio2ip20basic_resolver_queryINS1_3tcpEED2Ev, symObjAddr: 0x1E204, symBinAddr: 0x100043EA0, symSize: 0x44 }
  - { offsetInCU: 0x2A5F1, offset: 0xBBA02, size: 0x8, addend: 0x0, symName: __ZNSt3__117basic_string_viewIcNS_11char_traitsIcEEEC1B8ue170006EPKcm, symObjAddr: 0x1E248, symBinAddr: 0x100043EE4, symSize: 0x3C }
  - { offsetInCU: 0x2A639, offset: 0xBBA4A, size: 0x8, addend: 0x0, symName: __ZNSt3__117basic_string_viewIcNS_11char_traitsIcEEEC2B8ue170006EPKcm, symObjAddr: 0x1E284, symBinAddr: 0x100043F20, symSize: 0x2C }
  - { offsetInCU: 0x2A681, offset: 0xBBA92, size: 0x8, addend: 0x0, symName: __ZNK5boost4asio2ip22basic_resolver_resultsINS1_3tcpEE5beginEv, symObjAddr: 0x1E6B4, symBinAddr: 0x100044350, symSize: 0x70 }
  - { offsetInCU: 0x2A6B5, offset: 0xBBAC6, size: 0x8, addend: 0x0, symName: __ZNK5boost4asio2ip22basic_resolver_resultsINS1_3tcpEE3endEv, symObjAddr: 0x1E724, symBinAddr: 0x1000443C0, symSize: 0x34 }
  - { offsetInCU: 0x2A6DB, offset: 0xBBAEC, size: 0x8, addend: 0x0, symName: __ZN5boost4asio2ip23basic_resolver_iteratorINS1_3tcpEED1Ev, symObjAddr: 0x1E758, symBinAddr: 0x1000443F4, symSize: 0x2C }
  - { offsetInCU: 0x2A707, offset: 0xBBB18, size: 0x8, addend: 0x0, symName: __ZNK5boost4asio2ip23basic_resolver_iteratorINS1_3tcpEEdeEv, symObjAddr: 0x1E784, symBinAddr: 0x100044420, symSize: 0x24 }
  - { offsetInCU: 0x2A72D, offset: 0xBBB3E, size: 0x8, addend: 0x0, symName: __ZNK5boost4asio2ip20basic_resolver_entryINS1_3tcpEEcvNS1_14basic_endpointIS3_EEEv, symObjAddr: 0x1E7A8, symBinAddr: 0x100044444, symSize: 0x38 }
  - { offsetInCU: 0x2A753, offset: 0xBBB64, size: 0x8, addend: 0x0, symName: __ZNK5boost4asio2ip23basic_resolver_iteratorINS1_3tcpEE11dereferenceEv, symObjAddr: 0x1E7E0, symBinAddr: 0x10004447C, symSize: 0x34 }
  - { offsetInCU: 0x2A779, offset: 0xBBB8A, size: 0x8, addend: 0x0, symName: __ZNKSt3__110shared_ptrINS_6vectorIN5boost4asio2ip20basic_resolver_entryINS4_3tcpEEENS_9allocatorIS7_EEEEEdeB8ue170006Ev, symObjAddr: 0x1E814, symBinAddr: 0x1000444B0, symSize: 0x18 }
  - { offsetInCU: 0x2A79F, offset: 0xBBBB0, size: 0x8, addend: 0x0, symName: __ZNSt3__16vectorIN5boost4asio2ip20basic_resolver_entryINS3_3tcpEEENS_9allocatorIS6_EEEixB8ue170006Em, symObjAddr: 0x1E82C, symBinAddr: 0x1000444C8, symSize: 0x2C }
  - { offsetInCU: 0x2A7D6, offset: 0xBBBE7, size: 0x8, addend: 0x0, symName: __ZN5boost4asio2ip23basic_resolver_iteratorINS1_3tcpEEC1ERKS4_, symObjAddr: 0x1E858, symBinAddr: 0x1000444F4, symSize: 0x34 }
  - { offsetInCU: 0x2A80E, offset: 0xBBC1F, size: 0x8, addend: 0x0, symName: __ZN5boost4asio2ip23basic_resolver_iteratorINS1_3tcpEEaSEOS4_, symObjAddr: 0x1E974, symBinAddr: 0x100044610, symSize: 0x68 }
  - { offsetInCU: 0x2A842, offset: 0xBBC53, size: 0x8, addend: 0x0, symName: __ZN5boost4asio12basic_socketINS0_2ip3tcpENS0_15any_io_executorEE5closeERNS_6system10error_codeE, symObjAddr: 0x1E9DC, symBinAddr: 0x100044678, symSize: 0x70 }
  - { offsetInCU: 0x2A877, offset: 0xBBC88, size: 0x8, addend: 0x0, symName: __ZN5boost4asio12basic_socketINS0_2ip3tcpENS0_15any_io_executorEE7connectERKNS2_14basic_endpointIS3_EERNS_6system10error_codeE, symObjAddr: 0x1EA4C, symBinAddr: 0x1000446E8, symSize: 0xFC }
  - { offsetInCU: 0x2A8BB, offset: 0xBBCCC, size: 0x8, addend: 0x0, symName: __ZN5boost4asio2ip23basic_resolver_iteratorINS1_3tcpEEppEv, symObjAddr: 0x1EB48, symBinAddr: 0x1000447E4, symSize: 0x2C }
  - { offsetInCU: 0x2A8E6, offset: 0xBBCF7, size: 0x8, addend: 0x0, symName: __ZN5boost6system10error_codeaSINS_4asio5error11misc_errorsEEERNSt3__19enable_ifIXsr18is_error_code_enumIT_EE5valueES1_E4typeES8_, symObjAddr: 0x1EB74, symBinAddr: 0x100044810, symSize: 0x50 }
  - { offsetInCU: 0x2A923, offset: 0xBBD34, size: 0x8, addend: 0x0, symName: __ZN5boost4asio2ip23basic_resolver_iteratorINS1_3tcpEEC1EOS4_, symObjAddr: 0x1EBC4, symBinAddr: 0x100044860, symSize: 0x34 }
  - { offsetInCU: 0x2A95B, offset: 0xBBD6C, size: 0x8, addend: 0x0, symName: __ZN5boost4asio2ip23basic_resolver_iteratorINS1_3tcpEEC2ERKS4_, symObjAddr: 0x1EBF8, symBinAddr: 0x100044894, symSize: 0x40 }
  - { offsetInCU: 0x2A993, offset: 0xBBDA4, size: 0x8, addend: 0x0, symName: __ZNSt3__110shared_ptrINS_6vectorIN5boost4asio2ip20basic_resolver_entryINS4_3tcpEEENS_9allocatorIS7_EEEEEC1B8ue170006ERKSB_, symObjAddr: 0x1EC38, symBinAddr: 0x1000448D4, symSize: 0x34 }
  - { offsetInCU: 0x2A9CC, offset: 0xBBDDD, size: 0x8, addend: 0x0, symName: __ZNSt3__110shared_ptrINS_6vectorIN5boost4asio2ip20basic_resolver_entryINS4_3tcpEEENS_9allocatorIS7_EEEEEC2B8ue170006ERKSB_, symObjAddr: 0x1EC6C, symBinAddr: 0x100044908, symSize: 0x70 }
  - { offsetInCU: 0x2AA05, offset: 0xBBE16, size: 0x8, addend: 0x0, symName: __ZNK5boost4asio2ip23basic_resolver_iteratorINS1_3tcpEE5equalERKS4_, symObjAddr: 0x1ED58, symBinAddr: 0x100044978, symSize: 0xB0 }
  - { offsetInCU: 0x2AA39, offset: 0xBBE4A, size: 0x8, addend: 0x0, symName: __ZNKSt3__110shared_ptrINS_6vectorIN5boost4asio2ip20basic_resolver_entryINS4_3tcpEEENS_9allocatorIS7_EEEEEcvbB8ue170006Ev, symObjAddr: 0x1EE08, symBinAddr: 0x100044A28, symSize: 0x30 }
  - { offsetInCU: 0x2AA5F, offset: 0xBBE70, size: 0x8, addend: 0x0, symName: __ZNKSt3__110shared_ptrINS_6vectorIN5boost4asio2ip20basic_resolver_entryINS4_3tcpEEENS_9allocatorIS7_EEEEE3getB8ue170006Ev, symObjAddr: 0x1EE6C, symBinAddr: 0x100044A8C, symSize: 0x18 }
  - { offsetInCU: 0x2AA8A, offset: 0xBBE9B, size: 0x8, addend: 0x0, symName: __ZN5boost4asio6detail25default_connect_conditionclINS0_2ip20basic_resolver_entryINS4_3tcpEEEEEbRKNS_6system10error_codeERKT_, symObjAddr: 0x1EECC, symBinAddr: 0x100044AEC, symSize: 0x20 }
  - { offsetInCU: 0x2AACF, offset: 0xBBEE0, size: 0x8, addend: 0x0, symName: __ZNSt3__110shared_ptrINS_6vectorIN5boost4asio2ip20basic_resolver_entryINS4_3tcpEEENS_9allocatorIS7_EEEEEaSB8ue170006EOSB_, symObjAddr: 0x1EEEC, symBinAddr: 0x100044B0C, symSize: 0x50 }
  - { offsetInCU: 0x2AB04, offset: 0xBBF15, size: 0x8, addend: 0x0, symName: __ZNSt3__110shared_ptrINS_6vectorIN5boost4asio2ip20basic_resolver_entryINS4_3tcpEEENS_9allocatorIS7_EEEEEC1B8ue170006EOSB_, symObjAddr: 0x1EF3C, symBinAddr: 0x100044B5C, symSize: 0x34 }
  - { offsetInCU: 0x2AB3D, offset: 0xBBF4E, size: 0x8, addend: 0x0, symName: __ZNSt3__110shared_ptrINS_6vectorIN5boost4asio2ip20basic_resolver_entryINS4_3tcpEEENS_9allocatorIS7_EEEEEC2B8ue170006EOSB_, symObjAddr: 0x1EF70, symBinAddr: 0x100044B90, symSize: 0x40 }
  - { offsetInCU: 0x2AB76, offset: 0xBBF87, size: 0x8, addend: 0x0, symName: __ZN5boost4asio6detail14io_object_implINS1_23reactive_socket_serviceINS0_2ip3tcpEEENS0_15any_io_executorEE11get_serviceEv, symObjAddr: 0x1EFB0, symBinAddr: 0x100044BD0, symSize: 0x18 }
  - { offsetInCU: 0x2AB9C, offset: 0xBBFAD, size: 0x8, addend: 0x0, symName: __ZN5boost4asio6detail28reactive_socket_service_base5closeERNS2_24base_implementation_typeERNS_6system10error_codeE, symObjAddr: 0x1EFC8, symBinAddr: 0x100044BE8, symSize: 0xEC }
  - { offsetInCU: 0x2ABE5, offset: 0xBBFF6, size: 0x8, addend: 0x0, symName: __ZN5boost4asio6detail14io_object_implINS1_23reactive_socket_serviceINS0_2ip3tcpEEENS0_15any_io_executorEE18get_implementationEv, symObjAddr: 0x1F0B4, symBinAddr: 0x100044CD4, symSize: 0x18 }
  - { offsetInCU: 0x2AC0B, offset: 0xBC01C, size: 0x8, addend: 0x0, symName: __ZNK5boost4asio6detail28reactive_socket_service_base7is_openERKNS2_24base_implementation_typeE, symObjAddr: 0x1F0CC, symBinAddr: 0x100044CEC, symSize: 0x28 }
  - { offsetInCU: 0x2AC3F, offset: 0xBC050, size: 0x8, addend: 0x0, symName: __ZN5boost4asio6detail14kqueue_reactor21deregister_descriptorEiRPNS2_16descriptor_stateEb, symObjAddr: 0x1F0F4, symBinAddr: 0x100044D14, symSize: 0x2F0 }
  - { offsetInCU: 0x2AD5D, offset: 0xBC16E, size: 0x8, addend: 0x0, symName: __ZN5boost4asio6detail14kqueue_reactor23cleanup_descriptor_dataERPNS2_16descriptor_stateE, symObjAddr: 0x1F638, symBinAddr: 0x100045258, symSize: 0x5C }
  - { offsetInCU: 0x2AD98, offset: 0xBC1A9, size: 0x8, addend: 0x0, symName: __ZN5boost4asio6detail28reactive_socket_service_base9constructERNS2_24base_implementation_typeE, symObjAddr: 0x1F694, symBinAddr: 0x1000452B4, symSize: 0x30 }
  - { offsetInCU: 0x2ADD1, offset: 0xBC1E2, size: 0x8, addend: 0x0, symName: __ZN5boost4asio6detail8op_queueINS1_19scheduler_operationEEC1Ev, symObjAddr: 0x1F6F8, symBinAddr: 0x1000452E4, symSize: 0x2C }
  - { offsetInCU: 0x2ADFB, offset: 0xBC20C, size: 0x8, addend: 0x0, symName: __ZN5boost4asio6detail8op_queueINS1_10reactor_opEE5frontEv, symObjAddr: 0x1F724, symBinAddr: 0x100045310, symSize: 0x18 }
  - { offsetInCU: 0x2AE21, offset: 0xBC232, size: 0x8, addend: 0x0, symName: __ZN5boost6system10error_codeaSINS_4asio5error12basic_errorsEEERNSt3__19enable_ifIXsr18is_error_code_enumIT_EE5valueES1_E4typeES8_, symObjAddr: 0x1F73C, symBinAddr: 0x100045328, symSize: 0x48 }
  - { offsetInCU: 0x2AE5E, offset: 0xBC26F, size: 0x8, addend: 0x0, symName: __ZN5boost4asio6detail8op_queueINS1_10reactor_opEE3popEv, symObjAddr: 0x1F784, symBinAddr: 0x100045370, symSize: 0x84 }
  - { offsetInCU: 0x2AEA1, offset: 0xBC2B2, size: 0x8, addend: 0x0, symName: __ZN5boost4asio6detail8op_queueINS1_19scheduler_operationEE4pushEPS3_, symObjAddr: 0x1F808, symBinAddr: 0x1000453F4, symSize: 0x80 }
  - { offsetInCU: 0x2AED5, offset: 0xBC2E6, size: 0x8, addend: 0x0, symName: __ZN5boost4asio6detail27conditionally_enabled_mutex11scoped_lock6unlockEv, symObjAddr: 0x1F888, symBinAddr: 0x100045474, symSize: 0x48 }
  - { offsetInCU: 0x2AEFB, offset: 0xBC30C, size: 0x8, addend: 0x0, symName: __ZN5boost4asio6detail9scheduler25post_deferred_completionsERNS1_8op_queueINS1_19scheduler_operationEEE, symObjAddr: 0x1F8D0, symBinAddr: 0x1000454BC, symSize: 0xE0 }
  - { offsetInCU: 0x2AF66, offset: 0xBC377, size: 0x8, addend: 0x0, symName: __ZN5boost4asio6detail8op_queueINS1_19scheduler_operationEED1Ev, symObjAddr: 0x1F9B0, symBinAddr: 0x10004559C, symSize: 0x2C }
  - { offsetInCU: 0x2AF90, offset: 0xBC3A1, size: 0x8, addend: 0x0, symName: __ZN5boost4asio6detail8op_queueINS1_19scheduler_operationEEC2Ev, symObjAddr: 0x1FAD4, symBinAddr: 0x1000455C8, symSize: 0x34 }
  - { offsetInCU: 0x2AFBA, offset: 0xBC3CB, size: 0x8, addend: 0x0, symName: __ZN5boost4asio6detail15op_queue_access4nextINS1_10reactor_opEEEPT_S6_, symObjAddr: 0x1FB08, symBinAddr: 0x1000455FC, symSize: 0x18 }
  - { offsetInCU: 0x2AFEB, offset: 0xBC3FC, size: 0x8, addend: 0x0, symName: __ZN5boost4asio6detail15op_queue_access4nextINS1_10reactor_opES4_EEvRPT_PT0_, symObjAddr: 0x1FB20, symBinAddr: 0x100045614, symSize: 0x24 }
  - { offsetInCU: 0x2B033, offset: 0xBC444, size: 0x8, addend: 0x0, symName: __ZN5boost4asio6detail15op_queue_access4nextINS1_19scheduler_operationES4_EEvRPT_PT0_, symObjAddr: 0x1FB44, symBinAddr: 0x100045638, symSize: 0x24 }
  - { offsetInCU: 0x2B076, offset: 0xBC487, size: 0x8, addend: 0x0, symName: __ZN5boost4asio6detail27conditionally_enabled_mutex6unlockEv, symObjAddr: 0x1FB68, symBinAddr: 0x10004565C, symSize: 0x40 }
  - { offsetInCU: 0x2B09C, offset: 0xBC4AD, size: 0x8, addend: 0x0, symName: __ZNK5boost4asio6detail8op_queueINS1_19scheduler_operationEE5emptyEv, symObjAddr: 0x1FBCC, symBinAddr: 0x10004569C, symSize: 0x24 }
  - { offsetInCU: 0x2B0C2, offset: 0xBC4D3, size: 0x8, addend: 0x0, symName: __ZN5boost4asio6detail10call_stackINS1_14thread_contextENS1_16thread_info_baseEE8containsEPS3_, symObjAddr: 0x1FBF0, symBinAddr: 0x1000456C0, symSize: 0x8C }
  - { offsetInCU: 0x2B0F3, offset: 0xBC504, size: 0x8, addend: 0x0, symName: __ZN5boost4asio6detail8op_queueINS1_19scheduler_operationEE4pushIS3_EEvRNS2_IT_EE, symObjAddr: 0x1FC7C, symBinAddr: 0x10004574C, symSize: 0xB8 }
  - { offsetInCU: 0x2B145, offset: 0xBC556, size: 0x8, addend: 0x0, symName: __ZN5boost4asio6detail9scheduler26wake_one_thread_and_unlockERNS1_27conditionally_enabled_mutex11scoped_lockE, symObjAddr: 0x1FD34, symBinAddr: 0x100045804, symSize: 0x90 }
  - { offsetInCU: 0x2B180, offset: 0xBC591, size: 0x8, addend: 0x0, symName: __ZNK5boost4asio6detail15keyword_tss_ptrINS1_10call_stackINS1_14thread_contextENS1_16thread_info_baseEE7contextEEcvPS7_Ev, symObjAddr: 0x1FDC4, symBinAddr: 0x100045894, symSize: 0x30 }
  - { offsetInCU: 0x2B1A6, offset: 0xBC5B7, size: 0x8, addend: 0x0, symName: __ZN5boost4asio6detail15op_queue_access5frontINS1_19scheduler_operationEEERPT_RNS1_8op_queueIS5_EE, symObjAddr: 0x1FDF4, symBinAddr: 0x1000458C4, symSize: 0x14 }
  - { offsetInCU: 0x2B1D2, offset: 0xBC5E3, size: 0x8, addend: 0x0, symName: __ZN5boost4asio6detail15op_queue_access4backINS1_19scheduler_operationEEERPT_RNS1_8op_queueIS5_EE, symObjAddr: 0x1FE08, symBinAddr: 0x1000458D8, symSize: 0x18 }
  - { offsetInCU: 0x2B1FE, offset: 0xBC60F, size: 0x8, addend: 0x0, symName: __ZN5boost4asio6detail27conditionally_enabled_event27maybe_unlock_and_signal_oneERNS1_27conditionally_enabled_mutex11scoped_lockE, symObjAddr: 0x1FE20, symBinAddr: 0x1000458F0, symSize: 0x78 }
  - { offsetInCU: 0x2B232, offset: 0xBC643, size: 0x8, addend: 0x0, symName: __ZN5boost4asio6detail11posix_event27maybe_unlock_and_signal_oneINS1_27conditionally_enabled_mutex11scoped_lockEEEbRT_, symObjAddr: 0x1FE98, symBinAddr: 0x100045968, symSize: 0xC0 }
  - { offsetInCU: 0x2B26F, offset: 0xBC680, size: 0x8, addend: 0x0, symName: __ZN5boost4asio6detail8op_queueINS1_19scheduler_operationEED2Ev, symObjAddr: 0x1FF74, symBinAddr: 0x100045A28, symSize: 0x78 }
  - { offsetInCU: 0x2B2AE, offset: 0xBC6BF, size: 0x8, addend: 0x0, symName: __ZN5boost4asio6detail8op_queueINS1_19scheduler_operationEE3popEv, symObjAddr: 0x1FFEC, symBinAddr: 0x100045AA0, symSize: 0x84 }
  - { offsetInCU: 0x2B2F1, offset: 0xBC702, size: 0x8, addend: 0x0, symName: __ZN5boost4asio6detail15op_queue_access7destroyINS1_19scheduler_operationEEEvPT_, symObjAddr: 0x20070, symBinAddr: 0x100045B24, symSize: 0x24 }
  - { offsetInCU: 0x2B31D, offset: 0xBC72E, size: 0x8, addend: 0x0, symName: __ZN5boost4asio6detail15op_queue_access4nextINS1_19scheduler_operationEEEPT_S6_, symObjAddr: 0x20094, symBinAddr: 0x100045B48, symSize: 0x18 }
  - { offsetInCU: 0x2B349, offset: 0xBC75A, size: 0x8, addend: 0x0, symName: __ZN5boost4asio6detail19scheduler_operation7destroyEv, symObjAddr: 0x200AC, symBinAddr: 0x100045B60, symSize: 0x50 }
  - { offsetInCU: 0x2B36F, offset: 0xBC780, size: 0x8, addend: 0x0, symName: __ZNKSt3__114error_categoryeqB8ue170006ERKS0_, symObjAddr: 0x20670, symBinAddr: 0x1000460C4, symSize: 0x28 }
  - { offsetInCU: 0x2B3A3, offset: 0xBC7B4, size: 0x8, addend: 0x0, symName: __ZN5boost4asio6detail14kqueue_reactor21free_descriptor_stateEPNS2_16descriptor_stateE, symObjAddr: 0x20698, symBinAddr: 0x1000460EC, symSize: 0x70 }
  - { offsetInCU: 0x2B3EF, offset: 0xBC800, size: 0x8, addend: 0x0, symName: __ZN5boost4asio6detail11object_poolINS1_14kqueue_reactor16descriptor_stateEE4freeEPS4_, symObjAddr: 0x20708, symBinAddr: 0x10004615C, symSize: 0x11C }
  - { offsetInCU: 0x2B428, offset: 0xBC839, size: 0x8, addend: 0x0, symName: __ZN5boost4asio6detail18object_pool_access4nextINS1_14kqueue_reactor16descriptor_stateEEERPT_S7_, symObjAddr: 0x20824, symBinAddr: 0x100046278, symSize: 0x14 }
  - { offsetInCU: 0x2B454, offset: 0xBC865, size: 0x8, addend: 0x0, symName: __ZN5boost4asio6detail18object_pool_access4prevINS1_14kqueue_reactor16descriptor_stateEEERPT_S7_, symObjAddr: 0x20838, symBinAddr: 0x10004628C, symSize: 0x18 }
  - { offsetInCU: 0x2B480, offset: 0xBC891, size: 0x8, addend: 0x0, symName: __ZNK5boost4asio12basic_socketINS0_2ip3tcpENS0_15any_io_executorEE7is_openEv, symObjAddr: 0x20850, symBinAddr: 0x1000462A4, symSize: 0x4C }
  - { offsetInCU: 0x2B4A6, offset: 0xBC8B7, size: 0x8, addend: 0x0, symName: __ZNK5boost4asio6detail14io_object_implINS1_23reactive_socket_serviceINS0_2ip3tcpEEENS0_15any_io_executorEE11get_serviceEv, symObjAddr: 0x20A0C, symBinAddr: 0x100046460, symSize: 0x18 }
  - { offsetInCU: 0x2B4CC, offset: 0xBC8DD, size: 0x8, addend: 0x0, symName: __ZNK5boost4asio6detail14io_object_implINS1_23reactive_socket_serviceINS0_2ip3tcpEEENS0_15any_io_executorEE18get_implementationEv, symObjAddr: 0x20A24, symBinAddr: 0x100046478, symSize: 0x18 }
  - { offsetInCU: 0x2B4F2, offset: 0xBC903, size: 0x8, addend: 0x0, symName: __ZN5boost4asio6detail28reactive_socket_service_base7do_openERNS2_24base_implementation_typeEiiiRNS_6system10error_codeE, symObjAddr: 0x20A3C, symBinAddr: 0x100046490, symSize: 0x268 }
  - { offsetInCU: 0x2B593, offset: 0xBC9A4, size: 0x8, addend: 0x0, symName: __ZNK5boost4asio2ip3tcp6familyEv, symObjAddr: 0x20CA4, symBinAddr: 0x1000466F8, symSize: 0x18 }
  - { offsetInCU: 0x2B5C8, offset: 0xBC9D9, size: 0x8, addend: 0x0, symName: __ZN5boost4asio6detail13socket_holderC1Ei, symObjAddr: 0x20DA4, symBinAddr: 0x1000467F8, symSize: 0x34 }
  - { offsetInCU: 0x2B602, offset: 0xBCA13, size: 0x8, addend: 0x0, symName: __ZNK5boost4asio6detail13socket_holder3getEv, symObjAddr: 0x20DD8, symBinAddr: 0x10004682C, symSize: 0x18 }
  - { offsetInCU: 0x2B628, offset: 0xBCA39, size: 0x8, addend: 0x0, symName: __ZN5boost4asio6detail14kqueue_reactor19register_descriptorEiRPNS2_16descriptor_stateE, symObjAddr: 0x20DF0, symBinAddr: 0x100046844, symSize: 0x88 }
  - { offsetInCU: 0x2B681, offset: 0xBCA92, size: 0x8, addend: 0x0, symName: __ZN5boost4asio6detail13socket_holder7releaseEv, symObjAddr: 0x20E78, symBinAddr: 0x1000468CC, symSize: 0x28 }
  - { offsetInCU: 0x2B6B7, offset: 0xBCAC8, size: 0x8, addend: 0x0, symName: __ZN5boost4asio6detail13socket_holderD1Ev, symObjAddr: 0x20EA0, symBinAddr: 0x1000468F4, symSize: 0x2C }
  - { offsetInCU: 0x2B6E1, offset: 0xBCAF2, size: 0x8, addend: 0x0, symName: __ZN5boost4asio6detail13socket_holderC2Ei, symObjAddr: 0x20ECC, symBinAddr: 0x100046920, symSize: 0x38 }
  - { offsetInCU: 0x2B71B, offset: 0xBCB2C, size: 0x8, addend: 0x0, symName: __ZN5boost4asio6detail14kqueue_reactor25allocate_descriptor_stateEv, symObjAddr: 0x20F04, symBinAddr: 0x100046958, symSize: 0xA4 }
  - { offsetInCU: 0x2B756, offset: 0xBCB67, size: 0x8, addend: 0x0, symName: __ZN5boost4asio6detail11object_poolINS1_14kqueue_reactor16descriptor_stateEE5allocIbEEPS4_T_, symObjAddr: 0x20FA8, symBinAddr: 0x1000469FC, symSize: 0xEC }
  - { offsetInCU: 0x2B7A1, offset: 0xBCBB2, size: 0x8, addend: 0x0, symName: __ZNK5boost4asio6detail9scheduler16concurrency_hintEv, symObjAddr: 0x21094, symBinAddr: 0x100046AE8, symSize: 0x18 }
  - { offsetInCU: 0x2B7C7, offset: 0xBCBD8, size: 0x8, addend: 0x0, symName: __ZN5boost4asio6detail18object_pool_access6createINS1_14kqueue_reactor16descriptor_stateEbEEPT_T0_, symObjAddr: 0x210AC, symBinAddr: 0x100046B00, symSize: 0x68 }
  - { offsetInCU: 0x2B7FC, offset: 0xBCC0D, size: 0x8, addend: 0x0, symName: __ZN5boost4asio6detail14kqueue_reactor16descriptor_stateC1Eb, symObjAddr: 0x21114, symBinAddr: 0x100046B68, symSize: 0x40 }
  - { offsetInCU: 0x2B834, offset: 0xBCC45, size: 0x8, addend: 0x0, symName: __ZN5boost4asio6detail14kqueue_reactor16descriptor_stateC2Eb, symObjAddr: 0x21154, symBinAddr: 0x100046BA8, symSize: 0x104 }
  - { offsetInCU: 0x2B86C, offset: 0xBCC7D, size: 0x8, addend: 0x0, symName: __ZN5boost4asio6detail27conditionally_enabled_mutexC1Eb, symObjAddr: 0x21258, symBinAddr: 0x100046CAC, symSize: 0x40 }
  - { offsetInCU: 0x2B8A4, offset: 0xBCCB5, size: 0x8, addend: 0x0, symName: __ZN5boost4asio6detail8op_queueINS1_10reactor_opEEC1Ev, symObjAddr: 0x21298, symBinAddr: 0x100046CEC, symSize: 0x2C }
  - { offsetInCU: 0x2B8CE, offset: 0xBCCDF, size: 0x8, addend: 0x0, symName: __ZN5boost4asio6detail8op_queueINS1_10reactor_opEED1Ev, symObjAddr: 0x212C4, symBinAddr: 0x100046D18, symSize: 0x2C }
  - { offsetInCU: 0x2B8F8, offset: 0xBCD09, size: 0x8, addend: 0x0, symName: __ZN5boost4asio6detail27conditionally_enabled_mutexD1Ev, symObjAddr: 0x212F0, symBinAddr: 0x100046D44, symSize: 0x2C }
  - { offsetInCU: 0x2B922, offset: 0xBCD33, size: 0x8, addend: 0x0, symName: __ZN5boost4asio6detail27conditionally_enabled_mutexC2Eb, symObjAddr: 0x2131C, symBinAddr: 0x100046D70, symSize: 0x74 }
  - { offsetInCU: 0x2B95A, offset: 0xBCD6B, size: 0x8, addend: 0x0, symName: __ZN5boost4asio6detail11posix_mutexC1Ev, symObjAddr: 0x21390, symBinAddr: 0x100046DE4, symSize: 0x2C }
  - { offsetInCU: 0x2B986, offset: 0xBCD97, size: 0x8, addend: 0x0, symName: __ZN5boost4asio6detail11posix_mutexC2Ev, symObjAddr: 0x213BC, symBinAddr: 0x100046E10, symSize: 0xC8 }
  - { offsetInCU: 0x2B9D5, offset: 0xBCDE6, size: 0x8, addend: 0x0, symName: __ZN5boost4asio6detail8op_queueINS1_10reactor_opEEC2Ev, symObjAddr: 0x21484, symBinAddr: 0x100046ED8, symSize: 0x34 }
  - { offsetInCU: 0x2B9FF, offset: 0xBCE10, size: 0x8, addend: 0x0, symName: __ZN5boost4asio6detail8op_queueINS1_10reactor_opEED2Ev, symObjAddr: 0x214B8, symBinAddr: 0x100046F0C, symSize: 0x78 }
  - { offsetInCU: 0x2BA3E, offset: 0xBCE4F, size: 0x8, addend: 0x0, symName: __ZN5boost4asio6detail15op_queue_access7destroyINS1_10reactor_opEEEvPT_, symObjAddr: 0x21530, symBinAddr: 0x100046F84, symSize: 0x24 }
  - { offsetInCU: 0x2BA6A, offset: 0xBCE7B, size: 0x8, addend: 0x0, symName: __ZN5boost4asio6detail27conditionally_enabled_mutexD2Ev, symObjAddr: 0x21554, symBinAddr: 0x100046FA8, symSize: 0x38 }
  - { offsetInCU: 0x2BA94, offset: 0xBCEA5, size: 0x8, addend: 0x0, symName: __ZN5boost4asio6detail13socket_holderD2Ev, symObjAddr: 0x215F4, symBinAddr: 0x100046FE0, symSize: 0x84 }
  - { offsetInCU: 0x2BAE5, offset: 0xBCEF6, size: 0x8, addend: 0x0, symName: __ZNK5boost4asio2ip14basic_endpointINS1_3tcpEE4dataEv, symObjAddr: 0x217C4, symBinAddr: 0x1000471B0, symSize: 0x24 }
  - { offsetInCU: 0x2BB0B, offset: 0xBCF1C, size: 0x8, addend: 0x0, symName: __ZNK5boost4asio2ip14basic_endpointINS1_3tcpEE4sizeEv, symObjAddr: 0x217E8, symBinAddr: 0x1000471D4, symSize: 0x24 }
  - { offsetInCU: 0x2BB31, offset: 0xBCF42, size: 0x8, addend: 0x0, symName: __ZNK5boost4asio2ip6detail8endpoint4dataEv, symObjAddr: 0x21B94, symBinAddr: 0x100047580, symSize: 0x14 }
  - { offsetInCU: 0x2BB57, offset: 0xBCF68, size: 0x8, addend: 0x0, symName: __ZNK5boost4asio2ip6detail8endpoint4sizeEv, symObjAddr: 0x21BA8, symBinAddr: 0x100047594, symSize: 0x48 }
  - { offsetInCU: 0x2BB7D, offset: 0xBCF8E, size: 0x8, addend: 0x0, symName: __ZN5boost4asio2ip23basic_resolver_iteratorINS1_3tcpEE9incrementEv, symObjAddr: 0x21BF0, symBinAddr: 0x1000475DC, symSize: 0x64 }
  - { offsetInCU: 0x2BBA3, offset: 0xBCFB4, size: 0x8, addend: 0x0, symName: __ZNSt3__110shared_ptrINS_6vectorIN5boost4asio2ip20basic_resolver_entryINS4_3tcpEEENS_9allocatorIS7_EEEEE5resetB8ue170006Ev, symObjAddr: 0x21C54, symBinAddr: 0x100047640, symSize: 0x44 }
  - { offsetInCU: 0x2BBC9, offset: 0xBCFDA, size: 0x8, addend: 0x0, symName: __ZN5boost4asio2ip23basic_resolver_iteratorINS1_3tcpEEC2EOS4_, symObjAddr: 0x21CD4, symBinAddr: 0x1000476C0, symSize: 0x48 }
  - { offsetInCU: 0x2BC01, offset: 0xBD012, size: 0x8, addend: 0x0, symName: __ZN5boost4asio2ip22basic_resolver_resultsINS1_3tcpEEC1ERKS4_, symObjAddr: 0x21D1C, symBinAddr: 0x100047708, symSize: 0x34 }
  - { offsetInCU: 0x2BC39, offset: 0xBD04A, size: 0x8, addend: 0x0, symName: __ZN5boost4asio2ip22basic_resolver_resultsINS1_3tcpEEC2ERKS4_, symObjAddr: 0x21D50, symBinAddr: 0x10004773C, symSize: 0x34 }
  - { offsetInCU: 0x2BC71, offset: 0xBD082, size: 0x8, addend: 0x0, symName: __ZN5boost4asio2ip23basic_resolver_iteratorINS1_3tcpEEC1Ev, symObjAddr: 0x21D84, symBinAddr: 0x100047770, symSize: 0x2C }
  - { offsetInCU: 0x2BC9B, offset: 0xBD0AC, size: 0x8, addend: 0x0, symName: __ZN5boost4asio2ip23basic_resolver_iteratorINS1_3tcpEED2Ev, symObjAddr: 0x21DB0, symBinAddr: 0x10004779C, symSize: 0x2C }
  - { offsetInCU: 0x2BCE0, offset: 0xBD0F1, size: 0x8, addend: 0x0, symName: __ZN5boost4asio6detail17consuming_buffersINS0_12const_bufferENS0_17mutable_buffers_1EPKNS0_14mutable_bufferEEC1ERKS4_, symObjAddr: 0x21F50, symBinAddr: 0x10004793C, symSize: 0x34 }
  - { offsetInCU: 0x2BD1A, offset: 0xBD12B, size: 0x8, addend: 0x0, symName: __ZNK5boost4asio6detail23consuming_single_bufferINS0_15const_buffers_1EE5emptyEv, symObjAddr: 0x21F84, symBinAddr: 0x100047970, symSize: 0x3C }
  - { offsetInCU: 0x2BD45, offset: 0xBD156, size: 0x8, addend: 0x0, symName: __ZN5boost4asio6detail14transfer_all_tclINS_6system10error_codeEEEmRKT_m, symObjAddr: 0x21FD4, symBinAddr: 0x1000479C0, symSize: 0x54 }
  - { offsetInCU: 0x2BD8D, offset: 0xBD19E, size: 0x8, addend: 0x0, symName: __ZNK5boost4asio6detail23consuming_single_bufferINS0_15const_buffers_1EE14total_consumedEv, symObjAddr: 0x22028, symBinAddr: 0x100047A14, symSize: 0x18 }
  - { offsetInCU: 0x2BDB3, offset: 0xBD1C4, size: 0x8, addend: 0x0, symName: __ZN5boost4asio6detail23consuming_single_bufferINS0_15const_buffers_1EE7consumeEm, symObjAddr: 0x22040, symBinAddr: 0x100047A2C, symSize: 0x28 }
  - { offsetInCU: 0x2BDE9, offset: 0xBD1FA, size: 0x8, addend: 0x0, symName: __ZN5boost4asio19basic_stream_socketINS0_2ip3tcpENS0_15any_io_executorEE10write_someINS0_15const_buffers_1EEEmRKT_RNS_6system10error_codeE, symObjAddr: 0x22068, symBinAddr: 0x100047A54, symSize: 0x5C }
  - { offsetInCU: 0x2BE3A, offset: 0xBD24B, size: 0x8, addend: 0x0, symName: __ZN5boost4asio6detail23consuming_single_bufferINS0_15const_buffers_1EE7prepareEm, symObjAddr: 0x220C4, symBinAddr: 0x100047AB0, symSize: 0x54 }
  - { offsetInCU: 0x2BE70, offset: 0xBD281, size: 0x8, addend: 0x0, symName: __ZN5boost4asio6detail17consuming_buffersINS0_12const_bufferENS0_17mutable_buffers_1EPKNS0_14mutable_bufferEEC2ERKS4_, symObjAddr: 0x22118, symBinAddr: 0x100047B04, symSize: 0x34 }
  - { offsetInCU: 0x2BEAA, offset: 0xBD2BB, size: 0x8, addend: 0x0, symName: __ZN5boost4asio6detail23consuming_single_bufferINS0_15const_buffers_1EEC2INS0_17mutable_buffers_1EEERKT_, symObjAddr: 0x2214C, symBinAddr: 0x100047B38, symSize: 0x4C }
  - { offsetInCU: 0x2BEED, offset: 0xBD2FE, size: 0x8, addend: 0x0, symName: __ZN5boost4asio12const_bufferC1ERKNS0_14mutable_bufferE, symObjAddr: 0x22198, symBinAddr: 0x100047B84, symSize: 0x34 }
  - { offsetInCU: 0x2BF25, offset: 0xBD336, size: 0x8, addend: 0x0, symName: __ZN5boost4asio15const_buffers_1C1ERKNS0_12const_bufferE, symObjAddr: 0x221CC, symBinAddr: 0x100047BB8, symSize: 0x34 }
  - { offsetInCU: 0x2BF5E, offset: 0xBD36F, size: 0x8, addend: 0x0, symName: __ZN5boost4asio12const_bufferC2ERKNS0_14mutable_bufferE, symObjAddr: 0x22200, symBinAddr: 0x100047BEC, symSize: 0x4C }
  - { offsetInCU: 0x2BF96, offset: 0xBD3A7, size: 0x8, addend: 0x0, symName: __ZNK5boost4asio14mutable_buffer4dataEv, symObjAddr: 0x2224C, symBinAddr: 0x100047C38, symSize: 0x18 }
  - { offsetInCU: 0x2BFBC, offset: 0xBD3CD, size: 0x8, addend: 0x0, symName: __ZNK5boost4asio14mutable_buffer4sizeEv, symObjAddr: 0x22264, symBinAddr: 0x100047C50, symSize: 0x18 }
  - { offsetInCU: 0x2BFE2, offset: 0xBD3F3, size: 0x8, addend: 0x0, symName: __ZN5boost4asio15const_buffers_1C2ERKNS0_12const_bufferE, symObjAddr: 0x2227C, symBinAddr: 0x100047C68, symSize: 0x24 }
  - { offsetInCU: 0x2C01B, offset: 0xBD42C, size: 0x8, addend: 0x0, symName: __ZNK5boost4asio12const_buffer4sizeEv, symObjAddr: 0x222A0, symBinAddr: 0x100047C8C, symSize: 0x18 }
  - { offsetInCU: 0x2C041, offset: 0xBD452, size: 0x8, addend: 0x0, symName: __ZN5boost4asio6detail28reactive_socket_service_base4sendINS0_15const_buffers_1EEEmRNS2_24base_implementation_typeERKT_iRNS_6system10error_codeE, symObjAddr: 0x222B8, symBinAddr: 0x100047CA4, symSize: 0x9C }
  - { offsetInCU: 0x2C0F8, offset: 0xBD509, size: 0x8, addend: 0x0, symName: __ZN5boost4asio6detail23buffer_sequence_adapterINS0_12const_bufferENS0_15const_buffers_1EE5firstERKS4_, symObjAddr: 0x224FC, symBinAddr: 0x100047EE8, symSize: 0x24 }
  - { offsetInCU: 0x2C11E, offset: 0xBD52F, size: 0x8, addend: 0x0, symName: __ZNK5boost4asio12const_buffer4dataEv, symObjAddr: 0x22520, symBinAddr: 0x100047F0C, symSize: 0x18 }
  - { offsetInCU: 0x2C144, offset: 0xBD555, size: 0x8, addend: 0x0, symName: __ZN5boost4asio15const_buffers_1C1EPKvm, symObjAddr: 0x227D0, symBinAddr: 0x1000481BC, symSize: 0x3C }
  - { offsetInCU: 0x2C18C, offset: 0xBD59D, size: 0x8, addend: 0x0, symName: __ZN5boost4asio15const_buffers_1C2EPKvm, symObjAddr: 0x2280C, symBinAddr: 0x1000481F8, symSize: 0x3C }
  - { offsetInCU: 0x2C1D4, offset: 0xBD5E5, size: 0x8, addend: 0x0, symName: __ZN5boost4asio12const_bufferC2EPKvm, symObjAddr: 0x22848, symBinAddr: 0x100048234, symSize: 0x2C }
  - { offsetInCU: 0x2C21A, offset: 0xBD62B, size: 0x8, addend: 0x0, symName: __ZN5boost4asio12const_bufferC1EPKvm, symObjAddr: 0x22874, symBinAddr: 0x100048260, symSize: 0x3C }
  - { offsetInCU: 0x2C260, offset: 0xBD671, size: 0x8, addend: 0x0, symName: __ZN5boost4asio17mutable_buffers_1C1EPvm, symObjAddr: 0x228B0, symBinAddr: 0x10004829C, symSize: 0x3C }
  - { offsetInCU: 0x2C2A6, offset: 0xBD6B7, size: 0x8, addend: 0x0, symName: __ZN5boost4asio17mutable_buffers_1C2EPvm, symObjAddr: 0x228EC, symBinAddr: 0x1000482D8, symSize: 0x3C }
  - { offsetInCU: 0x2C2EC, offset: 0xBD6FD, size: 0x8, addend: 0x0, symName: __ZN5boost4asio14mutable_bufferC2EPvm, symObjAddr: 0x22928, symBinAddr: 0x100048314, symSize: 0x2C }
  - { offsetInCU: 0x2C332, offset: 0xBD743, size: 0x8, addend: 0x0, symName: __ZN5boost4asio15basic_streambufINSt3__19allocatorIcEEEC2EmRKS4_, symObjAddr: 0x22A84, symBinAddr: 0x100048340, symSize: 0x1A4 }
  - { offsetInCU: 0x2C38D, offset: 0xBD79E, size: 0x8, addend: 0x0, symName: __ZNSt3__16vectorIcNS_9allocatorIcEEEC1B8ue170006ERKS2_, symObjAddr: 0x22C28, symBinAddr: 0x1000484E4, symSize: 0x34 }
  - { offsetInCU: 0x2C3C6, offset: 0xBD7D7, size: 0x8, addend: 0x0, symName: __ZNSt3__16vectorIcNS_9allocatorIcEEE6resizeEm, symObjAddr: 0x22C5C, symBinAddr: 0x100048518, symSize: 0x94 }
  - { offsetInCU: 0x2C40D, offset: 0xBD81E, size: 0x8, addend: 0x0, symName: __ZNSt3__115basic_streambufIcNS_11char_traitsIcEEE4setgB8ue170006EPcS4_S4_, symObjAddr: 0x22CF0, symBinAddr: 0x1000485AC, symSize: 0x38 }
  - { offsetInCU: 0x2C45D, offset: 0xBD86E, size: 0x8, addend: 0x0, symName: __ZNSt3__16vectorIcNS_9allocatorIcEEEixB8ue170006Em, symObjAddr: 0x22D28, symBinAddr: 0x1000485E4, symSize: 0x24 }
  - { offsetInCU: 0x2C494, offset: 0xBD8A5, size: 0x8, addend: 0x0, symName: __ZNSt3__115basic_streambufIcNS_11char_traitsIcEEE4setpB8ue170006EPcS4_, symObjAddr: 0x22D4C, symBinAddr: 0x100048608, symSize: 0x30 }
  - { offsetInCU: 0x2C4D8, offset: 0xBD8E9, size: 0x8, addend: 0x0, symName: __ZNSt3__16vectorIcNS_9allocatorIcEEED1B8ue170006Ev, symObjAddr: 0x22D7C, symBinAddr: 0x100048638, symSize: 0x2C }
  - { offsetInCU: 0x2C502, offset: 0xBD913, size: 0x8, addend: 0x0, symName: __ZN5boost4asio15basic_streambufINSt3__19allocatorIcEEED0Ev, symObjAddr: 0x22DA8, symBinAddr: 0x100048664, symSize: 0x30 }
  - { offsetInCU: 0x2C52E, offset: 0xBD93F, size: 0x8, addend: 0x0, symName: __ZN5boost4asio15basic_streambufINSt3__19allocatorIcEEE9underflowEv, symObjAddr: 0x22DD8, symBinAddr: 0x100048694, symSize: 0xBC }
  - { offsetInCU: 0x2C554, offset: 0xBD965, size: 0x8, addend: 0x0, symName: __ZN5boost4asio15basic_streambufINSt3__19allocatorIcEEE8overflowEi, symObjAddr: 0x22E94, symBinAddr: 0x100048750, symSize: 0x158 }
  - { offsetInCU: 0x2C5A8, offset: 0xBD9B9, size: 0x8, addend: 0x0, symName: __ZNSt3__16vectorIcNS_9allocatorIcEEEC2B8ue170006ERKS2_, symObjAddr: 0x22FEC, symBinAddr: 0x1000488A8, symSize: 0x50 }
  - { offsetInCU: 0x2C5E1, offset: 0xBD9F2, size: 0x8, addend: 0x0, symName: __ZNSt3__117__compressed_pairIPcNS_9allocatorIcEEEC1B8ue170006IDnRKS3_EEOT_OT0_, symObjAddr: 0x2303C, symBinAddr: 0x1000488F8, symSize: 0x3C }
  - { offsetInCU: 0x2C639, offset: 0xBDA4A, size: 0x8, addend: 0x0, symName: __ZNSt3__117__compressed_pairIPcNS_9allocatorIcEEEC2B8ue170006IDnRKS3_EEOT_OT0_, symObjAddr: 0x23078, symBinAddr: 0x100048934, symSize: 0x44 }
  - { offsetInCU: 0x2C691, offset: 0xBDAA2, size: 0x8, addend: 0x0, symName: __ZNSt3__122__compressed_pair_elemIPcLi0ELb0EEC2B8ue170006IDnvEEOT_, symObjAddr: 0x230BC, symBinAddr: 0x100048978, symSize: 0x1C }
  - { offsetInCU: 0x2C6D4, offset: 0xBDAE5, size: 0x8, addend: 0x0, symName: __ZNKSt3__16vectorIcNS_9allocatorIcEEE4sizeB8ue170006Ev, symObjAddr: 0x230F0, symBinAddr: 0x100048994, symSize: 0x20 }
  - { offsetInCU: 0x2C6FA, offset: 0xBDB0B, size: 0x8, addend: 0x0, symName: __ZNSt3__16vectorIcNS_9allocatorIcEEE8__appendEm, symObjAddr: 0x23110, symBinAddr: 0x1000489B4, symSize: 0x100 }
  - { offsetInCU: 0x2C758, offset: 0xBDB69, size: 0x8, addend: 0x0, symName: __ZNSt3__16vectorIcNS_9allocatorIcEEE17__destruct_at_endB8ue170006EPc, symObjAddr: 0x23210, symBinAddr: 0x100048AB4, symSize: 0x4C }
  - { offsetInCU: 0x2C79D, offset: 0xBDBAE, size: 0x8, addend: 0x0, symName: __ZNSt3__16vectorIcNS_9allocatorIcEEE9__end_capB8ue170006Ev, symObjAddr: 0x2325C, symBinAddr: 0x100048B00, symSize: 0x28 }
  - { offsetInCU: 0x2C7C3, offset: 0xBDBD4, size: 0x8, addend: 0x0, symName: __ZNSt3__16vectorIcNS_9allocatorIcEEE18__construct_at_endEm, symObjAddr: 0x23284, symBinAddr: 0x100048B28, symSize: 0xC8 }
  - { offsetInCU: 0x2C839, offset: 0xBDC4A, size: 0x8, addend: 0x0, symName: __ZNSt3__16vectorIcNS_9allocatorIcEEE7__allocB8ue170006Ev, symObjAddr: 0x2334C, symBinAddr: 0x100048BF0, symSize: 0x28 }
  - { offsetInCU: 0x2C85F, offset: 0xBDC70, size: 0x8, addend: 0x0, symName: __ZNKSt3__16vectorIcNS_9allocatorIcEEE11__recommendB8ue170006Em, symObjAddr: 0x23374, symBinAddr: 0x100048C18, symSize: 0xB4 }
  - { offsetInCU: 0x2C8B6, offset: 0xBDCC7, size: 0x8, addend: 0x0, symName: __ZNSt3__114__split_bufferIcRNS_9allocatorIcEEEC1EmmS3_, symObjAddr: 0x23428, symBinAddr: 0x100048CCC, symSize: 0x44 }
  - { offsetInCU: 0x2C90C, offset: 0xBDD1D, size: 0x8, addend: 0x0, symName: __ZNSt3__114__split_bufferIcRNS_9allocatorIcEEE18__construct_at_endEm, symObjAddr: 0x2346C, symBinAddr: 0x100048D10, symSize: 0xB4 }
  - { offsetInCU: 0x2C952, offset: 0xBDD63, size: 0x8, addend: 0x0, symName: __ZNSt3__114__split_bufferIcRNS_9allocatorIcEEED1Ev, symObjAddr: 0x23630, symBinAddr: 0x100048ED4, symSize: 0x2C }
  - { offsetInCU: 0x2C97E, offset: 0xBDD8F, size: 0x8, addend: 0x0, symName: __ZNSt3__117__compressed_pairIPcNS_9allocatorIcEEE5firstB8ue170006Ev, symObjAddr: 0x2365C, symBinAddr: 0x100048F00, symSize: 0x24 }
  - { offsetInCU: 0x2C9A4, offset: 0xBDDB5, size: 0x8, addend: 0x0, symName: __ZNSt3__122__compressed_pair_elemIPcLi0ELb0EE5__getB8ue170006Ev, symObjAddr: 0x23680, symBinAddr: 0x100048F24, symSize: 0x14 }
  - { offsetInCU: 0x2C9E3, offset: 0xBDDF4, size: 0x8, addend: 0x0, symName: __ZNSt3__16vectorIcNS_9allocatorIcEEE21_ConstructTransactionC1B8ue170006ERS3_m, symObjAddr: 0x23694, symBinAddr: 0x100048F38, symSize: 0x3C }
  - { offsetInCU: 0x2CA2B, offset: 0xBDE3C, size: 0x8, addend: 0x0, symName: __ZNSt3__116allocator_traitsINS_9allocatorIcEEE9constructB8ue170006IcJEvEEvRS2_PT_DpOT0_, symObjAddr: 0x236D0, symBinAddr: 0x100048F74, symSize: 0x2C }
  - { offsetInCU: 0x2CA6F, offset: 0xBDE80, size: 0x8, addend: 0x0, symName: __ZNSt3__16vectorIcNS_9allocatorIcEEE21_ConstructTransactionD1B8ue170006Ev, symObjAddr: 0x236FC, symBinAddr: 0x100048FA0, symSize: 0x2C }
  - { offsetInCU: 0x2CA99, offset: 0xBDEAA, size: 0x8, addend: 0x0, symName: __ZNSt3__16vectorIcNS_9allocatorIcEEE21_ConstructTransactionC2B8ue170006ERS3_m, symObjAddr: 0x23728, symBinAddr: 0x100048FCC, symSize: 0x44 }
  - { offsetInCU: 0x2CAE1, offset: 0xBDEF2, size: 0x8, addend: 0x0, symName: __ZNSt3__19allocatorIcE9constructB8ue170006IcJEEEvPT_DpOT0_, symObjAddr: 0x2376C, symBinAddr: 0x100049010, symSize: 0x1C }
  - { offsetInCU: 0x2CB24, offset: 0xBDF35, size: 0x8, addend: 0x0, symName: __ZNSt3__16vectorIcNS_9allocatorIcEEE21_ConstructTransactionD2B8ue170006Ev, symObjAddr: 0x23788, symBinAddr: 0x10004902C, symSize: 0x20 }
  - { offsetInCU: 0x2CB4E, offset: 0xBDF5F, size: 0x8, addend: 0x0, symName: __ZNSt3__117__compressed_pairIPcNS_9allocatorIcEEE6secondB8ue170006Ev, symObjAddr: 0x237A8, symBinAddr: 0x10004904C, symSize: 0x24 }
  - { offsetInCU: 0x2CB74, offset: 0xBDF85, size: 0x8, addend: 0x0, symName: __ZNKSt3__16vectorIcNS_9allocatorIcEEE8max_sizeEv, symObjAddr: 0x237E0, symBinAddr: 0x100049070, symSize: 0x60 }
  - { offsetInCU: 0x2CB9C, offset: 0xBDFAD, size: 0x8, addend: 0x0, symName: __ZNKSt3__16vectorIcNS_9allocatorIcEEE20__throw_length_errorB8ue170006Ev, symObjAddr: 0x23840, symBinAddr: 0x1000490D0, symSize: 0x1C }
  - { offsetInCU: 0x2CBC2, offset: 0xBDFD3, size: 0x8, addend: 0x0, symName: __ZNKSt3__16vectorIcNS_9allocatorIcEEE8capacityB8ue170006Ev, symObjAddr: 0x2385C, symBinAddr: 0x1000490EC, symSize: 0x38 }
  - { offsetInCU: 0x2CBF2, offset: 0xBE003, size: 0x8, addend: 0x0, symName: __ZNKSt3__16vectorIcNS_9allocatorIcEEE7__allocB8ue170006Ev, symObjAddr: 0x238B8, symBinAddr: 0x100049124, symSize: 0x28 }
  - { offsetInCU: 0x2CC18, offset: 0xBE029, size: 0x8, addend: 0x0, symName: __ZNKSt3__117__compressed_pairIPcNS_9allocatorIcEEE6secondB8ue170006Ev, symObjAddr: 0x238F4, symBinAddr: 0x10004914C, symSize: 0x24 }
  - { offsetInCU: 0x2CC3E, offset: 0xBE04F, size: 0x8, addend: 0x0, symName: __ZNKSt3__16vectorIcNS_9allocatorIcEEE9__end_capB8ue170006Ev, symObjAddr: 0x2392C, symBinAddr: 0x100049170, symSize: 0x28 }
  - { offsetInCU: 0x2CC64, offset: 0xBE075, size: 0x8, addend: 0x0, symName: __ZNKSt3__117__compressed_pairIPcNS_9allocatorIcEEE5firstB8ue170006Ev, symObjAddr: 0x23954, symBinAddr: 0x100049198, symSize: 0x24 }
  - { offsetInCU: 0x2CC8A, offset: 0xBE09B, size: 0x8, addend: 0x0, symName: __ZNKSt3__122__compressed_pair_elemIPcLi0ELb0EE5__getB8ue170006Ev, symObjAddr: 0x23978, symBinAddr: 0x1000491BC, symSize: 0x14 }
  - { offsetInCU: 0x2CCB0, offset: 0xBE0C1, size: 0x8, addend: 0x0, symName: __ZNSt3__114__split_bufferIcRNS_9allocatorIcEEEC2EmmS3_, symObjAddr: 0x2398C, symBinAddr: 0x1000491D0, symSize: 0xD4 }
  - { offsetInCU: 0x2CD25, offset: 0xBE136, size: 0x8, addend: 0x0, symName: __ZNSt3__117__compressed_pairIPcRNS_9allocatorIcEEEC1B8ue170006IDnS4_EEOT_OT0_, symObjAddr: 0x23A60, symBinAddr: 0x1000492A4, symSize: 0x3C }
  - { offsetInCU: 0x2CD7D, offset: 0xBE18E, size: 0x8, addend: 0x0, symName: __ZNSt3__114__split_bufferIcRNS_9allocatorIcEEE7__allocB8ue170006Ev, symObjAddr: 0x23ADC, symBinAddr: 0x1000492E0, symSize: 0x28 }
  - { offsetInCU: 0x2CDA3, offset: 0xBE1B4, size: 0x8, addend: 0x0, symName: __ZNSt3__114__split_bufferIcRNS_9allocatorIcEEE9__end_capB8ue170006Ev, symObjAddr: 0x23B04, symBinAddr: 0x100049308, symSize: 0x28 }
  - { offsetInCU: 0x2CDC9, offset: 0xBE1DA, size: 0x8, addend: 0x0, symName: __ZNSt3__117__compressed_pairIPcRNS_9allocatorIcEEEC2B8ue170006IDnS4_EEOT_OT0_, symObjAddr: 0x23B2C, symBinAddr: 0x100049330, symSize: 0x48 }
  - { offsetInCU: 0x2CE21, offset: 0xBE232, size: 0x8, addend: 0x0, symName: __ZNSt3__122__compressed_pair_elemIRNS_9allocatorIcEELi1ELb0EEC2B8ue170006IS3_vEEOT_, symObjAddr: 0x23B74, symBinAddr: 0x100049378, symSize: 0x20 }
  - { offsetInCU: 0x2CE64, offset: 0xBE275, size: 0x8, addend: 0x0, symName: __ZNSt3__117__compressed_pairIPcRNS_9allocatorIcEEE6secondB8ue170006Ev, symObjAddr: 0x23BEC, symBinAddr: 0x100049398, symSize: 0x28 }
  - { offsetInCU: 0x2CE8A, offset: 0xBE29B, size: 0x8, addend: 0x0, symName: __ZNSt3__122__compressed_pair_elemIRNS_9allocatorIcEELi1ELb0EE5__getB8ue170006Ev, symObjAddr: 0x23C14, symBinAddr: 0x1000493C0, symSize: 0x18 }
  - { offsetInCU: 0x2CEB0, offset: 0xBE2C1, size: 0x8, addend: 0x0, symName: __ZNSt3__117__compressed_pairIPcRNS_9allocatorIcEEE5firstB8ue170006Ev, symObjAddr: 0x23C2C, symBinAddr: 0x1000493D8, symSize: 0x24 }
  - { offsetInCU: 0x2CEE0, offset: 0xBE2F1, size: 0x8, addend: 0x0, symName: __ZNSt3__114__split_bufferIcRNS_9allocatorIcEEE21_ConstructTransactionC1B8ue170006EPPcm, symObjAddr: 0x23C50, symBinAddr: 0x1000493FC, symSize: 0x3C }
  - { offsetInCU: 0x2CF26, offset: 0xBE337, size: 0x8, addend: 0x0, symName: __ZNSt3__114__split_bufferIcRNS_9allocatorIcEEE21_ConstructTransactionD1B8ue170006Ev, symObjAddr: 0x23C8C, symBinAddr: 0x100049438, symSize: 0x2C }
  - { offsetInCU: 0x2CF50, offset: 0xBE361, size: 0x8, addend: 0x0, symName: __ZNSt3__114__split_bufferIcRNS_9allocatorIcEEE21_ConstructTransactionC2B8ue170006EPPcm, symObjAddr: 0x23CB8, symBinAddr: 0x100049464, symSize: 0x44 }
  - { offsetInCU: 0x2CF96, offset: 0xBE3A7, size: 0x8, addend: 0x0, symName: __ZNSt3__114__split_bufferIcRNS_9allocatorIcEEE21_ConstructTransactionD2B8ue170006Ev, symObjAddr: 0x23CFC, symBinAddr: 0x1000494A8, symSize: 0x20 }
  - { offsetInCU: 0x2CFC0, offset: 0xBE3D1, size: 0x8, addend: 0x0, symName: __ZNKSt3__16vectorIcNS_9allocatorIcEEE17__annotate_deleteB8ue170006Ev, symObjAddr: 0x23D1C, symBinAddr: 0x1000494C8, symSize: 0xB8 }
  - { offsetInCU: 0x2CFE6, offset: 0xBE3F7, size: 0x8, addend: 0x0, symName: __ZNSt3__116reverse_iteratorIPcEC1B8ue170006ES1_, symObjAddr: 0x23E4C, symBinAddr: 0x1000495F8, symSize: 0x34 }
  - { offsetInCU: 0x2D01E, offset: 0xBE42F, size: 0x8, addend: 0x0, symName: __ZNKSt3__116reverse_iteratorIPcE4baseB8ue170006Ev, symObjAddr: 0x23E80, symBinAddr: 0x10004962C, symSize: 0x18 }
  - { offsetInCU: 0x2D044, offset: 0xBE455, size: 0x8, addend: 0x0, symName: __ZNKSt3__16vectorIcNS_9allocatorIcEEE14__annotate_newB8ue170006Em, symObjAddr: 0x23ED4, symBinAddr: 0x100049680, symSize: 0xAC }
  - { offsetInCU: 0x2D079, offset: 0xBE48A, size: 0x8, addend: 0x0, symName: __ZNKSt3__16vectorIcNS_9allocatorIcEEE31__annotate_contiguous_containerB8ue170006EPKvS5_S5_S5_, symObjAddr: 0x23F80, symBinAddr: 0x10004972C, symSize: 0x20 }
  - { offsetInCU: 0x2D0CF, offset: 0xBE4E0, size: 0x8, addend: 0x0, symName: __ZNKSt3__16vectorIcNS_9allocatorIcEEE4dataB8ue170006Ev, symObjAddr: 0x23FA0, symBinAddr: 0x10004974C, symSize: 0x28 }
  - { offsetInCU: 0x2D119, offset: 0xBE52A, size: 0x8, addend: 0x0, symName: __ZNKSt3__111__move_loopINS_17_ClassicAlgPolicyEEclB8ue170006INS_16reverse_iteratorIPcEES6_S6_EENS_4pairIT_T1_EES8_T0_S9_, symObjAddr: 0x242B8, symBinAddr: 0x100049A64, symSize: 0xA0 }
  - { offsetInCU: 0x2D190, offset: 0xBE5A1, size: 0x8, addend: 0x0, symName: __ZNSt3__18_IterOpsINS_17_ClassicAlgPolicyEE11__iter_moveB8ue170006IRNS_16reverse_iteratorIPcEEEENS_9enable_ifIXsr12is_referenceIDTdeclsr3stdE7declvalIRT_EEEEE5valueEDTclsr3stdE4movedeclsr3stdE7declvalISA_EEEEE4typeEOS9_, symObjAddr: 0x244EC, symBinAddr: 0x100049C98, symSize: 0x28 }
  - { offsetInCU: 0x2D1BE, offset: 0xBE5CF, size: 0x8, addend: 0x0, symName: __ZNKSt3__116reverse_iteratorIPcEdeB8ue170006Ev, symObjAddr: 0x24514, symBinAddr: 0x100049CC0, symSize: 0x28 }
  - { offsetInCU: 0x2D1F2, offset: 0xBE603, size: 0x8, addend: 0x0, symName: __ZNSt3__116reverse_iteratorIPcEppB8ue170006Ev, symObjAddr: 0x2453C, symBinAddr: 0x100049CE8, symSize: 0x20 }
  - { offsetInCU: 0x2D218, offset: 0xBE629, size: 0x8, addend: 0x0, symName: __ZNSt3__18_IterOpsINS_17_ClassicAlgPolicyEE25__validate_iter_referenceB8ue170006IRNS_16reverse_iteratorIPcEEEEvv, symObjAddr: 0x2455C, symBinAddr: 0x100049D08, symSize: 0x4 }
  - { offsetInCU: 0x2D236, offset: 0xBE647, size: 0x8, addend: 0x0, symName: __ZNSt3__118__unwrap_iter_implINS_16reverse_iteratorIPcEELb0EE8__unwrapB8ue170006ES3_, symObjAddr: 0x24560, symBinAddr: 0x100049D0C, symSize: 0x24 }
  - { offsetInCU: 0x2D261, offset: 0xBE672, size: 0x8, addend: 0x0, symName: __ZNSt3__14pairINS_16reverse_iteratorIPcEES3_EC1B8ue170006IS3_S3_LPv0EEEOT_OT0_, symObjAddr: 0x24584, symBinAddr: 0x100049D30, symSize: 0x3C }
  - { offsetInCU: 0x2D2BF, offset: 0xBE6D0, size: 0x8, addend: 0x0, symName: __ZNSt3__14pairINS_16reverse_iteratorIPcEES3_EC2B8ue170006IS3_S3_LPv0EEEOT_OT0_, symObjAddr: 0x245C0, symBinAddr: 0x100049D6C, symSize: 0x34 }
  - { offsetInCU: 0x2D31D, offset: 0xBE72E, size: 0x8, addend: 0x0, symName: __ZNSt3__118__unwrap_iter_implINS_16reverse_iteratorIPcEELb0EE8__rewrapB8ue170006ES3_S3_, symObjAddr: 0x245F4, symBinAddr: 0x100049DA0, symSize: 0x2C }
  - { offsetInCU: 0x2D34E, offset: 0xBE75F, size: 0x8, addend: 0x0, symName: __ZNSt3__116reverse_iteratorIPcEC2B8ue170006ES1_, symObjAddr: 0x24620, symBinAddr: 0x100049DCC, symSize: 0x28 }
  - { offsetInCU: 0x2D386, offset: 0xBE797, size: 0x8, addend: 0x0, symName: __ZNSt3__114__split_bufferIcRNS_9allocatorIcEEED2Ev, symObjAddr: 0x24648, symBinAddr: 0x100049DF4, symSize: 0x8C }
  - { offsetInCU: 0x2D3B2, offset: 0xBE7C3, size: 0x8, addend: 0x0, symName: __ZNSt3__114__split_bufferIcRNS_9allocatorIcEEE5clearB8ue170006Ev, symObjAddr: 0x246D4, symBinAddr: 0x100049E80, symSize: 0x28 }
  - { offsetInCU: 0x2D3D8, offset: 0xBE7E9, size: 0x8, addend: 0x0, symName: __ZNKSt3__114__split_bufferIcRNS_9allocatorIcEEE8capacityB8ue170006Ev, symObjAddr: 0x24730, symBinAddr: 0x100049EA8, symSize: 0x38 }
  - { offsetInCU: 0x2D3FE, offset: 0xBE80F, size: 0x8, addend: 0x0, symName: __ZNSt3__114__split_bufferIcRNS_9allocatorIcEEE17__destruct_at_endB8ue170006EPc, symObjAddr: 0x24768, symBinAddr: 0x100049EE0, symSize: 0x2C }
  - { offsetInCU: 0x2D432, offset: 0xBE843, size: 0x8, addend: 0x0, symName: __ZNSt3__114__split_bufferIcRNS_9allocatorIcEEE17__destruct_at_endB8ue170006EPcNS_17integral_constantIbLb0EEE, symObjAddr: 0x24794, symBinAddr: 0x100049F0C, symSize: 0x80 }
  - { offsetInCU: 0x2D473, offset: 0xBE884, size: 0x8, addend: 0x0, symName: __ZNSt3__116allocator_traitsINS_9allocatorIcEEE7destroyB8ue170006IcvEEvRS2_PT_, symObjAddr: 0x24814, symBinAddr: 0x100049F8C, symSize: 0x2C }
  - { offsetInCU: 0x2D4B1, offset: 0xBE8C2, size: 0x8, addend: 0x0, symName: __ZNSt3__19allocatorIcE7destroyB8ue170006EPc, symObjAddr: 0x24840, symBinAddr: 0x100049FB8, symSize: 0x14 }
  - { offsetInCU: 0x2D4E5, offset: 0xBE8F6, size: 0x8, addend: 0x0, symName: __ZNKSt3__114__split_bufferIcRNS_9allocatorIcEEE9__end_capB8ue170006Ev, symObjAddr: 0x24894, symBinAddr: 0x100049FCC, symSize: 0x28 }
  - { offsetInCU: 0x2D50B, offset: 0xBE91C, size: 0x8, addend: 0x0, symName: __ZNKSt3__117__compressed_pairIPcRNS_9allocatorIcEEE5firstB8ue170006Ev, symObjAddr: 0x248BC, symBinAddr: 0x100049FF4, symSize: 0x24 }
  - { offsetInCU: 0x2D531, offset: 0xBE942, size: 0x8, addend: 0x0, symName: __ZNSt3__16vectorIcNS_9allocatorIcEEE22__base_destruct_at_endB8ue170006EPc, symObjAddr: 0x248E0, symBinAddr: 0x10004A018, symSize: 0x8C }
  - { offsetInCU: 0x2D576, offset: 0xBE987, size: 0x8, addend: 0x0, symName: __ZNKSt3__16vectorIcNS_9allocatorIcEEE17__annotate_shrinkB8ue170006Em, symObjAddr: 0x2496C, symBinAddr: 0x10004A0A4, symSize: 0xB4 }
  - { offsetInCU: 0x2D5AB, offset: 0xBE9BC, size: 0x8, addend: 0x0, symName: __ZNSt3__16vectorIcNS_9allocatorIcEEED2B8ue170006Ev, symObjAddr: 0x24A20, symBinAddr: 0x10004A158, symSize: 0x44 }
  - { offsetInCU: 0x2D5D5, offset: 0xBE9E6, size: 0x8, addend: 0x0, symName: __ZNSt3__16vectorIcNS_9allocatorIcEEE16__destroy_vectorC1B8ue170006ERS3_, symObjAddr: 0x24A64, symBinAddr: 0x10004A19C, symSize: 0x34 }
  - { offsetInCU: 0x2D60E, offset: 0xBEA1F, size: 0x8, addend: 0x0, symName: __ZNSt3__16vectorIcNS_9allocatorIcEEE16__destroy_vectorclB8ue170006Ev, symObjAddr: 0x24A98, symBinAddr: 0x10004A1D0, symSize: 0x90 }
  - { offsetInCU: 0x2D634, offset: 0xBEA45, size: 0x8, addend: 0x0, symName: __ZNSt3__16vectorIcNS_9allocatorIcEEE16__destroy_vectorC2B8ue170006ERS3_, symObjAddr: 0x24B28, symBinAddr: 0x10004A260, symSize: 0x20 }
  - { offsetInCU: 0x2D66D, offset: 0xBEA7E, size: 0x8, addend: 0x0, symName: __ZNSt3__16vectorIcNS_9allocatorIcEEE7__clearB8ue170006Ev, symObjAddr: 0x24B48, symBinAddr: 0x10004A280, symSize: 0x28 }
  - { offsetInCU: 0x2D693, offset: 0xBEAA4, size: 0x8, addend: 0x0, symName: __ZNKSt3__115basic_streambufIcNS_11char_traitsIcEEE4gptrB8ue170006Ev, symObjAddr: 0x24B70, symBinAddr: 0x10004A2A8, symSize: 0x18 }
  - { offsetInCU: 0x2D6B9, offset: 0xBEACA, size: 0x8, addend: 0x0, symName: __ZNKSt3__115basic_streambufIcNS_11char_traitsIcEEE4pptrB8ue170006Ev, symObjAddr: 0x24B88, symBinAddr: 0x10004A2C0, symSize: 0x18 }
  - { offsetInCU: 0x2D6DF, offset: 0xBEAF0, size: 0x8, addend: 0x0, symName: __ZNKSt3__115basic_streambufIcNS_11char_traitsIcEEE5epptrB8ue170006Ev, symObjAddr: 0x24BE4, symBinAddr: 0x10004A2D8, symSize: 0x18 }
  - { offsetInCU: 0x2D705, offset: 0xBEB16, size: 0x8, addend: 0x0, symName: __ZN5boost4asio15basic_streambufINSt3__19allocatorIcEEE7reserveEm, symObjAddr: 0x24BFC, symBinAddr: 0x10004A2F0, symSize: 0x2C4 }
  - { offsetInCU: 0x2D789, offset: 0xBEB9A, size: 0x8, addend: 0x0, symName: __ZNSt3__115basic_streambufIcNS_11char_traitsIcEEE5pbumpB8ue170006Ei, symObjAddr: 0x24ED8, symBinAddr: 0x10004A5B4, symSize: 0x28 }
  - { offsetInCU: 0x2D7BE, offset: 0xBEBCF, size: 0x8, addend: 0x0, symName: __ZNSt3__111char_traitsIcE7not_eofB8ue170006Ei, symObjAddr: 0x24F00, symBinAddr: 0x10004A5DC, symSize: 0x5C }
  - { offsetInCU: 0x2D7E1, offset: 0xBEBF2, size: 0x8, addend: 0x0, symName: __ZN5boost10wrapexceptISt12length_errorEC1ERKS1_, symObjAddr: 0x24FC8, symBinAddr: 0x10004A6A4, symSize: 0x34 }
  - { offsetInCU: 0x2D819, offset: 0xBEC2A, size: 0x8, addend: 0x0, symName: __ZN5boost10wrapexceptISt12length_errorED1Ev, symObjAddr: 0x24FFC, symBinAddr: 0x10004A6D8, symSize: 0x2C }
  - { offsetInCU: 0x2D845, offset: 0xBEC56, size: 0x8, addend: 0x0, symName: __ZN5boost10wrapexceptISt12length_errorEC2ERKS1_, symObjAddr: 0x25028, symBinAddr: 0x10004A704, symSize: 0xE4 }
  - { offsetInCU: 0x2D87D, offset: 0xBEC8E, size: 0x8, addend: 0x0, symName: __ZNSt12length_errorC2B8ue170006ERKS_, symObjAddr: 0x2510C, symBinAddr: 0x10004A7E8, symSize: 0x4C }
  - { offsetInCU: 0x2D8B2, offset: 0xBECC3, size: 0x8, addend: 0x0, symName: __ZN5boost10wrapexceptISt12length_errorE9copy_fromEPKv, symObjAddr: 0x25158, symBinAddr: 0x10004A834, symSize: 0x14 }
  - { offsetInCU: 0x2D8E3, offset: 0xBECF4, size: 0x8, addend: 0x0, symName: __ZNK5boost10wrapexceptISt12length_errorE5cloneEv, symObjAddr: 0x2516C, symBinAddr: 0x10004A848, symSize: 0xE4 }
  - { offsetInCU: 0x2D925, offset: 0xBED36, size: 0x8, addend: 0x0, symName: __ZNK5boost10wrapexceptISt12length_errorE7rethrowEv, symObjAddr: 0x25250, symBinAddr: 0x10004A92C, symSize: 0x6C }
  - { offsetInCU: 0x2D94B, offset: 0xBED5C, size: 0x8, addend: 0x0, symName: __ZN5boost10wrapexceptISt12length_errorED0Ev, symObjAddr: 0x252BC, symBinAddr: 0x10004A998, symSize: 0x30 }
  - { offsetInCU: 0x2D977, offset: 0xBED88, size: 0x8, addend: 0x0, symName: __ZThn8_N5boost10wrapexceptISt12length_errorED1Ev, symObjAddr: 0x252EC, symBinAddr: 0x10004A9C8, symSize: 0x1C }
  - { offsetInCU: 0x2D98D, offset: 0xBED9E, size: 0x8, addend: 0x0, symName: __ZThn8_N5boost10wrapexceptISt12length_errorED0Ev, symObjAddr: 0x25308, symBinAddr: 0x10004A9E4, symSize: 0x18 }
  - { offsetInCU: 0x2D9A3, offset: 0xBEDB4, size: 0x8, addend: 0x0, symName: __ZThn24_N5boost10wrapexceptISt12length_errorED1Ev, symObjAddr: 0x25320, symBinAddr: 0x10004A9FC, symSize: 0x1C }
  - { offsetInCU: 0x2D9B9, offset: 0xBEDCA, size: 0x8, addend: 0x0, symName: __ZThn24_N5boost10wrapexceptISt12length_errorED0Ev, symObjAddr: 0x2533C, symBinAddr: 0x10004AA18, symSize: 0x18 }
  - { offsetInCU: 0x2D9D4, offset: 0xBEDE5, size: 0x8, addend: 0x0, symName: __ZN5boost10wrapexceptISt12length_errorEC1ERKS2_, symObjAddr: 0x25354, symBinAddr: 0x10004AA30, symSize: 0x34 }
  - { offsetInCU: 0x2DA13, offset: 0xBEE24, size: 0x8, addend: 0x0, symName: __ZN5boost10wrapexceptISt12length_errorE7deleterD1Ev, symObjAddr: 0x25388, symBinAddr: 0x10004AA64, symSize: 0x2C }
  - { offsetInCU: 0x2DA3D, offset: 0xBEE4E, size: 0x8, addend: 0x0, symName: __ZN5boost10wrapexceptISt12length_errorEC2ERKS2_, symObjAddr: 0x253B4, symBinAddr: 0x10004AA90, symSize: 0xC4 }
  - { offsetInCU: 0x2DA72, offset: 0xBEE83, size: 0x8, addend: 0x0, symName: __ZN5boost10wrapexceptISt12length_errorE7deleterD2Ev, symObjAddr: 0x25478, symBinAddr: 0x10004AB54, symSize: 0x58 }
  - { offsetInCU: 0x2DA9C, offset: 0xBEEAD, size: 0x8, addend: 0x0, symName: __ZN5boost10wrapexceptISt12length_errorED2Ev, symObjAddr: 0x254D0, symBinAddr: 0x10004ABAC, symSize: 0x44 }
  - { offsetInCU: 0x2DAC8, offset: 0xBEED9, size: 0x8, addend: 0x0, symName: __ZN5boost4asio19basic_streambuf_refINSt3__19allocatorIcEEEC1ERNS0_15basic_streambufIS4_EE, symObjAddr: 0x255B8, symBinAddr: 0x10004AC94, symSize: 0x34 }
  - { offsetInCU: 0x2DB01, offset: 0xBEF12, size: 0x8, addend: 0x0, symName: __ZN5boost4asio19basic_streambuf_refINSt3__19allocatorIcEEEC1EOS5_, symObjAddr: 0x258D4, symBinAddr: 0x10004AFB0, symSize: 0x34 }
  - { offsetInCU: 0x2DB3A, offset: 0xBEF4B, size: 0x8, addend: 0x0, symName: __ZNK5boost4asio19basic_streambuf_refINSt3__19allocatorIcEEE4dataEv, symObjAddr: 0x25908, symBinAddr: 0x10004AFE4, symSize: 0x38 }
  - { offsetInCU: 0x2DB60, offset: 0xBEF71, size: 0x8, addend: 0x0, symName: __ZN5boost4asio16buffers_iteratorINS0_15const_buffers_1EcE5beginERKS2_, symObjAddr: 0x25940, symBinAddr: 0x10004B01C, symSize: 0xC8 }
  - { offsetInCU: 0x2DB93, offset: 0xBEFA4, size: 0x8, addend: 0x0, symName: __ZN5boost4asio16buffers_iteratorINS0_15const_buffers_1EcE3endERKS2_, symObjAddr: 0x25A4C, symBinAddr: 0x10004B128, symSize: 0xC4 }
  - { offsetInCU: 0x2DBE3, offset: 0xBEFF4, size: 0x8, addend: 0x0, symName: __ZNKSt3__117basic_string_viewIcNS_11char_traitsIcEEE5beginB8ue170006Ev, symObjAddr: 0x25C90, symBinAddr: 0x10004B36C, symSize: 0x24 }
  - { offsetInCU: 0x2DC09, offset: 0xBF01A, size: 0x8, addend: 0x0, symName: __ZNKSt3__117basic_string_viewIcNS_11char_traitsIcEEE3endB8ue170006Ev, symObjAddr: 0x25CB4, symBinAddr: 0x10004B390, symSize: 0x24 }
  - { offsetInCU: 0x2DC2F, offset: 0xBF040, size: 0x8, addend: 0x0, symName: __ZNKSt3__117basic_string_viewIcNS_11char_traitsIcEEE6lengthB8ue170006Ev, symObjAddr: 0x25D38, symBinAddr: 0x10004B414, symSize: 0x18 }
  - { offsetInCU: 0x2DC55, offset: 0xBF066, size: 0x8, addend: 0x0, symName: __ZNK5boost4asio19basic_streambuf_refINSt3__19allocatorIcEEE4sizeEv, symObjAddr: 0x25D50, symBinAddr: 0x10004B42C, symSize: 0x28 }
  - { offsetInCU: 0x2DC7B, offset: 0xBF08C, size: 0x8, addend: 0x0, symName: __ZNK5boost4asio19basic_streambuf_refINSt3__19allocatorIcEEE8max_sizeEv, symObjAddr: 0x25D78, symBinAddr: 0x10004B454, symSize: 0x28 }
  - { offsetInCU: 0x2DCA1, offset: 0xBF0B2, size: 0x8, addend: 0x0, symName: __ZNK5boost4asio19basic_streambuf_refINSt3__19allocatorIcEEE8capacityEv, symObjAddr: 0x25DA0, symBinAddr: 0x10004B47C, symSize: 0x28 }
  - { offsetInCU: 0x2DCC7, offset: 0xBF0D8, size: 0x8, addend: 0x0, symName: __ZN5boost4asio19basic_streambuf_refINSt3__19allocatorIcEEE6commitEm, symObjAddr: 0x25DC8, symBinAddr: 0x10004B4A4, symSize: 0x30 }
  - { offsetInCU: 0x2DCFC, offset: 0xBF10D, size: 0x8, addend: 0x0, symName: __ZN5boost4asio19basic_stream_socketINS0_2ip3tcpENS0_15any_io_executorEE9read_someINS0_17mutable_buffers_1EEEmRKT_RNS_6system10error_codeE, symObjAddr: 0x25DF8, symBinAddr: 0x10004B4D4, symSize: 0x5C }
  - { offsetInCU: 0x2DD4D, offset: 0xBF15E, size: 0x8, addend: 0x0, symName: __ZN5boost4asio19basic_streambuf_refINSt3__19allocatorIcEEE7prepareEm, symObjAddr: 0x25E54, symBinAddr: 0x10004B530, symSize: 0x40 }
  - { offsetInCU: 0x2DD82, offset: 0xBF193, size: 0x8, addend: 0x0, symName: __ZN5boost4asio19basic_streambuf_refINSt3__19allocatorIcEEEC2EOS5_, symObjAddr: 0x25E94, symBinAddr: 0x10004B570, symSize: 0x24 }
  - { offsetInCU: 0x2DDBB, offset: 0xBF1CC, size: 0x8, addend: 0x0, symName: __ZNK5boost4asio15basic_streambufINSt3__19allocatorIcEEE4dataEv, symObjAddr: 0x25EB8, symBinAddr: 0x10004B594, symSize: 0x80 }
  - { offsetInCU: 0x2DDE1, offset: 0xBF1F2, size: 0x8, addend: 0x0, symName: __ZN5boost4asio16buffers_iteratorINS0_15const_buffers_1EcEC1Ev, symObjAddr: 0x25F68, symBinAddr: 0x10004B644, symSize: 0x2C }
  - { offsetInCU: 0x2DE0B, offset: 0xBF21C, size: 0x8, addend: 0x0, symName: __ZN5boost4asio16buffers_iteratorINS0_15const_buffers_1EcEC2Ev, symObjAddr: 0x25FC8, symBinAddr: 0x10004B6A4, symSize: 0x40 }
  - { offsetInCU: 0x2DE35, offset: 0xBF246, size: 0x8, addend: 0x0, symName: __ZN5boost4asio12const_bufferC1Ev, symObjAddr: 0x26008, symBinAddr: 0x10004B6E4, symSize: 0x2C }
  - { offsetInCU: 0x2DE5F, offset: 0xBF270, size: 0x8, addend: 0x0, symName: __ZN5boost4asio12const_bufferC2Ev, symObjAddr: 0x26034, symBinAddr: 0x10004B710, symSize: 0x1C }
  - { offsetInCU: 0x2DE89, offset: 0xBF29A, size: 0x8, addend: 0x0, symName: __ZN5boost4asio16buffers_iteratorINS0_15const_buffers_1EcE7advanceEl, symObjAddr: 0x26050, symBinAddr: 0x10004B72C, symSize: 0x3C8 }
  - { offsetInCU: 0x2DF4A, offset: 0xBF35B, size: 0x8, addend: 0x0, symName: __ZNK5boost4asio16buffers_iteratorINS0_15const_buffers_1EcEdeEv, symObjAddr: 0x26480, symBinAddr: 0x10004BB5C, symSize: 0x24 }
  - { offsetInCU: 0x2DF70, offset: 0xBF381, size: 0x8, addend: 0x0, symName: __ZN5boost4asio16buffers_iteratorINS0_15const_buffers_1EcEppEv, symObjAddr: 0x264A4, symBinAddr: 0x10004BB80, symSize: 0x2C }
  - { offsetInCU: 0x2DFB6, offset: 0xBF3C7, size: 0x8, addend: 0x0, symName: __ZNSt3__14pairIN5boost4asio16buffers_iteratorINS2_15const_buffers_1EcEEbEC1B8ue170006IRS5_bLPv0EEEOT_OT0_, symObjAddr: 0x264D0, symBinAddr: 0x10004BBAC, symSize: 0x3C }
  - { offsetInCU: 0x2E014, offset: 0xBF425, size: 0x8, addend: 0x0, symName: __ZNSt3__14pairIN5boost4asio16buffers_iteratorINS2_15const_buffers_1EcEEbEC2B8ue170006IRS5_bLPv0EEEOT_OT0_, symObjAddr: 0x2650C, symBinAddr: 0x10004BBE8, symSize: 0x4C }
  - { offsetInCU: 0x2E072, offset: 0xBF483, size: 0x8, addend: 0x0, symName: __ZNK5boost4asio16buffers_iteratorINS0_15const_buffers_1EcE5equalERKS3_, symObjAddr: 0x26558, symBinAddr: 0x10004BC34, symSize: 0x30 }
  - { offsetInCU: 0x2E0A7, offset: 0xBF4B8, size: 0x8, addend: 0x0, symName: __ZNK5boost4asio16buffers_iteratorINS0_15const_buffers_1EcE11dereferenceEv, symObjAddr: 0x26588, symBinAddr: 0x10004BC64, symSize: 0x34 }
  - { offsetInCU: 0x2E0CD, offset: 0xBF4DE, size: 0x8, addend: 0x0, symName: __ZN5boost4asio16buffers_iteratorINS0_15const_buffers_1EcE9incrementEv, symObjAddr: 0x265BC, symBinAddr: 0x10004BC98, symSize: 0x130 }
  - { offsetInCU: 0x2E0F3, offset: 0xBF504, size: 0x8, addend: 0x0, symName: __ZNKSt3__117basic_string_viewIcNS_11char_traitsIcEEE6cbeginB8ue170006Ev, symObjAddr: 0x266EC, symBinAddr: 0x10004BDC8, symSize: 0x18 }
  - { offsetInCU: 0x2E119, offset: 0xBF52A, size: 0x8, addend: 0x0, symName: __ZNKSt3__117basic_string_viewIcNS_11char_traitsIcEEE4cendB8ue170006Ev, symObjAddr: 0x26704, symBinAddr: 0x10004BDE0, symSize: 0x20 }
  - { offsetInCU: 0x2E13F, offset: 0xBF550, size: 0x8, addend: 0x0, symName: __ZNK5boost4asio16buffers_iteratorINS0_15const_buffers_1EcE11distance_toERKS3_, symObjAddr: 0x26724, symBinAddr: 0x10004BE00, symSize: 0x28 }
  - { offsetInCU: 0x2E174, offset: 0xBF585, size: 0x8, addend: 0x0, symName: __ZNK5boost4asio15basic_streambufINSt3__19allocatorIcEEE4sizeEv, symObjAddr: 0x2674C, symBinAddr: 0x10004BE28, symSize: 0x44 }
  - { offsetInCU: 0x2E19A, offset: 0xBF5AB, size: 0x8, addend: 0x0, symName: __ZNK5boost4asio15basic_streambufINSt3__19allocatorIcEEE8max_sizeEv, symObjAddr: 0x26790, symBinAddr: 0x10004BE6C, symSize: 0x18 }
  - { offsetInCU: 0x2E1C0, offset: 0xBF5D1, size: 0x8, addend: 0x0, symName: __ZNK5boost4asio15basic_streambufINSt3__19allocatorIcEEE8capacityEv, symObjAddr: 0x267A8, symBinAddr: 0x10004BE84, symSize: 0x28 }
  - { offsetInCU: 0x2E1E6, offset: 0xBF5F7, size: 0x8, addend: 0x0, symName: __ZN5boost4asio15basic_streambufINSt3__19allocatorIcEEE6commitEm, symObjAddr: 0x267D0, symBinAddr: 0x10004BEAC, symSize: 0xB8 }
  - { offsetInCU: 0x2E21A, offset: 0xBF62B, size: 0x8, addend: 0x0, symName: __ZNKSt3__115basic_streambufIcNS_11char_traitsIcEEE5ebackB8ue170006Ev, symObjAddr: 0x26888, symBinAddr: 0x10004BF64, symSize: 0x18 }
  - { offsetInCU: 0x2E240, offset: 0xBF651, size: 0x8, addend: 0x0, symName: __ZN5boost4asio6detail28reactive_socket_service_base7receiveINS0_17mutable_buffers_1EEEmRNS2_24base_implementation_typeERKT_iRNS_6system10error_codeE, symObjAddr: 0x268A0, symBinAddr: 0x10004BF7C, symSize: 0x9C }
  - { offsetInCU: 0x2E2BA, offset: 0xBF6CB, size: 0x8, addend: 0x0, symName: __ZN5boost4asio6detail23buffer_sequence_adapterINS0_14mutable_bufferENS0_17mutable_buffers_1EE5firstERKS4_, symObjAddr: 0x26B20, symBinAddr: 0x10004C1FC, symSize: 0x24 }
  - { offsetInCU: 0x2E2E0, offset: 0xBF6F1, size: 0x8, addend: 0x0, symName: __ZN5boost4asio15basic_streambufINSt3__19allocatorIcEEE7prepareEm, symObjAddr: 0x26CB8, symBinAddr: 0x10004C394, symSize: 0x68 }
  - { offsetInCU: 0x2E314, offset: 0xBF725, size: 0x8, addend: 0x0, symName: __ZN5boost4asio14mutable_bufferC1EPvm, symObjAddr: 0x26D50, symBinAddr: 0x10004C42C, symSize: 0x3C }
  - { offsetInCU: 0x2E35A, offset: 0xBF76B, size: 0x8, addend: 0x0, symName: __ZN5boost4asio17mutable_buffers_1C1ERKNS0_14mutable_bufferE, symObjAddr: 0x26D8C, symBinAddr: 0x10004C468, symSize: 0x34 }
  - { offsetInCU: 0x2E392, offset: 0xBF7A3, size: 0x8, addend: 0x0, symName: __ZN5boost4asio17mutable_buffers_1C2ERKNS0_14mutable_bufferE, symObjAddr: 0x26DC0, symBinAddr: 0x10004C49C, symSize: 0x24 }
  - { offsetInCU: 0x2E3CA, offset: 0xBF7DB, size: 0x8, addend: 0x0, symName: __ZN5boost4asio19basic_streambuf_refINSt3__19allocatorIcEEEC2ERNS0_15basic_streambufIS4_EE, symObjAddr: 0x26DE4, symBinAddr: 0x10004C4C0, symSize: 0x20 }
  - { offsetInCU: 0x2E403, offset: 0xBF814, size: 0x8, addend: 0x0, symName: __ZNSt3__117basic_string_viewIcNS_11char_traitsIcEEEC2B8ue170006EPKc, symObjAddr: 0x26E04, symBinAddr: 0x10004C4E0, symSize: 0x44 }
  - { offsetInCU: 0x2E482, offset: 0xBF893, size: 0x8, addend: 0x0, symName: __ZN5boost4asio15basic_streambufINSt3__19allocatorIcEEED2Ev, symObjAddr: 0x27BC8, symBinAddr: 0x10004C548, symSize: 0x50 }
  - { offsetInCU: 0x2E4AE, offset: 0xBF8BF, size: 0x8, addend: 0x0, symName: __ZN5boost4asio2ip22basic_resolver_resultsINS1_3tcpEED2Ev, symObjAddr: 0x27C18, symBinAddr: 0x10004C598, symSize: 0x2C }
  - { offsetInCU: 0x2E4DA, offset: 0xBF8EB, size: 0x8, addend: 0x0, symName: __ZN13WebserverHost31webserver_process_player_handleEiiiRKNSt3__112basic_stringIcNS0_11char_traitsIcEENS0_9allocatorIcEEEE, symObjAddr: 0x27D3C, symBinAddr: 0x10004C5C4, symSize: 0x1B0 }
  - { offsetInCU: 0x2E5A1, offset: 0xBF9B2, size: 0x8, addend: 0x0, symName: __ZN6Entity14set_rect_x_posEi, symObjAddr: 0x27EEC, symBinAddr: 0x10004C774, symSize: 0x20 }
  - { offsetInCU: 0x2E5D6, offset: 0xBF9E7, size: 0x8, addend: 0x0, symName: __ZN6Entity14set_rect_y_posEi, symObjAddr: 0x27F0C, symBinAddr: 0x10004C794, symSize: 0x20 }
  - { offsetInCU: 0x2E60B, offset: 0xBFA1C, size: 0x8, addend: 0x0, symName: __ZNSt3__114numeric_limitsIfE3maxB8ue170006Ev, symObjAddr: 0x27F50, symBinAddr: 0x10004C7B4, symSize: 0x14 }
  - { offsetInCU: 0x2E61F, offset: 0xBFA30, size: 0x8, addend: 0x0, symName: __ZN10BaseButton23find_euclidean_distanceEiiii, symObjAddr: 0x27FD8, symBinAddr: 0x10004C83C, symSize: 0x70 }
  - { offsetInCU: 0x2E680, offset: 0xBFA91, size: 0x8, addend: 0x0, symName: __ZNSt3__123__libcpp_numeric_limitsIfLb1EE3maxB8ue170006Ev, symObjAddr: 0x28048, symBinAddr: 0x10004C8AC, symSize: 0xC }
  - { offsetInCU: 0x2E6A3, offset: 0xBFAB4, size: 0x8, addend: 0x0, symName: __ZZN10BaseButton19find_nearest_buttonERNSt3__16vectorIPS_NS0_9allocatorIS2_EEEENS0_12basic_stringIcNS0_11char_traitsIcEENS3_IcEEEEENKUlPKS_E_clESD_, symObjAddr: 0x28054, symBinAddr: 0x10004C8B8, symSize: 0x2C }
  - { offsetInCU: 0x2E6DC, offset: 0xBFAED, size: 0x8, addend: 0x0, symName: __Z4sqrtB8ue170006IiENSt3__19enable_ifIXsr3std11is_integralIT_EE5valueEdE4typeES2_, symObjAddr: 0x28080, symBinAddr: 0x10004C8E4, symSize: 0x24 }
  - { offsetInCU: 0x2E713, offset: 0xBFB24, size: 0x8, addend: 0x0, symName: __ZNSt3__112basic_stringIcNS_11char_traitsIcEENS_9allocatorIcEEE8pop_backB8ue170006Ev, symObjAddr: 0x280A4, symBinAddr: 0x10004C908, symSize: 0x38 }
  - { offsetInCU: 0x2E73B, offset: 0xBFB4C, size: 0x8, addend: 0x0, symName: __ZNSt3__112basic_stringIcNS_11char_traitsIcEENS_9allocatorIcEEE14__erase_to_endB8ue170006Em, symObjAddr: 0x280DC, symBinAddr: 0x10004C940, symSize: 0x40 }
  - { offsetInCU: 0x2E770, offset: 0xBFB81, size: 0x8, addend: 0x0, symName: __ZNSt3__112basic_stringIcNS_11char_traitsIcEENS_9allocatorIcEEE19__null_terminate_atB8ue170006EPcm, symObjAddr: 0x2811C, symBinAddr: 0x10004C980, symSize: 0x50 }
  - { offsetInCU: 0x2E7D2, offset: 0xBFBE3, size: 0x8, addend: 0x0, symName: __ZNSt3__113__atomic_baseIbLb0EE5storeB8ue170006EbNS_12memory_orderE, symObjAddr: 0x29618, symBinAddr: 0x10004C9E4, symSize: 0x40 }
  - { offsetInCU: 0x4F, offset: 0xC0110, size: 0x8, addend: 0x0, symName: __ZN5boost4asio5errorL15system_categoryE, symObjAddr: 0xB2778, symBinAddr: 0x1000B02D8, symSize: 0x0 }
  - { offsetInCU: 0x69, offset: 0xC012A, size: 0x8, addend: 0x0, symName: __ZN5boost4asio5errorL14netdb_categoryE, symObjAddr: 0xB2780, symBinAddr: 0x1000B02E0, symSize: 0x0 }
  - { offsetInCU: 0x83, offset: 0xC0144, size: 0x8, addend: 0x0, symName: __ZN5boost4asio5errorL17addrinfo_categoryE, symObjAddr: 0xB2788, symBinAddr: 0x1000B02E8, symSize: 0x0 }
  - { offsetInCU: 0x9D, offset: 0xC015E, size: 0x8, addend: 0x0, symName: __ZN5boost4asio5errorL13misc_categoryE, symObjAddr: 0xB2790, symBinAddr: 0x1000B02F0, symSize: 0x0 }
  - { offsetInCU: 0x84A4, offset: 0xC8565, size: 0x8, addend: 0x0, symName: __ZNSt3__17advanceB8ue170006INS_11__wrap_iterIPP10BaseButtonEEllvEEvRT_T0_, symObjAddr: 0xE1AC, symBinAddr: 0x100057800, symSize: 0x38 }
  - { offsetInCU: 0x9055, offset: 0xC9116, size: 0x8, addend: 0x0, symName: __ZNSt3__13maxB8ue170006IiEERKT_S3_S3_, symObjAddr: 0x8A94, symBinAddr: 0x100055470, symSize: 0x2C }
  - { offsetInCU: 0x909E, offset: 0xC915F, size: 0x8, addend: 0x0, symName: __ZNSt3__13minB8ue170006IiEERKT_S3_S3_, symObjAddr: 0x8AC0, symBinAddr: 0x10005549C, symSize: 0x2C }
  - { offsetInCU: 0x90E7, offset: 0xC91A8, size: 0x8, addend: 0x0, symName: __ZNSt3__13maxB8ue170006IiNS_6__lessIvvEEEERKT_S5_S5_T0_, symObjAddr: 0xB08C, symBinAddr: 0x100055D48, symSize: 0x54 }
  - { offsetInCU: 0x91C7, offset: 0xC9288, size: 0x8, addend: 0x0, symName: __ZNSt3__13minB8ue170006IiNS_6__lessIvvEEEERKT_S5_S5_T0_, symObjAddr: 0xB114, symBinAddr: 0x100055DD0, symSize: 0x54 }
  - { offsetInCU: 0x9229, offset: 0xC92EA, size: 0x8, addend: 0x0, symName: __ZNSt3__112__to_addressB8ue170006IP10BaseButtonEEPT_S4_, symObjAddr: 0xB528, symBinAddr: 0x100056084, symSize: 0x14 }
  - { offsetInCU: 0x925E, offset: 0xC931F, size: 0x8, addend: 0x0, symName: __ZNSt3__119__allocate_at_leastB8ue170006INS_9allocatorIP10BaseButtonEEEENS_19__allocation_resultINS_16allocator_traitsIT_E7pointerEEERS7_m, symObjAddr: 0xBD80, symBinAddr: 0x100056680, symSize: 0x40 }
  - { offsetInCU: 0x92A8, offset: 0xC9369, size: 0x8, addend: 0x0, symName: __ZNSt3__142__uninitialized_allocator_move_if_noexceptB8ue170006INS_9allocatorIP10BaseButtonEENS_16reverse_iteratorIPS3_EES7_S3_vEET1_RT_T0_SB_S8_, symObjAddr: 0xC10C, symBinAddr: 0x100056908, symSize: 0x78 }
  - { offsetInCU: 0x9330, offset: 0xC93F1, size: 0x8, addend: 0x0, symName: __ZNSt3__14swapB8ue170006IPP10BaseButtonEENS_9enable_ifIXaasr21is_move_constructibleIT_EE5valuesr18is_move_assignableIS5_EE5valueEvE4typeERS5_S8_, symObjAddr: 0xC1D0, symBinAddr: 0x1000569CC, symSize: 0x3C }
  - { offsetInCU: 0x9388, offset: 0xC9449, size: 0x8, addend: 0x0, symName: __ZNSt3__14moveB8ue170006INS_16reverse_iteratorIPP10BaseButtonEES5_EET0_T_S7_S6_, symObjAddr: 0xC300, symBinAddr: 0x100056AFC, symSize: 0x78 }
  - { offsetInCU: 0x93EA, offset: 0xC94AB, size: 0x8, addend: 0x0, symName: __ZNSt3__16__moveB8ue170006INS_17_ClassicAlgPolicyENS_16reverse_iteratorIPP10BaseButtonEES6_S6_EENS_4pairIT0_T2_EES8_T1_S9_, symObjAddr: 0xC378, symBinAddr: 0x100056B74, symSize: 0x64 }
  - { offsetInCU: 0x945E, offset: 0xC951F, size: 0x8, addend: 0x0, symName: __ZNSt3__123__dispatch_copy_or_moveB8ue170006INS_17_ClassicAlgPolicyENS_11__move_loopIS1_EENS_14__move_trivialENS_16reverse_iteratorIPP10BaseButtonEES9_S9_EENS_4pairIT2_T4_EESB_T3_SC_, symObjAddr: 0xC3DC, symBinAddr: 0x100056BD8, symSize: 0x64 }
  - { offsetInCU: 0x94E4, offset: 0xC95A5, size: 0x8, addend: 0x0, symName: __ZNSt3__121__unwrap_and_dispatchB8ue170006INS_10__overloadINS_11__move_loopINS_17_ClassicAlgPolicyEEENS_14__move_trivialEEENS_16reverse_iteratorIPP10BaseButtonEESB_SB_Li0EEENS_4pairIT0_T2_EESD_T1_SE_, symObjAddr: 0xC440, symBinAddr: 0x100056C3C, symSize: 0x12C }
  - { offsetInCU: 0x9580, offset: 0xC9641, size: 0x8, addend: 0x0, symName: __ZNSt3__114__unwrap_rangeB8ue170006INS_16reverse_iteratorIPP10BaseButtonEES5_EENS_4pairIT0_S7_EET_S9_, symObjAddr: 0xC56C, symBinAddr: 0x100056D68, symSize: 0x84 }
  - { offsetInCU: 0x96FC, offset: 0xC97BD, size: 0x8, addend: 0x0, symName: __ZNSt3__113__unwrap_iterB8ue170006INS_16reverse_iteratorIPP10BaseButtonEENS_18__unwrap_iter_implIS5_Lb0EEELi0EEEDTclsrT0_8__unwrapclsr3stdE7declvalIT_EEEES9_, symObjAddr: 0xC690, symBinAddr: 0x100056E8C, symSize: 0x44 }
  - { offsetInCU: 0x9745, offset: 0xC9806, size: 0x8, addend: 0x0, symName: __ZNSt3__19make_pairB8ue170006INS_16reverse_iteratorIPP10BaseButtonEES5_EENS_4pairINS_18__unwrap_ref_decayIT_E4typeENS7_IT0_E4typeEEEOS8_OSB_, symObjAddr: 0xC6D4, symBinAddr: 0x100056ED0, symSize: 0x38 }
  - { offsetInCU: 0x9794, offset: 0xC9855, size: 0x8, addend: 0x0, symName: __ZNSt3__114__rewrap_rangeB8ue170006INS_16reverse_iteratorIPP10BaseButtonEES5_EET_S6_T0_, symObjAddr: 0xC70C, symBinAddr: 0x100056F08, symSize: 0x5C }
  - { offsetInCU: 0x97E6, offset: 0xC98A7, size: 0x8, addend: 0x0, symName: __ZNSt3__113__rewrap_iterB8ue170006INS_16reverse_iteratorIPP10BaseButtonEES5_NS_18__unwrap_iter_implIS5_Lb0EEEEET_S8_T0_, symObjAddr: 0xC768, symBinAddr: 0x100056F64, symSize: 0x74 }
  - { offsetInCU: 0x9841, offset: 0xC9902, size: 0x8, addend: 0x0, symName: __ZNSt3__1neB8ue170006IPP10BaseButtonS3_EEbRKNS_16reverse_iteratorIT_EERKNS4_IT0_EE, symObjAddr: 0xC7DC, symBinAddr: 0x100056FD8, symSize: 0x48 }
  - { offsetInCU: 0x994F, offset: 0xC9A10, size: 0x8, addend: 0x0, symName: __ZNSt3__18distanceB8ue170006INS_11__wrap_iterIPP10BaseButtonEEEENS_15iterator_traitsIT_E15difference_typeES7_S7_, symObjAddr: 0xE0EC, symBinAddr: 0x100057740, symSize: 0x3C }
  - { offsetInCU: 0x9998, offset: 0xC9A59, size: 0x8, addend: 0x0, symName: __ZNSt3__1miB8ue170006IPKP10BaseButtonPS2_EEDTmicldtfp_4baseEcldtfp0_4baseEERKNS_11__wrap_iterIT_EERKNS7_IT0_EE, symObjAddr: 0xE128, symBinAddr: 0x10005777C, symSize: 0x48 }
  - { offsetInCU: 0x99E4, offset: 0xC9AA5, size: 0x8, addend: 0x0, symName: __ZNSt3__14nextB8ue170006INS_11__wrap_iterIPP10BaseButtonEEEENS_9enable_ifIXsr29__has_input_iterator_categoryIT_EE5valueES7_E4typeES7_NS_15iterator_traitsIS7_E15difference_typeE, symObjAddr: 0xE170, symBinAddr: 0x1000577C4, symSize: 0x3C }
  - { offsetInCU: 0x9A2D, offset: 0xC9AEE, size: 0x8, addend: 0x0, symName: __ZNSt3__14copyB8ue170006INS_11__wrap_iterIPP10BaseButtonEES4_EET0_T_S7_S6_, symObjAddr: 0xE3AC, symBinAddr: 0x100057A00, symSize: 0x50 }
  - { offsetInCU: 0x9A90, offset: 0xC9B51, size: 0x8, addend: 0x0, symName: __ZNSt3__121__convert_to_integralB8ue170006El, symObjAddr: 0xE630, symBinAddr: 0x100057C84, symSize: 0x14 }
  - { offsetInCU: 0x9AC0, offset: 0xC9B81, size: 0x8, addend: 0x0, symName: __ZNSt3__19__advanceB8ue170006INS_11__wrap_iterIPP10BaseButtonEEEEvRT_NS_15iterator_traitsIS6_E15difference_typeENS_26random_access_iterator_tagE, symObjAddr: 0xE644, symBinAddr: 0x100057C98, symSize: 0x2C }
  - { offsetInCU: 0x9B0B, offset: 0xC9BCC, size: 0x8, addend: 0x0, symName: __ZNSt3__130__uninitialized_allocator_copyB8ue170006INS_9allocatorIP10BaseButtonEENS_11__wrap_iterIPS3_EES7_S6_EET2_RT_T0_T1_S8_, symObjAddr: 0xE698, symBinAddr: 0x100057CEC, symSize: 0x90 }
  - { offsetInCU: 0x9BB5, offset: 0xC9C76, size: 0x8, addend: 0x0, symName: __ZNSt3__114__unwrap_rangeB8ue170006INS_11__wrap_iterIPP10BaseButtonEES4_EENS_4pairIT0_S7_EET_S9_, symObjAddr: 0xE728, symBinAddr: 0x100057D7C, symSize: 0x70 }
  - { offsetInCU: 0x9C08, offset: 0xC9CC9, size: 0x8, addend: 0x0, symName: __ZNSt3__135__uninitialized_allocator_copy_implB8ue170006INS_9allocatorIP10BaseButtonEES3_S3_S3_LPv0EEEPT2_RT_PT0_SB_S7_, symObjAddr: 0xE798, symBinAddr: 0x100057DEC, symSize: 0x38 }
  - { offsetInCU: 0x9C92, offset: 0xC9D53, size: 0x8, addend: 0x0, symName: __ZNSt3__113__unwrap_iterB8ue170006IPP10BaseButtonNS_18__unwrap_iter_implIS3_Lb1EEELi0EEEDTclsrT0_8__unwrapclsr3stdE7declvalIT_EEEES7_, symObjAddr: 0xE7D0, symBinAddr: 0x100057E24, symSize: 0x24 }
  - { offsetInCU: 0x9CDA, offset: 0xC9D9B, size: 0x8, addend: 0x0, symName: __ZNSt3__113__rewrap_iterB8ue170006IPP10BaseButtonS3_NS_18__unwrap_iter_implIS3_Lb1EEEEET_S6_T0_, symObjAddr: 0xE7F4, symBinAddr: 0x100057E48, symSize: 0x3C }
  - { offsetInCU: 0x9D36, offset: 0xC9DF7, size: 0x8, addend: 0x0, symName: __ZNSt3__19make_pairB8ue170006IPP10BaseButtonS3_EENS_4pairINS_18__unwrap_ref_decayIT_E4typeENS5_IT0_E4typeEEEOS6_OS9_, symObjAddr: 0xE830, symBinAddr: 0x100057E84, symSize: 0x38 }
  - { offsetInCU: 0x9D85, offset: 0xC9E46, size: 0x8, addend: 0x0, symName: __ZNSt3__113__unwrap_iterB8ue170006INS_11__wrap_iterIPP10BaseButtonEENS_18__unwrap_iter_implIS5_Lb1EEELi0EEEDTclsrT0_8__unwrapclsr3stdE7declvalIT_EEEES9_, symObjAddr: 0xE868, symBinAddr: 0x100057EBC, symSize: 0x2C }
  - { offsetInCU: 0x9F5A, offset: 0xCA01B, size: 0x8, addend: 0x0, symName: __ZNSt3__112__to_addressB8ue170006INS_11__wrap_iterIPP10BaseButtonEEvEEu7__decayIDTclsr19__to_address_helperIT_EE6__callclsr3stdE7declvalIRKS6_EEEEES8_, symObjAddr: 0xE92C, symBinAddr: 0x100057F80, symSize: 0x24 }
  - { offsetInCU: 0xA037, offset: 0xCA0F8, size: 0x8, addend: 0x0, symName: __ZNSt3__14copyB8ue170006IPP10BaseButtonS3_EET0_T_S5_S4_, symObjAddr: 0xE9AC, symBinAddr: 0x100058000, symSize: 0x40 }
  - { offsetInCU: 0xA099, offset: 0xCA15A, size: 0x8, addend: 0x0, symName: __ZNSt3__16__copyB8ue170006INS_17_ClassicAlgPolicyEPP10BaseButtonS4_S4_EENS_4pairIT0_T2_EES6_T1_S7_, symObjAddr: 0xE9EC, symBinAddr: 0x100058040, symSize: 0x44 }
  - { offsetInCU: 0xA10D, offset: 0xCA1CE, size: 0x8, addend: 0x0, symName: __ZNSt3__123__dispatch_copy_or_moveB8ue170006INS_17_ClassicAlgPolicyENS_11__copy_loopIS1_EENS_14__copy_trivialEPP10BaseButtonS7_S7_EENS_4pairIT2_T4_EES9_T3_SA_, symObjAddr: 0xEA30, symBinAddr: 0x100058084, symSize: 0x44 }
  - { offsetInCU: 0xA193, offset: 0xCA254, size: 0x8, addend: 0x0, symName: __ZNSt3__121__unwrap_and_dispatchB8ue170006INS_10__overloadINS_11__copy_loopINS_17_ClassicAlgPolicyEEENS_14__copy_trivialEEEPP10BaseButtonS9_S9_Li0EEENS_4pairIT0_T2_EESB_T1_SC_, symObjAddr: 0xEA74, symBinAddr: 0x1000580C8, symSize: 0xB4 }
  - { offsetInCU: 0xA22D, offset: 0xCA2EE, size: 0x8, addend: 0x0, symName: __ZNSt3__114__unwrap_rangeB8ue170006IPP10BaseButtonS3_EENS_4pairIT0_S5_EET_S7_, symObjAddr: 0xEB28, symBinAddr: 0x10005817C, symSize: 0x60 }
  - { offsetInCU: 0xA2C9, offset: 0xCA38A, size: 0x8, addend: 0x0, symName: __ZNSt3__114__rewrap_rangeB8ue170006IPP10BaseButtonS3_EET_S4_T0_, symObjAddr: 0xEBD0, symBinAddr: 0x100058224, symSize: 0x2C }
  - { offsetInCU: 0xA31B, offset: 0xCA3DC, size: 0x8, addend: 0x0, symName: __ZNSt3__119__copy_trivial_implB8ue170006IP10BaseButtonS2_EENS_4pairIPT_PT0_EES5_S5_S7_, symObjAddr: 0xEBFC, symBinAddr: 0x100058250, symSize: 0x80 }
  - { offsetInCU: 0xA38D, offset: 0xCA44E, size: 0x8, addend: 0x0, symName: __ZNSt3__119__constexpr_memmoveB8ue170006IP10BaseButtonS2_Li0EEEPT_S4_PT0_NS_15__element_countE, symObjAddr: 0xEC7C, symBinAddr: 0x1000582D0, symSize: 0x64 }
  - { offsetInCU: 0xA3FC, offset: 0xCA4BD, size: 0x8, addend: 0x0, symName: __ZNSt3__19make_pairB8ue170006IRPP10BaseButtonS3_EENS_4pairINS_18__unwrap_ref_decayIT_E4typeENS6_IT0_E4typeEEEOS7_OSA_, symObjAddr: 0xECE0, symBinAddr: 0x100058334, symSize: 0x38 }
  - { offsetInCU: 0xA4A6, offset: 0xCA567, size: 0x8, addend: 0x0, symName: __ZNSt3__113move_backwardB8ue170006IPP10BaseButtonS3_EET0_T_S5_S4_, symObjAddr: 0xEDFC, symBinAddr: 0x100058450, symSize: 0x40 }
  - { offsetInCU: 0xA508, offset: 0xCA5C9, size: 0x8, addend: 0x0, symName: __ZNSt3__115__move_backwardB8ue170006INS_17_ClassicAlgPolicyEPP10BaseButtonS4_S4_EENS_4pairIT0_T2_EES6_T1_S7_, symObjAddr: 0xEE3C, symBinAddr: 0x100058490, symSize: 0x44 }
  - { offsetInCU: 0xA57C, offset: 0xCA63D, size: 0x8, addend: 0x0, symName: __ZNSt3__123__dispatch_copy_or_moveB8ue170006INS_17_ClassicAlgPolicyENS_20__move_backward_loopIS1_EENS_23__move_backward_trivialEPP10BaseButtonS7_S7_EENS_4pairIT2_T4_EES9_T3_SA_, symObjAddr: 0xEE80, symBinAddr: 0x1000584D4, symSize: 0x44 }
  - { offsetInCU: 0xA602, offset: 0xCA6C3, size: 0x8, addend: 0x0, symName: __ZNSt3__121__unwrap_and_dispatchB8ue170006INS_10__overloadINS_20__move_backward_loopINS_17_ClassicAlgPolicyEEENS_23__move_backward_trivialEEEPP10BaseButtonS9_S9_Li0EEENS_4pairIT0_T2_EESB_T1_SC_, symObjAddr: 0xEEC4, symBinAddr: 0x100058518, symSize: 0xB4 }
  - { offsetInCU: 0xA6E6, offset: 0xCA7A7, size: 0x8, addend: 0x0, symName: __ZNSt3__128__copy_backward_trivial_implB8ue170006IP10BaseButtonS2_EENS_4pairIPT_PT0_EES5_S5_S7_, symObjAddr: 0xEFC0, symBinAddr: 0x100058614, symSize: 0x90 }
  - { offsetInCU: 0xA759, offset: 0xCA81A, size: 0x8, addend: 0x0, symName: __ZNSt3__19make_pairB8ue170006IRPP10BaseButtonS4_EENS_4pairINS_18__unwrap_ref_decayIT_E4typeENS6_IT0_E4typeEEEOS7_OSA_, symObjAddr: 0xF050, symBinAddr: 0x1000586A4, symSize: 0x38 }
  - { offsetInCU: 0xA7A8, offset: 0xCA869, size: 0x8, addend: 0x0, symName: __ZNSt3__16__copyB8ue170006INS_17_ClassicAlgPolicyENS_11__wrap_iterIPP10BaseButtonEES6_S5_EENS_4pairIT0_T2_EES8_T1_S9_, symObjAddr: 0xF0F8, symBinAddr: 0x10005874C, symSize: 0x54 }
  - { offsetInCU: 0xA81C, offset: 0xCA8DD, size: 0x8, addend: 0x0, symName: __ZNSt3__123__dispatch_copy_or_moveB8ue170006INS_17_ClassicAlgPolicyENS_11__copy_loopIS1_EENS_14__copy_trivialENS_11__wrap_iterIPP10BaseButtonEES9_S8_EENS_4pairIT2_T4_EESB_T3_SC_, symObjAddr: 0xF14C, symBinAddr: 0x1000587A0, symSize: 0x54 }
  - { offsetInCU: 0xA8A2, offset: 0xCA963, size: 0x8, addend: 0x0, symName: __ZNSt3__121__unwrap_and_dispatchB8ue170006INS_10__overloadINS_11__copy_loopINS_17_ClassicAlgPolicyEEENS_14__copy_trivialEEENS_11__wrap_iterIPP10BaseButtonEESB_SA_Li0EEENS_4pairIT0_T2_EESD_T1_SE_, symObjAddr: 0xF1A0, symBinAddr: 0x1000587F4, symSize: 0xCC }
  - { offsetInCU: 0xA93D, offset: 0xCA9FE, size: 0x8, addend: 0x0, symName: __ZNSt3__19make_pairB8ue170006INS_11__wrap_iterIPP10BaseButtonEES4_EENS_4pairINS_18__unwrap_ref_decayIT_E4typeENS7_IT0_E4typeEEEOS8_OSB_, symObjAddr: 0xF26C, symBinAddr: 0x1000588C0, symSize: 0x38 }
  - { offsetInCU: 0xA98C, offset: 0xCAA4D, size: 0x8, addend: 0x0, symName: __ZNSt3__114__rewrap_rangeB8ue170006INS_11__wrap_iterIPP10BaseButtonEES4_EET_S6_T0_, symObjAddr: 0xF2A4, symBinAddr: 0x1000588F8, symSize: 0x3C }
  - { offsetInCU: 0xAAB2, offset: 0xCAB73, size: 0x8, addend: 0x0, symName: __ZNSt3__113__rewrap_iterB8ue170006INS_11__wrap_iterIPP10BaseButtonEES4_NS_18__unwrap_iter_implIS5_Lb1EEEEET_S8_T0_, symObjAddr: 0xF350, symBinAddr: 0x1000589A4, symSize: 0x4C }
  - { offsetInCU: 0xAB0E, offset: 0xCABCF, size: 0x8, addend: 0x0, symName: __ZNSt3__142__uninitialized_allocator_move_if_noexceptB8ue170006INS_9allocatorIP10BaseButtonEEPS3_S5_S3_vEET1_RT_T0_S9_S6_, symObjAddr: 0xF55C, symBinAddr: 0x100058BB0, symSize: 0x38 }
  - { offsetInCU: 0xAB94, offset: 0xCAC55, size: 0x8, addend: 0x0, symName: __ZNSt3__14moveB8ue170006IPP10BaseButtonS3_EET0_T_S5_S4_, symObjAddr: 0xF594, symBinAddr: 0x100058BE8, symSize: 0x40 }
  - { offsetInCU: 0xABF6, offset: 0xCACB7, size: 0x8, addend: 0x0, symName: __ZNSt3__16__moveB8ue170006INS_17_ClassicAlgPolicyEPP10BaseButtonS4_S4_EENS_4pairIT0_T2_EES6_T1_S7_, symObjAddr: 0xF5D4, symBinAddr: 0x100058C28, symSize: 0x44 }
  - { offsetInCU: 0xAC6A, offset: 0xCAD2B, size: 0x8, addend: 0x0, symName: __ZNSt3__123__dispatch_copy_or_moveB8ue170006INS_17_ClassicAlgPolicyENS_11__move_loopIS1_EENS_14__move_trivialEPP10BaseButtonS7_S7_EENS_4pairIT2_T4_EES9_T3_SA_, symObjAddr: 0xF618, symBinAddr: 0x100058C6C, symSize: 0x44 }
  - { offsetInCU: 0xACF0, offset: 0xCADB1, size: 0x8, addend: 0x0, symName: __ZNSt3__121__unwrap_and_dispatchB8ue170006INS_10__overloadINS_11__move_loopINS_17_ClassicAlgPolicyEEENS_14__move_trivialEEEPP10BaseButtonS9_S9_Li0EEENS_4pairIT0_T2_EESB_T1_SC_, symObjAddr: 0xF65C, symBinAddr: 0x100058CB0, symSize: 0xB4 }
  - { offsetInCU: 0xADD4, offset: 0xCAE95, size: 0x8, addend: 0x0, symName: __ZNSt3__110__distanceB8ue170006INS_11__wrap_iterIPP10BaseButtonEEEENS_15iterator_traitsIT_E15difference_typeES7_S7_NS_26random_access_iterator_tagE, symObjAddr: 0xF758, symBinAddr: 0x100058DAC, symSize: 0x30 }
  - { offsetInCU: 0xAE29, offset: 0xCAEEA, size: 0x8, addend: 0x0, symName: __ZNSt3__1miB8ue170006IPP10BaseButtonS3_EEDTmicldtfp_4baseEcldtfp0_4baseEERKNS_11__wrap_iterIT_EERKNS5_IT0_EE, symObjAddr: 0xF788, symBinAddr: 0x100058DDC, symSize: 0x48 }
  - { offsetInCU: 0xE340, offset: 0xCE401, size: 0x8, addend: 0x0, symName: __ZNSt3__16vectorIP10BaseButtonNS_9allocatorIS2_EEE26__swap_out_circular_bufferERNS_14__split_bufferIS2_RS4_EE, symObjAddr: 0xB74C, symBinAddr: 0x100056280, symSize: 0x110 }
